   1              		.file	"bootmgfw.c"
   2              		.text
   3              	.Ltext0:
   4              		.cfi_sections	.debug_frame
   5              		.file 0 "C:/Users/victim/Documents/GitHub/MrsMajor5.0/UEFI/Backend" "C:/Users/victim/Documents/Git
   6              		.globl	fabs
   8              		.seh_proc	fabs
   9              	fabs:
  10              	.LVL0:
  11              	.LFB2:
  12              		.file 1 "C:/Users/victim/Documents/GitHub/MrsMajor5.0/UEFI/bootmgfw.c"
   1:C:/Users/victim/Documents/GitHub/MrsMajor5.0/UEFI\bootmgfw.c **** #include <efi.h>
   2:C:/Users/victim/Documents/GitHub/MrsMajor5.0/UEFI\bootmgfw.c **** #include <efilib.h>
   3:C:/Users/victim/Documents/GitHub/MrsMajor5.0/UEFI\bootmgfw.c **** 
   4:C:/Users/victim/Documents/GitHub/MrsMajor5.0/UEFI\bootmgfw.c **** // UEFI color constants
   5:C:/Users/victim/Documents/GitHub/MrsMajor5.0/UEFI\bootmgfw.c **** #define EFI_BLACK        0x00
   6:C:/Users/victim/Documents/GitHub/MrsMajor5.0/UEFI\bootmgfw.c **** #define EFI_BLUE         0x01
   7:C:/Users/victim/Documents/GitHub/MrsMajor5.0/UEFI\bootmgfw.c **** #define EFI_GREEN        0x02
   8:C:/Users/victim/Documents/GitHub/MrsMajor5.0/UEFI\bootmgfw.c **** #define EFI_RED          0x04
   9:C:/Users/victim/Documents/GitHub/MrsMajor5.0/UEFI\bootmgfw.c **** #define EFI_BRIGHT       0x08
  10:C:/Users/victim/Documents/GitHub/MrsMajor5.0/UEFI\bootmgfw.c **** 
  11:C:/Users/victim/Documents/GitHub/MrsMajor5.0/UEFI\bootmgfw.c **** #ifndef M_PI
  12:C:/Users/victim/Documents/GitHub/MrsMajor5.0/UEFI\bootmgfw.c **** #define M_PI 3.14159265358979323846
  13:C:/Users/victim/Documents/GitHub/MrsMajor5.0/UEFI\bootmgfw.c **** #endif
  14:C:/Users/victim/Documents/GitHub/MrsMajor5.0/UEFI\bootmgfw.c **** 
  15:C:/Users/victim/Documents/GitHub/MrsMajor5.0/UEFI\bootmgfw.c **** #ifndef DEG_TO_RAD
  16:C:/Users/victim/Documents/GitHub/MrsMajor5.0/UEFI\bootmgfw.c **** #define DEG_TO_RAD(angle) ((angle) * M_PI / 180.0)
  17:C:/Users/victim/Documents/GitHub/MrsMajor5.0/UEFI\bootmgfw.c **** #endif
  18:C:/Users/victim/Documents/GitHub/MrsMajor5.0/UEFI\bootmgfw.c **** 
  19:C:/Users/victim/Documents/GitHub/MrsMajor5.0/UEFI\bootmgfw.c **** #define SPEAKER_PORT 0x61
  20:C:/Users/victim/Documents/GitHub/MrsMajor5.0/UEFI\bootmgfw.c **** #define TIMER_COMMAND_PORT 0x43
  21:C:/Users/victim/Documents/GitHub/MrsMajor5.0/UEFI\bootmgfw.c **** #define TIMER_DATA_PORT 0x42
  22:C:/Users/victim/Documents/GitHub/MrsMajor5.0/UEFI\bootmgfw.c **** #define PIT_FREQUENCY 1193180
  23:C:/Users/victim/Documents/GitHub/MrsMajor5.0/UEFI\bootmgfw.c **** 
  24:C:/Users/victim/Documents/GitHub/MrsMajor5.0/UEFI\bootmgfw.c **** // Custom absolute value function for double
  25:C:/Users/victim/Documents/GitHub/MrsMajor5.0/UEFI\bootmgfw.c **** double fabs(double x) {
  13              		.loc 1 25 23 view -0
  14              		.cfi_startproc
  15              		.loc 1 25 23 is_stmt 0 view .LVU1
  16              		.seh_endprologue
  26:C:/Users/victim/Documents/GitHub/MrsMajor5.0/UEFI\bootmgfw.c ****     return (x < 0) ? -x : x;
  17              		.loc 1 26 5 is_stmt 1 view .LVU2
  18              		.loc 1 26 25 is_stmt 0 view .LVU3
  19 0000 660FEFC9 		pxor	%xmm1, %xmm1
  20 0004 660F2FC8 		comisd	%xmm0, %xmm1
  21 0008 7701     		ja	.L5
  22              	.LVL1:
  23              	.L2:
  27:C:/Users/victim/Documents/GitHub/MrsMajor5.0/UEFI\bootmgfw.c **** }
  24              		.loc 1 27 1 view .LVU4
  25 000a C3       		ret
  26              	.LVL2:
  27              	.L5:
  26:C:/Users/victim/Documents/GitHub/MrsMajor5.0/UEFI\bootmgfw.c ****     return (x < 0) ? -x : x;
  28              		.loc 1 26 25 discriminator 1 view .LVU5
  29 000b 660F5705 		xorpd	.LC1(%rip), %xmm0
  29      50010000 
  30              	.LVL3:
  26:C:/Users/victim/Documents/GitHub/MrsMajor5.0/UEFI\bootmgfw.c ****     return (x < 0) ? -x : x;
  31              		.loc 1 26 25 discriminator 1 view .LVU6
  32 0013 EBF5     		jmp	.L2
  33              		.cfi_endproc
  34              	.LFE2:
  35              		.seh_endproc
  36              		.globl	Sin
  38              		.seh_proc	Sin
  39              	Sin:
  40              	.LVL4:
  41              	.LFB5:
  28:C:/Users/victim/Documents/GitHub/MrsMajor5.0/UEFI\bootmgfw.c **** 
  29:C:/Users/victim/Documents/GitHub/MrsMajor5.0/UEFI\bootmgfw.c **** static inline void outb(UINT16 port, UINT8 val) {
  30:C:/Users/victim/Documents/GitHub/MrsMajor5.0/UEFI\bootmgfw.c ****     __asm__ __volatile__ ("outb %0, %1" : : "a"(val), "Nd"(port));
  31:C:/Users/victim/Documents/GitHub/MrsMajor5.0/UEFI\bootmgfw.c **** }
  32:C:/Users/victim/Documents/GitHub/MrsMajor5.0/UEFI\bootmgfw.c **** 
  33:C:/Users/victim/Documents/GitHub/MrsMajor5.0/UEFI\bootmgfw.c **** static inline UINT8 inb(UINT16 port) {
  34:C:/Users/victim/Documents/GitHub/MrsMajor5.0/UEFI\bootmgfw.c ****     UINT8 ret;
  35:C:/Users/victim/Documents/GitHub/MrsMajor5.0/UEFI\bootmgfw.c ****     __asm__ __volatile__ ("inb %1, %0" : "=a"(ret) : "Nd"(port));
  36:C:/Users/victim/Documents/GitHub/MrsMajor5.0/UEFI\bootmgfw.c ****     return ret;
  37:C:/Users/victim/Documents/GitHub/MrsMajor5.0/UEFI\bootmgfw.c **** }
  38:C:/Users/victim/Documents/GitHub/MrsMajor5.0/UEFI\bootmgfw.c **** 
  39:C:/Users/victim/Documents/GitHub/MrsMajor5.0/UEFI\bootmgfw.c **** EFI_STATUS EFIAPI efi_main(EFI_HANDLE ImageHandle, EFI_SYSTEM_TABLE* SystemTable);
  40:C:/Users/victim/Documents/GitHub/MrsMajor5.0/UEFI\bootmgfw.c **** 
  41:C:/Users/victim/Documents/GitHub/MrsMajor5.0/UEFI\bootmgfw.c **** INTN Sin(UINTN angle) {
  42              		.loc 1 41 23 is_stmt 1 view -0
  43              		.cfi_startproc
  44              		.loc 1 41 23 is_stmt 0 view .LVU8
  45 0015 53       		pushq	%rbx
  46              		.seh_pushreg	%rbx
  47              		.cfi_def_cfa_offset 16
  48              		.cfi_offset 3, -16
  49 0016 4883EC50 		subq	$80, %rsp
  50              		.seh_stackalloc	80
  51              		.cfi_def_cfa_offset 96
  52 001a 0F117424 		movups	%xmm6, 32(%rsp)
  52      20
  53              		.seh_savexmm	%xmm6, 32
  54 001f 0F117C24 		movups	%xmm7, 48(%rsp)
  54      30
  55              		.seh_savexmm	%xmm7, 48
  56 0024 440F1144 		movups	%xmm8, 64(%rsp)
  56      2440
  57              		.seh_savexmm	%xmm8, 64
  58              		.cfi_offset 23, -64
  59              		.cfi_offset 24, -48
  60              		.cfi_offset 25, -32
  61              		.seh_endprologue
  42:C:/Users/victim/Documents/GitHub/MrsMajor5.0/UEFI\bootmgfw.c ****     // Convert angle to radians
  43:C:/Users/victim/Documents/GitHub/MrsMajor5.0/UEFI\bootmgfw.c ****     double rad = DEG_TO_RAD(angle);
  62              		.loc 1 43 5 is_stmt 1 view .LVU9
  63              		.loc 1 43 18 is_stmt 0 view .LVU10
  64 002a 4885C9   		testq	%rcx, %rcx
  65 002d 7829     		js	.L7
  66 002f 660FEFFF 		pxor	%xmm7, %xmm7
  67 0033 F2480F2A 		cvtsi2sdq	%rcx, %xmm7
  67      F9
  68              	.LVL5:
  69              	.L8:
  70              		.loc 1 43 18 view .LVU11
  71 0038 F20F593D 		mulsd	.LC2(%rip), %xmm7
  71      60010000 
  72              		.loc 1 43 12 view .LVU12
  73 0040 F20F5E3D 		divsd	.LC3(%rip), %xmm7
  73      68010000 
  74              	.LVL6:
  44:C:/Users/victim/Documents/GitHub/MrsMajor5.0/UEFI\bootmgfw.c **** 
  45:C:/Users/victim/Documents/GitHub/MrsMajor5.0/UEFI\bootmgfw.c ****     // Taylor series approximation for sin(x)
  46:C:/Users/victim/Documents/GitHub/MrsMajor5.0/UEFI\bootmgfw.c ****     double term = rad;  // first term is x
  75              		.loc 1 46 5 is_stmt 1 view .LVU13
  47:C:/Users/victim/Documents/GitHub/MrsMajor5.0/UEFI\bootmgfw.c ****     double sum = 0.0;
  76              		.loc 1 47 5 view .LVU14
  48:C:/Users/victim/Documents/GitHub/MrsMajor5.0/UEFI\bootmgfw.c ****     int n = 1;
  77              		.loc 1 48 5 view .LVU15
  49:C:/Users/victim/Documents/GitHub/MrsMajor5.0/UEFI\bootmgfw.c **** 
  50:C:/Users/victim/Documents/GitHub/MrsMajor5.0/UEFI\bootmgfw.c ****     while (fabs(term) > 1e-10) {  // convergence threshold
  78              		.loc 1 50 5 view .LVU16
  46:C:/Users/victim/Documents/GitHub/MrsMajor5.0/UEFI\bootmgfw.c ****     double sum = 0.0;
  79              		.loc 1 46 12 is_stmt 0 view .LVU17
  80 0048 660F28F7 		movapd	%xmm7, %xmm6
  48:C:/Users/victim/Documents/GitHub/MrsMajor5.0/UEFI\bootmgfw.c ****     int n = 1;
  81              		.loc 1 48 9 view .LVU18
  82 004c BB010000 		movl	$1, %ebx
  82      00
  47:C:/Users/victim/Documents/GitHub/MrsMajor5.0/UEFI\bootmgfw.c ****     int n = 1;
  83              		.loc 1 47 12 view .LVU19
  84 0051 66450FEF 		pxor	%xmm8, %xmm8
  84      C0
  85              		.loc 1 50 11 view .LVU20
  86 0056 EB4B     		jmp	.L9
  87              	.LVL7:
  88              	.L7:
  43:C:/Users/victim/Documents/GitHub/MrsMajor5.0/UEFI\bootmgfw.c **** 
  89              		.loc 1 43 18 view .LVU21
  90 0058 4889C8   		movq	%rcx, %rax
  91 005b 48D1E8   		shrq	%rax
  92 005e 83E101   		andl	$1, %ecx
  93              	.LVL8:
  43:C:/Users/victim/Documents/GitHub/MrsMajor5.0/UEFI\bootmgfw.c **** 
  94              		.loc 1 43 18 view .LVU22
  95 0061 4809C8   		orq	%rcx, %rax
  96 0064 660FEFFF 		pxor	%xmm7, %xmm7
  97 0068 F2480F2A 		cvtsi2sdq	%rax, %xmm7
  97      F8
  98 006d F20F58FF 		addsd	%xmm7, %xmm7
  99 0071 EBC5     		jmp	.L8
 100              	.LVL9:
 101              	.L10:
  51:C:/Users/victim/Documents/GitHub/MrsMajor5.0/UEFI\bootmgfw.c ****         sum += term;
 102              		.loc 1 51 9 is_stmt 1 view .LVU23
 103              		.loc 1 51 13 is_stmt 0 view .LVU24
 104 0073 F2440F58 		addsd	%xmm6, %xmm8
 104      C6
 105              	.LVL10:
  52:C:/Users/victim/Documents/GitHub/MrsMajor5.0/UEFI\bootmgfw.c ****         n += 2;
 106              		.loc 1 52 9 is_stmt 1 view .LVU25
 107              		.loc 1 52 11 is_stmt 0 view .LVU26
 108 0078 8D4302   		leal	2(%rbx), %eax
 109              	.LVL11:
  53:C:/Users/victim/Documents/GitHub/MrsMajor5.0/UEFI\bootmgfw.c ****         term *= -rad * rad / ((n - 1) * n);
 110              		.loc 1 53 9 is_stmt 1 view .LVU27
 111              		.loc 1 53 17 is_stmt 0 view .LVU28
 112 007b 660F28C7 		movapd	%xmm7, %xmm0
 113 007f 660F5705 		xorpd	.LC1(%rip), %xmm0
 113      50010000 
 114              		.loc 1 53 22 view .LVU29
 115 0087 F20F59C7 		mulsd	%xmm7, %xmm0
 116              		.loc 1 53 34 view .LVU30
 117 008b 83C301   		addl	$1, %ebx
 118              		.loc 1 53 39 view .LVU31
 119 008e 0FAFD8   		imull	%eax, %ebx
 120              		.loc 1 53 28 view .LVU32
 121 0091 660FEFC9 		pxor	%xmm1, %xmm1
 122 0095 F20F2ACB 		cvtsi2sdl	%ebx, %xmm1
 123 0099 F20F5EC1 		divsd	%xmm1, %xmm0
 124              		.loc 1 53 14 view .LVU33
 125 009d F20F59F0 		mulsd	%xmm0, %xmm6
 126              	.LVL12:
  52:C:/Users/victim/Documents/GitHub/MrsMajor5.0/UEFI\bootmgfw.c ****         n += 2;
 127              		.loc 1 52 11 view .LVU34
 128 00a1 89C3     		movl	%eax, %ebx
 129              	.LVL13:
 130              	.L9:
  50:C:/Users/victim/Documents/GitHub/MrsMajor5.0/UEFI\bootmgfw.c ****         sum += term;
 131              		.loc 1 50 23 is_stmt 1 view .LVU35
  50:C:/Users/victim/Documents/GitHub/MrsMajor5.0/UEFI\bootmgfw.c ****         sum += term;
 132              		.loc 1 50 12 is_stmt 0 view .LVU36
 133 00a3 660F28C6 		movapd	%xmm6, %xmm0
 134 00a7 E854FFFF 		call	fabs
 134      FF
 135              	.LVL14:
  50:C:/Users/victim/Documents/GitHub/MrsMajor5.0/UEFI\bootmgfw.c ****         sum += term;
 136              		.loc 1 50 23 discriminator 1 view .LVU37
 137 00ac 660F2F05 		comisd	.LC4(%rip), %xmm0
 137      70010000 
 138 00b4 77BD     		ja	.L10
  54:C:/Users/victim/Documents/GitHub/MrsMajor5.0/UEFI\bootmgfw.c ****     }
  55:C:/Users/victim/Documents/GitHub/MrsMajor5.0/UEFI\bootmgfw.c **** 
  56:C:/Users/victim/Documents/GitHub/MrsMajor5.0/UEFI\bootmgfw.c ****     return (INTN)(sum * 10);  // scale the amplitude appropriately
 139              		.loc 1 56 5 is_stmt 1 view .LVU38
 140              		.loc 1 56 23 is_stmt 0 view .LVU39
 141 00b6 F2440F59 		mulsd	.LC5(%rip), %xmm8
 141      05780100 
 141      00
 142              	.LVL15:
 143              		.loc 1 56 12 view .LVU40
 144 00bf F2490F2C 		cvttsd2siq	%xmm8, %rax
 144      C0
  57:C:/Users/victim/Documents/GitHub/MrsMajor5.0/UEFI\bootmgfw.c **** }
 145              		.loc 1 57 1 view .LVU41
 146 00c4 0F107424 		movups	32(%rsp), %xmm6
 146      20
 147              	.LVL16:
 148              		.loc 1 57 1 view .LVU42
 149 00c9 0F107C24 		movups	48(%rsp), %xmm7
 149      30
 150              	.LVL17:
 151              		.loc 1 57 1 view .LVU43
 152 00ce 440F1044 		movups	64(%rsp), %xmm8
 152      2440
 153 00d4 4883C450 		addq	$80, %rsp
 154              		.cfi_restore 25
 155              		.cfi_restore 24
 156              		.cfi_restore 23
 157              		.cfi_def_cfa_offset 16
 158 00d8 5B       		popq	%rbx
 159              		.cfi_restore 3
 160              		.cfi_def_cfa_offset 8
 161              	.LVL18:
 162              		.loc 1 57 1 view .LVU44
 163 00d9 C3       		ret
 164              		.cfi_endproc
 165              	.LFE5:
 166              		.seh_endproc
 167              		.globl	my_rand
 169              		.seh_proc	my_rand
 170              	my_rand:
 171              	.LFB6:
  58:C:/Users/victim/Documents/GitHub/MrsMajor5.0/UEFI\bootmgfw.c **** 
  59:C:/Users/victim/Documents/GitHub/MrsMajor5.0/UEFI\bootmgfw.c **** // Custom random number generator
  60:C:/Users/victim/Documents/GitHub/MrsMajor5.0/UEFI\bootmgfw.c **** static unsigned long seed = 12345;
  61:C:/Users/victim/Documents/GitHub/MrsMajor5.0/UEFI\bootmgfw.c **** unsigned int my_rand() {
 172              		.loc 1 61 24 is_stmt 1 view -0
 173              		.cfi_startproc
 174              		.seh_endprologue
  62:C:/Users/victim/Documents/GitHub/MrsMajor5.0/UEFI\bootmgfw.c ****     seed = (seed * 1103515245 + 12345) % (1 << 31);
 175              		.loc 1 62 5 view .LVU46
 176              		.loc 1 62 18 is_stmt 0 view .LVU47
 177 00da 6905FCFF 		imull	$1103515245, seed(%rip), %eax
 177      FFFF6D4E 
 177      C641
 178              		.loc 1 62 31 view .LVU48
 179 00e4 05393000 		addl	$12345, %eax
 179      00
 180              		.loc 1 62 40 view .LVU49
 181 00e9 25FFFFFF 		andl	$2147483647, %eax
 181      7F
 182              		.loc 1 62 10 view .LVU50
 183 00ee 89050000 		movl	%eax, seed(%rip)
 183      0000
  63:C:/Users/victim/Documents/GitHub/MrsMajor5.0/UEFI\bootmgfw.c ****     return seed;
 184              		.loc 1 63 5 is_stmt 1 view .LVU51
  64:C:/Users/victim/Documents/GitHub/MrsMajor5.0/UEFI\bootmgfw.c **** }
 185              		.loc 1 64 1 is_stmt 0 view .LVU52
 186 00f4 C3       		ret
 187              		.cfi_endproc
 188              	.LFE6:
 189              		.seh_endproc
 190              		.globl	delay
 192              		.seh_proc	delay
 193              	delay:
 194              	.LVL19:
 195              	.LFB7:
  65:C:/Users/victim/Documents/GitHub/MrsMajor5.0/UEFI\bootmgfw.c **** 
  66:C:/Users/victim/Documents/GitHub/MrsMajor5.0/UEFI\bootmgfw.c **** // Function for busy-wait delay
  67:C:/Users/victim/Documents/GitHub/MrsMajor5.0/UEFI\bootmgfw.c **** void delay(UINTN duration) {
 196              		.loc 1 67 28 is_stmt 1 view -0
 197              		.cfi_startproc
 198              		.loc 1 67 28 is_stmt 0 view .LVU54
 199 00f5 4883EC18 		subq	$24, %rsp
 200              		.seh_stackalloc	24
 201              		.cfi_def_cfa_offset 32
 202              		.seh_endprologue
  68:C:/Users/victim/Documents/GitHub/MrsMajor5.0/UEFI\bootmgfw.c ****     volatile UINTN i;
 203              		.loc 1 68 5 is_stmt 1 view .LVU55
  69:C:/Users/victim/Documents/GitHub/MrsMajor5.0/UEFI\bootmgfw.c ****     for (i = 0; i < duration; i++);
 204              		.loc 1 69 5 view .LVU56
 205              		.loc 1 69 12 is_stmt 0 view .LVU57
 206 00f9 48C74424 		movq	$0, 8(%rsp)
 206      08000000 
 206      00
 207              		.loc 1 69 5 view .LVU58
 208 0102 EB2A     		jmp	.L13
 209              		.loc 1 69 5 view .LVU59
 210 0104 66662E0F 		.p2align 5
 210      1F840000 
 210      00000066 
 210      662E0F1F 
 210      84000000 
 211              	.L14:
 212              		.loc 1 69 32 is_stmt 1 discriminator 3 view .LVU60
 213 0120 488B4424 		movq	8(%rsp), %rax
 213      08
 214 0125 4883C001 		addq	$1, %rax
 215 0129 48894424 		movq	%rax, 8(%rsp)
 215      08
 216              	.L13:
 217              		.loc 1 69 19 discriminator 1 view .LVU61
 218 012e 488B4424 		movq	8(%rsp), %rax
 218      08
 219 0133 4839C8   		cmpq	%rcx, %rax
 220 0136 72E8     		jb	.L14
  70:C:/Users/victim/Documents/GitHub/MrsMajor5.0/UEFI\bootmgfw.c **** }
 221              		.loc 1 70 1 is_stmt 0 view .LVU62
 222 0138 4883C418 		addq	$24, %rsp
 223              		.cfi_def_cfa_offset 8
 224 013c C3       		ret
 225              		.cfi_endproc
 226              	.LFE7:
 227              		.seh_endproc
 228              		.globl	random_color
 230              		.seh_proc	random_color
 231              	random_color:
 232              	.LFB8:
  71:C:/Users/victim/Documents/GitHub/MrsMajor5.0/UEFI\bootmgfw.c **** 
  72:C:/Users/victim/Documents/GitHub/MrsMajor5.0/UEFI\bootmgfw.c **** // Function to generate random valid UEFI color (restrict certain combinations)
  73:C:/Users/victim/Documents/GitHub/MrsMajor5.0/UEFI\bootmgfw.c **** UINTN random_color() {
 233              		.loc 1 73 22 is_stmt 1 view -0
 234              		.cfi_startproc
 235 013d 56       		pushq	%rsi
 236              		.seh_pushreg	%rsi
 237              		.cfi_def_cfa_offset 16
 238              		.cfi_offset 4, -16
 239 013e 53       		pushq	%rbx
 240              		.seh_pushreg	%rbx
 241              		.cfi_def_cfa_offset 24
 242              		.cfi_offset 3, -24
 243 013f 4881ECA8 		subq	$168, %rsp
 243      000000
 244              		.seh_stackalloc	168
 245              		.cfi_def_cfa_offset 192
 246              		.seh_endprologue
  74:C:/Users/victim/Documents/GitHub/MrsMajor5.0/UEFI\bootmgfw.c ****     // Define color codes manually
  75:C:/Users/victim/Documents/GitHub/MrsMajor5.0/UEFI\bootmgfw.c ****     UINTN fg_colors[16] = {
 247              		.loc 1 75 5 view .LVU64
 248              		.loc 1 75 11 is_stmt 0 view .LVU65
 249 0146 48C74424 		movq	$0, 32(%rsp)
 249      20000000 
 249      00
 250 014f 48C74424 		movq	$1, 40(%rsp)
 250      28010000 
 250      00
 251 0158 48C74424 		movq	$2, 48(%rsp)
 251      30020000 
 251      00
 252 0161 48C74424 		movq	$4, 56(%rsp)
 252      38040000 
 252      00
 253 016a 48C74424 		movq	$8, 64(%rsp)
 253      40080000 
 253      00
 254 0173 48C74424 		movq	$9, 72(%rsp)
 254      48090000 
 254      00
 255 017c 48C74424 		movq	$10, 80(%rsp)
 255      500A0000 
 255      00
 256 0185 48C74424 		movq	$12, 88(%rsp)
 256      580C0000 
 256      00
 257 018e 48C74424 		movq	$2, 96(%rsp)
 257      60020000 
 257      00
 258 0197 48C74424 		movq	$1, 104(%rsp)
 258      68010000 
 258      00
 259 01a0 48C74424 		movq	$4, 112(%rsp)
 259      70040000 
 259      00
 260 01a9 48C74424 		movq	$14, 120(%rsp)
 260      780E0000 
 260      00
 261 01b2 48C78424 		movq	$5, 128(%rsp)
 261      80000000 
 261      05000000 
 262 01be 48C78424 		movq	$3, 136(%rsp)
 262      88000000 
 262      03000000 
 263 01ca 48C78424 		movq	$15, 144(%rsp)
 263      90000000 
 263      0F000000 
 264 01d6 48C78424 		movq	$15, 152(%rsp)
 264      98000000 
 264      0F000000 
  76:C:/Users/victim/Documents/GitHub/MrsMajor5.0/UEFI\bootmgfw.c ****         EFI_BLACK, EFI_BLUE, EFI_GREEN, EFI_RED,
  77:C:/Users/victim/Documents/GitHub/MrsMajor5.0/UEFI\bootmgfw.c ****         EFI_BLACK | EFI_BRIGHT, EFI_BLUE | EFI_BRIGHT, EFI_GREEN | EFI_BRIGHT, EFI_RED | EFI_BRIGHT
  78:C:/Users/victim/Documents/GitHub/MrsMajor5.0/UEFI\bootmgfw.c ****         EFI_BLACK | EFI_GREEN, EFI_BLACK | EFI_BLUE, EFI_BLACK | EFI_RED, EFI_BLACK | EFI_YELLOW,
  79:C:/Users/victim/Documents/GitHub/MrsMajor5.0/UEFI\bootmgfw.c ****         EFI_BLACK | EFI_MAGENTA, EFI_BLACK | EFI_CYAN, EFI_BLACK | EFI_WHITE, EFI_WHITE
  80:C:/Users/victim/Documents/GitHub/MrsMajor5.0/UEFI\bootmgfw.c ****     };
  81:C:/Users/victim/Documents/GitHub/MrsMajor5.0/UEFI\bootmgfw.c **** 
  82:C:/Users/victim/Documents/GitHub/MrsMajor5.0/UEFI\bootmgfw.c ****     // Randomly choose a foreground color from 16 colors
  83:C:/Users/victim/Documents/GitHub/MrsMajor5.0/UEFI\bootmgfw.c ****     UINTN fg_color = fg_colors[my_rand() % 16];
 265              		.loc 1 83 5 is_stmt 1 view .LVU66
 266              		.loc 1 83 32 is_stmt 0 view .LVU67
 267 01e2 E8F3FEFF 		call	my_rand
 267      FF
 268              	.LVL20:
 269              		.loc 1 83 11 discriminator 1 view .LVU68
 270 01e7 83E00F   		andl	$15, %eax
 271 01ea 488B74C4 		movq	32(%rsp,%rax,8), %rsi
 271      20
 272              	.LVL21:
  84:C:/Users/victim/Documents/GitHub/MrsMajor5.0/UEFI\bootmgfw.c ****     // Randomly choose a background color from 16 colors
  85:C:/Users/victim/Documents/GitHub/MrsMajor5.0/UEFI\bootmgfw.c ****     UINTN bg_color = fg_colors[my_rand() % 16];
 273              		.loc 1 85 5 is_stmt 1 view .LVU69
 274              		.loc 1 85 32 is_stmt 0 view .LVU70
 275 01ef E8E6FEFF 		call	my_rand
 275      FF
 276              	.LVL22:
 277              		.loc 1 85 11 discriminator 1 view .LVU71
 278 01f4 83E00F   		andl	$15, %eax
 279 01f7 488B5CC4 		movq	32(%rsp,%rax,8), %rbx
 279      20
 280              	.LVL23:
  86:C:/Users/victim/Documents/GitHub/MrsMajor5.0/UEFI\bootmgfw.c **** 
  87:C:/Users/victim/Documents/GitHub/MrsMajor5.0/UEFI\bootmgfw.c ****     // Ensure that the foreground and background aren't the same
  88:C:/Users/victim/Documents/GitHub/MrsMajor5.0/UEFI\bootmgfw.c ****     if (fg_color == bg_color) {
 281              		.loc 1 88 5 is_stmt 1 view .LVU72
 282              		.loc 1 88 8 is_stmt 0 view .LVU73
 283 01fc 4839DE   		cmpq	%rbx, %rsi
 284 01ff 7414     		je	.L17
 285              	.LVL24:
 286              	.L16:
  89:C:/Users/victim/Documents/GitHub/MrsMajor5.0/UEFI\bootmgfw.c ****         fg_color = fg_colors[(my_rand() % 15) + 1];  // Shift the foreground if they are the same
  90:C:/Users/victim/Documents/GitHub/MrsMajor5.0/UEFI\bootmgfw.c ****     }
  91:C:/Users/victim/Documents/GitHub/MrsMajor5.0/UEFI\bootmgfw.c **** 
  92:C:/Users/victim/Documents/GitHub/MrsMajor5.0/UEFI\bootmgfw.c ****     // Combine background and foreground colors
  93:C:/Users/victim/Documents/GitHub/MrsMajor5.0/UEFI\bootmgfw.c ****     return (bg_color << 4) | fg_color;
 287              		.loc 1 93 5 is_stmt 1 view .LVU74
 288              		.loc 1 93 22 is_stmt 0 view .LVU75
 289 0201 4889D8   		movq	%rbx, %rax
 290 0204 48C1E004 		salq	$4, %rax
 291              		.loc 1 93 28 view .LVU76
 292 0208 4809F0   		orq	%rsi, %rax
  94:C:/Users/victim/Documents/GitHub/MrsMajor5.0/UEFI\bootmgfw.c **** }
 293              		.loc 1 94 1 view .LVU77
 294 020b 4881C4A8 		addq	$168, %rsp
 294      000000
 295              		.cfi_remember_state
 296              		.cfi_def_cfa_offset 24
 297 0212 5B       		popq	%rbx
 298              		.cfi_restore 3
 299              		.cfi_def_cfa_offset 16
 300              	.LVL25:
 301              		.loc 1 94 1 view .LVU78
 302 0213 5E       		popq	%rsi
 303              		.cfi_restore 4
 304              		.cfi_def_cfa_offset 8
 305              	.LVL26:
 306              		.loc 1 94 1 view .LVU79
 307 0214 C3       		ret
 308              	.LVL27:
 309              	.L17:
 310              		.cfi_restore_state
  89:C:/Users/victim/Documents/GitHub/MrsMajor5.0/UEFI\bootmgfw.c ****         fg_color = fg_colors[(my_rand() % 15) + 1];  // Shift the foreground if they are the same
 311              		.loc 1 89 9 is_stmt 1 view .LVU80
  89:C:/Users/victim/Documents/GitHub/MrsMajor5.0/UEFI\bootmgfw.c ****         fg_color = fg_colors[(my_rand() % 15) + 1];  // Shift the foreground if they are the same
 312              		.loc 1 89 31 is_stmt 0 view .LVU81
 313 0215 E8C0FEFF 		call	my_rand
 313      FF
 314              	.LVL28:
  89:C:/Users/victim/Documents/GitHub/MrsMajor5.0/UEFI\bootmgfw.c ****         fg_color = fg_colors[(my_rand() % 15) + 1];  // Shift the foreground if they are the same
 315              		.loc 1 89 41 discriminator 1 view .LVU82
 316 021a 89C2     		movl	%eax, %edx
 317 021c B9898888 		movl	$2290649225, %ecx
 317      88
 318 0221 480FAFD1 		imulq	%rcx, %rdx
 319 0225 48C1EA23 		shrq	$35, %rdx
 320 0229 89D1     		movl	%edx, %ecx
 321 022b C1E104   		sall	$4, %ecx
 322 022e 29D1     		subl	%edx, %ecx
 323 0230 29C8     		subl	%ecx, %eax
  89:C:/Users/victim/Documents/GitHub/MrsMajor5.0/UEFI\bootmgfw.c ****         fg_color = fg_colors[(my_rand() % 15) + 1];  // Shift the foreground if they are the same
 324              		.loc 1 89 18 discriminator 1 view .LVU83
 325 0232 8D4001   		leal	1(%rax), %eax
 326 0235 488B74C4 		movq	32(%rsp,%rax,8), %rsi
 326      20
 327              	.LVL29:
  89:C:/Users/victim/Documents/GitHub/MrsMajor5.0/UEFI\bootmgfw.c ****         fg_color = fg_colors[(my_rand() % 15) + 1];  // Shift the foreground if they are the same
 328              		.loc 1 89 18 discriminator 1 view .LVU84
 329 023a EBC5     		jmp	.L16
 330              		.cfi_endproc
 331              	.LFE8:
 332              		.seh_endproc
 333              		.section .rdata,"dr"
 334              		.align 8
 335              	.LC6:
 336 0000 45007200 		.ascii "E\0r\0r\0o\0r\0 \0q\0u\0e\0r\0y\0i\0n\0g\0 \0s\0c\0r\0e\0e\0n\0 \0s\0i\0z\0e\0.\0\12\0\0\0
 336      72006F00 
 336      72002000 
 336      71007500 
 336      65007200 
 337              		.align 2
 338              	.LC7:
 339 003a 25006300 		.ascii "%\0c\0\0\0"
 339      0000
 340              		.text
 341              		.globl	rotating_characters_all_colors
 343              		.seh_proc	rotating_characters_all_colors
 344              	rotating_characters_all_colors:
 345              	.LVL30:
 346              	.LFB9:
  95:C:/Users/victim/Documents/GitHub/MrsMajor5.0/UEFI\bootmgfw.c **** 
  96:C:/Users/victim/Documents/GitHub/MrsMajor5.0/UEFI\bootmgfw.c **** // Effect 1: Rotating Characters with All Colors
  97:C:/Users/victim/Documents/GitHub/MrsMajor5.0/UEFI\bootmgfw.c **** void rotating_characters_all_colors(EFI_SYSTEM_TABLE* SystemTable) {
 347              		.loc 1 97 68 is_stmt 1 view -0
 348              		.cfi_startproc
 349              		.loc 1 97 68 is_stmt 0 view .LVU86
 350 023c 4155     		pushq	%r13
 351              		.seh_pushreg	%r13
 352              		.cfi_def_cfa_offset 16
 353              		.cfi_offset 13, -16
 354 023e 4154     		pushq	%r12
 355              		.seh_pushreg	%r12
 356              		.cfi_def_cfa_offset 24
 357              		.cfi_offset 12, -24
 358 0240 55       		pushq	%rbp
 359              		.seh_pushreg	%rbp
 360              		.cfi_def_cfa_offset 32
 361              		.cfi_offset 6, -32
 362 0241 57       		pushq	%rdi
 363              		.seh_pushreg	%rdi
 364              		.cfi_def_cfa_offset 40
 365              		.cfi_offset 5, -40
 366 0242 56       		pushq	%rsi
 367              		.seh_pushreg	%rsi
 368              		.cfi_def_cfa_offset 48
 369              		.cfi_offset 4, -48
 370 0243 53       		pushq	%rbx
 371              		.seh_pushreg	%rbx
 372              		.cfi_def_cfa_offset 56
 373              		.cfi_offset 3, -56
 374 0244 4881ECB8 		subq	$184, %rsp
 374      000000
 375              		.seh_stackalloc	184
 376              		.cfi_def_cfa_offset 240
 377              		.seh_endprologue
  98:C:/Users/victim/Documents/GitHub/MrsMajor5.0/UEFI\bootmgfw.c ****     EFI_SIMPLE_TEXT_OUT_PROTOCOL* ConOut = SystemTable->ConOut;
 378              		.loc 1 98 5 is_stmt 1 view .LVU87
 379              		.loc 1 98 35 is_stmt 0 view .LVU88
 380 024b 488B7140 		movq	64(%rcx), %rsi
 381              	.LVL31:
  99:C:/Users/victim/Documents/GitHub/MrsMajor5.0/UEFI\bootmgfw.c ****     UINTN Columns, Rows;
 382              		.loc 1 99 5 is_stmt 1 view .LVU89
 100:C:/Users/victim/Documents/GitHub/MrsMajor5.0/UEFI\bootmgfw.c ****     EFI_STATUS Status;
 383              		.loc 1 100 5 view .LVU90
 101:C:/Users/victim/Documents/GitHub/MrsMajor5.0/UEFI\bootmgfw.c **** 
 102:C:/Users/victim/Documents/GitHub/MrsMajor5.0/UEFI\bootmgfw.c ****     // Get the dimensions of the screen
 103:C:/Users/victim/Documents/GitHub/MrsMajor5.0/UEFI\bootmgfw.c ****     Status = uefi_call_wrapper(ConOut->QueryMode, 4, ConOut, ConOut->Mode->Mode, &Columns, &Rows);
 384              		.loc 1 103 5 view .LVU91
 385              		.loc 1 103 14 is_stmt 0 view .LVU92
 386 024f 488B4648 		movq	72(%rsi), %rax
 387 0253 48635004 		movslq	4(%rax), %rdx
 388 0257 4C8D8C24 		leaq	160(%rsp), %r9
 388      A0000000 
 389 025f 4C8D8424 		leaq	168(%rsp), %r8
 389      A8000000 
 390 0267 4889F1   		movq	%rsi, %rcx
 391              	.LVL32:
 392              		.loc 1 103 14 view .LVU93
 393 026a FF5618   		call	*24(%rsi)
 394              	.LVL33:
 104:C:/Users/victim/Documents/GitHub/MrsMajor5.0/UEFI\bootmgfw.c ****     if (EFI_ERROR(Status)) {
 395              		.loc 1 104 5 is_stmt 1 view .LVU94
 396              		.loc 1 104 8 is_stmt 0 view .LVU95
 397 026d 4885C0   		testq	%rax, %rax
 398 0270 0F88A700 		js	.L33
 398      0000
 105:C:/Users/victim/Documents/GitHub/MrsMajor5.0/UEFI\bootmgfw.c ****         Print(L"Error querying screen size.\n");
 106:C:/Users/victim/Documents/GitHub/MrsMajor5.0/UEFI\bootmgfw.c ****         return;
 107:C:/Users/victim/Documents/GitHub/MrsMajor5.0/UEFI\bootmgfw.c ****     }
 108:C:/Users/victim/Documents/GitHub/MrsMajor5.0/UEFI\bootmgfw.c **** 
 109:C:/Users/victim/Documents/GitHub/MrsMajor5.0/UEFI\bootmgfw.c ****     CHAR16 rotatingChar;
 399              		.loc 1 109 5 is_stmt 1 view .LVU96
 110:C:/Users/victim/Documents/GitHub/MrsMajor5.0/UEFI\bootmgfw.c ****     UINTN defaultColor = EFI_LIGHTGRAY;  // Set a default color (light gray in this case)
 400              		.loc 1 110 5 view .LVU97
 401              	.LVL34:
 111:C:/Users/victim/Documents/GitHub/MrsMajor5.0/UEFI\bootmgfw.c **** 
 112:C:/Users/victim/Documents/GitHub/MrsMajor5.0/UEFI\bootmgfw.c ****     // List of all available colors
 113:C:/Users/victim/Documents/GitHub/MrsMajor5.0/UEFI\bootmgfw.c ****     UINTN colors[] = {
 402              		.loc 1 113 5 view .LVU98
 403              		.loc 1 113 11 is_stmt 0 view .LVU99
 404 0276 48C74424 		movq	$0, 32(%rsp)
 404      20000000 
 404      00
 405 027f 48C74424 		movq	$1, 40(%rsp)
 405      28010000 
 405      00
 406 0288 48C74424 		movq	$2, 48(%rsp)
 406      30020000 
 406      00
 407 0291 48C74424 		movq	$3, 56(%rsp)
 407      38030000 
 407      00
 408 029a 48C74424 		movq	$4, 64(%rsp)
 408      40040000 
 408      00
 409 02a3 48C74424 		movq	$5, 72(%rsp)
 409      48050000 
 409      00
 410 02ac 48C74424 		movq	$6, 80(%rsp)
 410      50060000 
 410      00
 411 02b5 48C74424 		movq	$7, 88(%rsp)
 411      58070000 
 411      00
 412 02be 48C74424 		movq	$8, 96(%rsp)
 412      60080000 
 412      00
 413 02c7 48C74424 		movq	$9, 104(%rsp)
 413      68090000 
 413      00
 414 02d0 48C74424 		movq	$10, 112(%rsp)
 414      700A0000 
 414      00
 415 02d9 48C74424 		movq	$11, 120(%rsp)
 415      780B0000 
 415      00
 416 02e2 48C78424 		movq	$12, 128(%rsp)
 416      80000000 
 416      0C000000 
 417 02ee 48C78424 		movq	$13, 136(%rsp)
 417      88000000 
 417      0D000000 
 418 02fa 48C78424 		movq	$14, 144(%rsp)
 418      90000000 
 418      0E000000 
 419 0306 48C78424 		movq	$15, 152(%rsp)
 419      98000000 
 419      0F000000 
 114:C:/Users/victim/Documents/GitHub/MrsMajor5.0/UEFI\bootmgfw.c ****         EFI_BLACK, EFI_BLUE, EFI_GREEN, EFI_CYAN, EFI_RED, EFI_MAGENTA, 
 115:C:/Users/victim/Documents/GitHub/MrsMajor5.0/UEFI\bootmgfw.c ****         EFI_BROWN, EFI_LIGHTGRAY, EFI_DARKGRAY, EFI_LIGHTBLUE, EFI_LIGHTGREEN, 
 116:C:/Users/victim/Documents/GitHub/MrsMajor5.0/UEFI\bootmgfw.c ****         EFI_LIGHTCYAN, EFI_LIGHTRED, EFI_LIGHTMAGENTA, EFI_YELLOW, EFI_WHITE
 117:C:/Users/victim/Documents/GitHub/MrsMajor5.0/UEFI\bootmgfw.c ****     };
 118:C:/Users/victim/Documents/GitHub/MrsMajor5.0/UEFI\bootmgfw.c **** 
 119:C:/Users/victim/Documents/GitHub/MrsMajor5.0/UEFI\bootmgfw.c ****     UINTN totalColors = sizeof(colors) / sizeof(colors[0]);
 420              		.loc 1 119 5 is_stmt 1 view .LVU100
 421              	.LVL35:
 120:C:/Users/victim/Documents/GitHub/MrsMajor5.0/UEFI\bootmgfw.c **** 
 121:C:/Users/victim/Documents/GitHub/MrsMajor5.0/UEFI\bootmgfw.c ****     // Loop through all colors once
 122:C:/Users/victim/Documents/GitHub/MrsMajor5.0/UEFI\bootmgfw.c ****     for (UINTN colorIndex = 0; colorIndex < totalColors; colorIndex++) {
 422              		.loc 1 122 5 view .LVU101
 423              	.LBB16:
 424              		.loc 1 122 10 view .LVU102
 425              		.loc 1 122 16 is_stmt 0 view .LVU103
 426 0312 41BD0000 		movl	$0, %r13d
 426      0000
 427              		.loc 1 122 5 view .LVU104
 428 0318 E9B30000 		jmp	.L21
 428      00
 429              	.LVL36:
 430              	.L33:
 431              		.loc 1 122 5 view .LVU105
 432              	.LBE16:
 105:C:/Users/victim/Documents/GitHub/MrsMajor5.0/UEFI\bootmgfw.c ****         return;
 433              		.loc 1 105 9 is_stmt 1 view .LVU106
 434 031d 488D0D00 		leaq	.LC6(%rip), %rcx
 434      000000
 435 0324 E8000000 		call	Print
 435      00
 436              	.LVL37:
 106:C:/Users/victim/Documents/GitHub/MrsMajor5.0/UEFI\bootmgfw.c ****     }
 437              		.loc 1 106 9 view .LVU107
 438 0329 E9C70000 		jmp	.L18
 438      00
 439              	.LVL38:
 440              	.L36:
 441              	.LBB25:
 442              	.LBB17:
 443              	.LBB18:
 123:C:/Users/victim/Documents/GitHub/MrsMajor5.0/UEFI\bootmgfw.c ****         UINTN color = colors[colorIndex];
 124:C:/Users/victim/Documents/GitHub/MrsMajor5.0/UEFI\bootmgfw.c ****         uefi_call_wrapper(ConOut->SetAttribute, 1, ConOut, color);
 125:C:/Users/victim/Documents/GitHub/MrsMajor5.0/UEFI\bootmgfw.c **** 
 126:C:/Users/victim/Documents/GitHub/MrsMajor5.0/UEFI\bootmgfw.c ****         // Display rotating characters across the entire screen
 127:C:/Users/victim/Documents/GitHub/MrsMajor5.0/UEFI\bootmgfw.c ****         for (UINTN i = 0; i < 4; i++) {
 128:C:/Users/victim/Documents/GitHub/MrsMajor5.0/UEFI\bootmgfw.c ****             rotatingChar = (i % 4 == 0) ? L'/' :
 444              		.loc 1 128 26 is_stmt 0 discriminator 5 view .LVU108
 445 032e BD7C0000 		movl	$124, %ebp
 445      00
 446 0333 EB05     		jmp	.L23
 447              	.L29:
 448              		.loc 1 128 26 discriminator 2 view .LVU109
 449 0335 BD2F0000 		movl	$47, %ebp
 449      00
 450              	.L23:
 451              	.LVL39:
 129:C:/Users/victim/Documents/GitHub/MrsMajor5.0/UEFI\bootmgfw.c ****                            (i % 4 == 1) ? L'-' :
 130:C:/Users/victim/Documents/GitHub/MrsMajor5.0/UEFI\bootmgfw.c ****                            (i % 4 == 2) ? L'|' : L'\\';
 131:C:/Users/victim/Documents/GitHub/MrsMajor5.0/UEFI\bootmgfw.c **** 
 132:C:/Users/victim/Documents/GitHub/MrsMajor5.0/UEFI\bootmgfw.c ****             // Clear the screen before each iteration to avoid character overlap
 133:C:/Users/victim/Documents/GitHub/MrsMajor5.0/UEFI\bootmgfw.c ****             uefi_call_wrapper(ConOut->ClearScreen, 1, ConOut);
 452              		.loc 1 133 13 is_stmt 1 view .LVU110
 453 033a 4889F1   		movq	%rsi, %rcx
 454 033d FF5630   		call	*48(%rsi)
 455              	.LVL40:
 134:C:/Users/victim/Documents/GitHub/MrsMajor5.0/UEFI\bootmgfw.c **** 
 135:C:/Users/victim/Documents/GitHub/MrsMajor5.0/UEFI\bootmgfw.c ****             for (UINTN row = 0; row < Rows; row++) {
 456              		.loc 1 135 13 view .LVU111
 457              	.LBB19:
 458              		.loc 1 135 18 view .LVU112
 459              		.loc 1 135 24 is_stmt 0 view .LVU113
 460 0340 BF000000 		movl	$0, %edi
 460      00
 461              		.loc 1 135 13 view .LVU114
 462 0345 EB34     		jmp	.L24
 463              	.LVL41:
 464              	.L30:
 465              		.loc 1 135 13 view .LVU115
 466              	.LBE19:
 128:C:/Users/victim/Documents/GitHub/MrsMajor5.0/UEFI\bootmgfw.c ****                            (i % 4 == 1) ? L'-' :
 467              		.loc 1 128 26 discriminator 4 view .LVU116
 468 0347 BD2D0000 		movl	$45, %ebp
 468      00
 469 034c EBEC     		jmp	.L23
 470              	.LVL42:
 471              	.L25:
 472              	.LBB22:
 473              	.LBB20:
 136:C:/Users/victim/Documents/GitHub/MrsMajor5.0/UEFI\bootmgfw.c ****                 for (UINTN col = 0; col < Columns; col++) {
 137:C:/Users/victim/Documents/GitHub/MrsMajor5.0/UEFI\bootmgfw.c ****                     uefi_call_wrapper(ConOut->SetCursorPosition, 2, ConOut, col, row);
 474              		.loc 1 137 21 is_stmt 1 view .LVU117
 475 034e 4989F8   		movq	%rdi, %r8
 476 0351 4889DA   		movq	%rbx, %rdx
 477 0354 4889F1   		movq	%rsi, %rcx
 478 0357 FF5638   		call	*56(%rsi)
 479              	.LVL43:
 138:C:/Users/victim/Documents/GitHub/MrsMajor5.0/UEFI\bootmgfw.c ****                     Print(L"%c", rotatingChar);
 480              		.loc 1 138 21 view .LVU118
 481 035a 0FB7D5   		movzwl	%bp, %edx
 482 035d 488D0D3A 		leaq	.LC7(%rip), %rcx
 482      000000
 483 0364 E8000000 		call	Print
 483      00
 484              	.LVL44:
 136:C:/Users/victim/Documents/GitHub/MrsMajor5.0/UEFI\bootmgfw.c ****                 for (UINTN col = 0; col < Columns; col++) {
 485              		.loc 1 136 55 discriminator 3 view .LVU119
 486 0369 4883C301 		addq	$1, %rbx
 487              	.LVL45:
 488              	.L26:
 136:C:/Users/victim/Documents/GitHub/MrsMajor5.0/UEFI\bootmgfw.c ****                 for (UINTN col = 0; col < Columns; col++) {
 489              		.loc 1 136 41 discriminator 1 view .LVU120
 490 036d 483B9C24 		cmpq	168(%rsp), %rbx
 490      A8000000 
 491 0375 72D7     		jb	.L25
 492              	.LBE20:
 135:C:/Users/victim/Documents/GitHub/MrsMajor5.0/UEFI\bootmgfw.c ****                 for (UINTN col = 0; col < Columns; col++) {
 493              		.loc 1 135 48 discriminator 2 view .LVU121
 494 0377 4883C701 		addq	$1, %rdi
 495              	.LVL46:
 496              	.L24:
 135:C:/Users/victim/Documents/GitHub/MrsMajor5.0/UEFI\bootmgfw.c ****                 for (UINTN col = 0; col < Columns; col++) {
 497              		.loc 1 135 37 discriminator 1 view .LVU122
 498 037b 483BBC24 		cmpq	160(%rsp), %rdi
 498      A0000000 
 499 0383 7307     		jnb	.L34
 500              	.LBB21:
 136:C:/Users/victim/Documents/GitHub/MrsMajor5.0/UEFI\bootmgfw.c ****                 for (UINTN col = 0; col < Columns; col++) {
 501              		.loc 1 136 28 is_stmt 0 view .LVU123
 502 0385 BB000000 		movl	$0, %ebx
 502      00
 503 038a EBE1     		jmp	.L26
 504              	.L34:
 505              	.LBE21:
 506              	.LBE22:
 139:C:/Users/victim/Documents/GitHub/MrsMajor5.0/UEFI\bootmgfw.c ****                 }
 140:C:/Users/victim/Documents/GitHub/MrsMajor5.0/UEFI\bootmgfw.c ****             }
 141:C:/Users/victim/Documents/GitHub/MrsMajor5.0/UEFI\bootmgfw.c **** 
 142:C:/Users/victim/Documents/GitHub/MrsMajor5.0/UEFI\bootmgfw.c ****             // Add delay between rotations to make the effect visible
 143:C:/Users/victim/Documents/GitHub/MrsMajor5.0/UEFI\bootmgfw.c ****             delay(500000);  // Adjust the delay as needed
 507              		.loc 1 143 13 is_stmt 1 view .LVU124
 508 038c B920A107 		movl	$500000, %ecx
 508      00
 509 0391 E85FFDFF 		call	delay
 509      FF
 510              	.LVL47:
 127:C:/Users/victim/Documents/GitHub/MrsMajor5.0/UEFI\bootmgfw.c ****             rotatingChar = (i % 4 == 0) ? L'/' :
 511              		.loc 1 127 35 discriminator 2 view .LVU125
 512 0396 4983C401 		addq	$1, %r12
 513              	.LVL48:
 514              	.L22:
 127:C:/Users/victim/Documents/GitHub/MrsMajor5.0/UEFI\bootmgfw.c ****             rotatingChar = (i % 4 == 0) ? L'/' :
 515              		.loc 1 127 29 discriminator 1 view .LVU126
 516 039a 4983FC03 		cmpq	$3, %r12
 517 039e 7722     		ja	.L35
 128:C:/Users/victim/Documents/GitHub/MrsMajor5.0/UEFI\bootmgfw.c ****                            (i % 4 == 1) ? L'-' :
 518              		.loc 1 128 13 view .LVU127
 128:C:/Users/victim/Documents/GitHub/MrsMajor5.0/UEFI\bootmgfw.c ****                            (i % 4 == 1) ? L'-' :
 519              		.loc 1 128 26 is_stmt 0 view .LVU128
 520 03a0 4C89E0   		movq	%r12, %rax
 521 03a3 83E003   		andl	$3, %eax
 522 03a6 748D     		je	.L29
 128:C:/Users/victim/Documents/GitHub/MrsMajor5.0/UEFI\bootmgfw.c ****                            (i % 4 == 1) ? L'-' :
 523              		.loc 1 128 26 discriminator 1 view .LVU129
 524 03a8 4883F801 		cmpq	$1, %rax
 525 03ac 7499     		je	.L30
 128:C:/Users/victim/Documents/GitHub/MrsMajor5.0/UEFI\bootmgfw.c ****                            (i % 4 == 1) ? L'-' :
 526              		.loc 1 128 26 discriminator 3 view .LVU130
 527 03ae 4883F802 		cmpq	$2, %rax
 528 03b2 0F8476FF 		je	.L36
 528      FFFF
 128:C:/Users/victim/Documents/GitHub/MrsMajor5.0/UEFI\bootmgfw.c ****                            (i % 4 == 1) ? L'-' :
 529              		.loc 1 128 26 discriminator 6 view .LVU131
 530 03b8 BD5C0000 		movl	$92, %ebp
 530      00
 531 03bd E978FFFF 		jmp	.L23
 531      FF
 532              	.L35:
 533              	.LBE18:
 144:C:/Users/victim/Documents/GitHub/MrsMajor5.0/UEFI\bootmgfw.c ****         }
 145:C:/Users/victim/Documents/GitHub/MrsMajor5.0/UEFI\bootmgfw.c **** 
 146:C:/Users/victim/Documents/GitHub/MrsMajor5.0/UEFI\bootmgfw.c ****         // Add delay between color changes to make the transition visible
 147:C:/Users/victim/Documents/GitHub/MrsMajor5.0/UEFI\bootmgfw.c ****         delay(500000);  // Adjust the delay as needed
 534              		.loc 1 147 9 is_stmt 1 view .LVU132
 535 03c2 B920A107 		movl	$500000, %ecx
 535      00
 536 03c7 E829FDFF 		call	delay
 536      FF
 537              	.LVL49:
 538              	.LBE17:
 122:C:/Users/victim/Documents/GitHub/MrsMajor5.0/UEFI\bootmgfw.c ****         UINTN color = colors[colorIndex];
 539              		.loc 1 122 68 discriminator 2 view .LVU133
 540 03cc 4983C501 		addq	$1, %r13
 541              	.LVL50:
 542              	.L21:
 122:C:/Users/victim/Documents/GitHub/MrsMajor5.0/UEFI\bootmgfw.c ****         UINTN color = colors[colorIndex];
 543              		.loc 1 122 43 discriminator 1 view .LVU134
 544 03d0 4983FD0F 		cmpq	$15, %r13
 545 03d4 7713     		ja	.L37
 546              	.LBB24:
 123:C:/Users/victim/Documents/GitHub/MrsMajor5.0/UEFI\bootmgfw.c ****         uefi_call_wrapper(ConOut->SetAttribute, 1, ConOut, color);
 547              		.loc 1 123 9 view .LVU135
 123:C:/Users/victim/Documents/GitHub/MrsMajor5.0/UEFI\bootmgfw.c ****         uefi_call_wrapper(ConOut->SetAttribute, 1, ConOut, color);
 548              		.loc 1 123 15 is_stmt 0 view .LVU136
 549 03d6 4A8B54EC 		movq	32(%rsp,%r13,8), %rdx
 549      20
 550              	.LVL51:
 124:C:/Users/victim/Documents/GitHub/MrsMajor5.0/UEFI\bootmgfw.c **** 
 551              		.loc 1 124 9 is_stmt 1 view .LVU137
 552 03db 4889F1   		movq	%rsi, %rcx
 553 03de FF5628   		call	*40(%rsi)
 554              	.LVL52:
 127:C:/Users/victim/Documents/GitHub/MrsMajor5.0/UEFI\bootmgfw.c ****             rotatingChar = (i % 4 == 0) ? L'/' :
 555              		.loc 1 127 9 view .LVU138
 556              	.LBB23:
 127:C:/Users/victim/Documents/GitHub/MrsMajor5.0/UEFI\bootmgfw.c ****             rotatingChar = (i % 4 == 0) ? L'/' :
 557              		.loc 1 127 14 view .LVU139
 127:C:/Users/victim/Documents/GitHub/MrsMajor5.0/UEFI\bootmgfw.c ****             rotatingChar = (i % 4 == 0) ? L'/' :
 558              		.loc 1 127 20 is_stmt 0 view .LVU140
 559 03e1 41BC0000 		movl	$0, %r12d
 559      0000
 127:C:/Users/victim/Documents/GitHub/MrsMajor5.0/UEFI\bootmgfw.c ****             rotatingChar = (i % 4 == 0) ? L'/' :
 560              		.loc 1 127 9 view .LVU141
 561 03e7 EBB1     		jmp	.L22
 562              	.LVL53:
 563              	.L37:
 127:C:/Users/victim/Documents/GitHub/MrsMajor5.0/UEFI\bootmgfw.c ****             rotatingChar = (i % 4 == 0) ? L'/' :
 564              		.loc 1 127 9 view .LVU142
 565              	.LBE23:
 566              	.LBE24:
 567              	.LBE25:
 148:C:/Users/victim/Documents/GitHub/MrsMajor5.0/UEFI\bootmgfw.c ****     }
 149:C:/Users/victim/Documents/GitHub/MrsMajor5.0/UEFI\bootmgfw.c **** 
 150:C:/Users/victim/Documents/GitHub/MrsMajor5.0/UEFI\bootmgfw.c ****     // Reset to default color after the effect
 151:C:/Users/victim/Documents/GitHub/MrsMajor5.0/UEFI\bootmgfw.c ****     uefi_call_wrapper(ConOut->SetAttribute, 1, ConOut, defaultColor);
 568              		.loc 1 151 5 is_stmt 1 view .LVU143
 569 03e9 BA070000 		movl	$7, %edx
 569      00
 570 03ee 4889F1   		movq	%rsi, %rcx
 571 03f1 FF5628   		call	*40(%rsi)
 572 03f4 90       		nop
 573              	.LVL54:
 574              	.L18:
 152:C:/Users/victim/Documents/GitHub/MrsMajor5.0/UEFI\bootmgfw.c **** }
 575              		.loc 1 152 1 is_stmt 0 view .LVU144
 576 03f5 4881C4B8 		addq	$184, %rsp
 576      000000
 577              		.cfi_def_cfa_offset 56
 578 03fc 5B       		popq	%rbx
 579              		.cfi_restore 3
 580              		.cfi_def_cfa_offset 48
 581 03fd 5E       		popq	%rsi
 582              		.cfi_restore 4
 583              		.cfi_def_cfa_offset 40
 584              	.LVL55:
 585              		.loc 1 152 1 view .LVU145
 586 03fe 5F       		popq	%rdi
 587              		.cfi_restore 5
 588              		.cfi_def_cfa_offset 32
 589 03ff 5D       		popq	%rbp
 590              		.cfi_restore 6
 591              		.cfi_def_cfa_offset 24
 592 0400 415C     		popq	%r12
 593              		.cfi_restore 12
 594              		.cfi_def_cfa_offset 16
 595 0402 415D     		popq	%r13
 596              		.cfi_restore 13
 597              		.cfi_def_cfa_offset 8
 598 0404 C3       		ret
 599              		.cfi_endproc
 600              	.LFE9:
 601              		.seh_endproc
 602              		.globl	complex_blur
 604              		.seh_proc	complex_blur
 605              	complex_blur:
 606              	.LVL56:
 607              	.LFB10:
 153:C:/Users/victim/Documents/GitHub/MrsMajor5.0/UEFI\bootmgfw.c **** 
 154:C:/Users/victim/Documents/GitHub/MrsMajor5.0/UEFI\bootmgfw.c **** // Effect 2: Complex Blur
 155:C:/Users/victim/Documents/GitHub/MrsMajor5.0/UEFI\bootmgfw.c **** void complex_blur(EFI_SYSTEM_TABLE* SystemTable, CHAR16* message, UINTN originalCol, UINTN original
 608              		.loc 1 155 105 is_stmt 1 view -0
 609              		.cfi_startproc
 610              		.loc 1 155 105 is_stmt 0 view .LVU147
 611 0405 4156     		pushq	%r14
 612              		.seh_pushreg	%r14
 613              		.cfi_def_cfa_offset 16
 614              		.cfi_offset 14, -16
 615 0407 4155     		pushq	%r13
 616              		.seh_pushreg	%r13
 617              		.cfi_def_cfa_offset 24
 618              		.cfi_offset 13, -24
 619 0409 4154     		pushq	%r12
 620              		.seh_pushreg	%r12
 621              		.cfi_def_cfa_offset 32
 622              		.cfi_offset 12, -32
 623 040b 55       		pushq	%rbp
 624              		.seh_pushreg	%rbp
 625              		.cfi_def_cfa_offset 40
 626              		.cfi_offset 6, -40
 627 040c 57       		pushq	%rdi
 628              		.seh_pushreg	%rdi
 629              		.cfi_def_cfa_offset 48
 630              		.cfi_offset 5, -48
 631 040d 56       		pushq	%rsi
 632              		.seh_pushreg	%rsi
 633              		.cfi_def_cfa_offset 56
 634              		.cfi_offset 4, -56
 635 040e 53       		pushq	%rbx
 636              		.seh_pushreg	%rbx
 637              		.cfi_def_cfa_offset 64
 638              		.cfi_offset 3, -64
 639 040f 4883EC30 		subq	$48, %rsp
 640              		.seh_stackalloc	48
 641              		.cfi_def_cfa_offset 112
 642              		.seh_endprologue
 643 0413 4889D5   		movq	%rdx, %rbp
 644 0416 4D89C4   		movq	%r8, %r12
 645 0419 4D89CD   		movq	%r9, %r13
 156:C:/Users/victim/Documents/GitHub/MrsMajor5.0/UEFI\bootmgfw.c ****     EFI_SIMPLE_TEXT_OUT_PROTOCOL* ConOut = SystemTable->ConOut;
 646              		.loc 1 156 5 is_stmt 1 view .LVU148
 647              		.loc 1 156 35 is_stmt 0 view .LVU149
 648 041c 488B7140 		movq	64(%rcx), %rsi
 649              	.LVL57:
 157:C:/Users/victim/Documents/GitHub/MrsMajor5.0/UEFI\bootmgfw.c ****     UINTN col, row;
 650              		.loc 1 157 5 is_stmt 1 view .LVU150
 158:C:/Users/victim/Documents/GitHub/MrsMajor5.0/UEFI\bootmgfw.c ****     UINTN Columns, Rows;
 651              		.loc 1 158 5 view .LVU151
 159:C:/Users/victim/Documents/GitHub/MrsMajor5.0/UEFI\bootmgfw.c ****     int blur_intensity = 6;
 652              		.loc 1 159 5 view .LVU152
 160:C:/Users/victim/Documents/GitHub/MrsMajor5.0/UEFI\bootmgfw.c ****     EFI_STATUS Status;
 653              		.loc 1 160 5 view .LVU153
 161:C:/Users/victim/Documents/GitHub/MrsMajor5.0/UEFI\bootmgfw.c **** 
 162:C:/Users/victim/Documents/GitHub/MrsMajor5.0/UEFI\bootmgfw.c ****     // Get the dimensions of the screen
 163:C:/Users/victim/Documents/GitHub/MrsMajor5.0/UEFI\bootmgfw.c ****     Status = uefi_call_wrapper(ConOut->QueryMode, 4, ConOut, ConOut->Mode->Mode, &Columns, &Rows);
 654              		.loc 1 163 5 view .LVU154
 655              		.loc 1 163 14 is_stmt 0 view .LVU155
 656 0420 488B4648 		movq	72(%rsi), %rax
 657 0424 48635004 		movslq	4(%rax), %rdx
 658              	.LVL58:
 659              		.loc 1 163 14 view .LVU156
 660 0428 4C8D4C24 		leaq	32(%rsp), %r9
 660      20
 661              	.LVL59:
 662              		.loc 1 163 14 view .LVU157
 663 042d 4C8D4424 		leaq	40(%rsp), %r8
 663      28
 664              	.LVL60:
 665              		.loc 1 163 14 view .LVU158
 666 0432 4889F1   		movq	%rsi, %rcx
 667              	.LVL61:
 668              		.loc 1 163 14 view .LVU159
 669 0435 FF5618   		call	*24(%rsi)
 670              	.LVL62:
 164:C:/Users/victim/Documents/GitHub/MrsMajor5.0/UEFI\bootmgfw.c ****     if (EFI_ERROR(Status)) {
 671              		.loc 1 164 5 is_stmt 1 view .LVU160
 672              		.loc 1 164 8 is_stmt 0 view .LVU161
 673 0438 4885C0   		testq	%rax, %rax
 674 043b 7807     		js	.L45
 675              	.LBB26:
 165:C:/Users/victim/Documents/GitHub/MrsMajor5.0/UEFI\bootmgfw.c ****         Print(L"Error querying screen size.\n");
 166:C:/Users/victim/Documents/GitHub/MrsMajor5.0/UEFI\bootmgfw.c ****         return;
 167:C:/Users/victim/Documents/GitHub/MrsMajor5.0/UEFI\bootmgfw.c ****     }
 168:C:/Users/victim/Documents/GitHub/MrsMajor5.0/UEFI\bootmgfw.c **** 
 169:C:/Users/victim/Documents/GitHub/MrsMajor5.0/UEFI\bootmgfw.c ****     for (int i = 0; i < blur_intensity; i++) {
 676              		.loc 1 169 14 view .LVU162
 677 043d BF000000 		movl	$0, %edi
 677      00
 678 0442 EB36     		jmp	.L39
 679              	.L45:
 680              	.LBE26:
 165:C:/Users/victim/Documents/GitHub/MrsMajor5.0/UEFI\bootmgfw.c ****         Print(L"Error querying screen size.\n");
 681              		.loc 1 165 9 is_stmt 1 view .LVU163
 682 0444 488D0D00 		leaq	.LC6(%rip), %rcx
 682      000000
 683 044b E8000000 		call	Print
 683      00
 684              	.LVL63:
 166:C:/Users/victim/Documents/GitHub/MrsMajor5.0/UEFI\bootmgfw.c ****     }
 685              		.loc 1 166 9 view .LVU164
 686 0450 E9A80000 		jmp	.L38
 686      00
 687              	.LVL64:
 688              	.L42:
 689              	.LBB29:
 690              	.LBB27:
 170:C:/Users/victim/Documents/GitHub/MrsMajor5.0/UEFI\bootmgfw.c ****         col = originalCol + (my_rand() % 50 - 25);
 171:C:/Users/victim/Documents/GitHub/MrsMajor5.0/UEFI\bootmgfw.c ****         row = originalRow + (my_rand() % 30 - 15);
 172:C:/Users/victim/Documents/GitHub/MrsMajor5.0/UEFI\bootmgfw.c **** 
 173:C:/Users/victim/Documents/GitHub/MrsMajor5.0/UEFI\bootmgfw.c ****         // Ensure coordinates are within screen boundaries
 174:C:/Users/victim/Documents/GitHub/MrsMajor5.0/UEFI\bootmgfw.c ****         if (col >= Columns) col = Columns - 1;
 175:C:/Users/victim/Documents/GitHub/MrsMajor5.0/UEFI\bootmgfw.c ****         if (row >= Rows) row = Rows - 1;
 176:C:/Users/victim/Documents/GitHub/MrsMajor5.0/UEFI\bootmgfw.c **** 
 177:C:/Users/victim/Documents/GitHub/MrsMajor5.0/UEFI\bootmgfw.c ****         UINTN color = random_color();
 691              		.loc 1 177 9 view .LVU165
 692              		.loc 1 177 23 is_stmt 0 view .LVU166
 693 0455 E8E3FCFF 		call	random_color
 693      FF
 694              	.LVL65:
 695 045a 4889C2   		movq	%rax, %rdx
 696              	.LVL66:
 178:C:/Users/victim/Documents/GitHub/MrsMajor5.0/UEFI\bootmgfw.c ****         uefi_call_wrapper(ConOut->SetAttribute, 1, ConOut, color);
 697              		.loc 1 178 9 is_stmt 1 view .LVU167
 698 045d 4889F1   		movq	%rsi, %rcx
 699 0460 FF5628   		call	*40(%rsi)
 700              	.LVL67:
 179:C:/Users/victim/Documents/GitHub/MrsMajor5.0/UEFI\bootmgfw.c ****         uefi_call_wrapper(ConOut->SetCursorPosition, 2, ConOut, col, row);
 701              		.loc 1 179 9 view .LVU168
 702 0463 4D89F0   		movq	%r14, %r8
 703 0466 4889DA   		movq	%rbx, %rdx
 704 0469 4889F1   		movq	%rsi, %rcx
 705 046c FF5638   		call	*56(%rsi)
 706              	.LVL68:
 180:C:/Users/victim/Documents/GitHub/MrsMajor5.0/UEFI\bootmgfw.c ****         Print(message);
 707              		.loc 1 180 9 view .LVU169
 708 046f 4889E9   		movq	%rbp, %rcx
 709 0472 E8000000 		call	Print
 709      00
 710              	.LVL69:
 711              	.LBE27:
 169:C:/Users/victim/Documents/GitHub/MrsMajor5.0/UEFI\bootmgfw.c ****         col = originalCol + (my_rand() % 50 - 25);
 712              		.loc 1 169 42 discriminator 2 view .LVU170
 713 0477 83C701   		addl	$1, %edi
 714              	.LVL70:
 715              	.L39:
 169:C:/Users/victim/Documents/GitHub/MrsMajor5.0/UEFI\bootmgfw.c ****         col = originalCol + (my_rand() % 50 - 25);
 716              		.loc 1 169 23 discriminator 1 view .LVU171
 717 047a 83FF05   		cmpl	$5, %edi
 718 047d 7F5E     		jg	.L46
 719              	.LBB28:
 170:C:/Users/victim/Documents/GitHub/MrsMajor5.0/UEFI\bootmgfw.c ****         row = originalRow + (my_rand() % 30 - 15);
 720              		.loc 1 170 9 view .LVU172
 170:C:/Users/victim/Documents/GitHub/MrsMajor5.0/UEFI\bootmgfw.c ****         row = originalRow + (my_rand() % 30 - 15);
 721              		.loc 1 170 30 is_stmt 0 view .LVU173
 722 047f E856FCFF 		call	my_rand
 722      FF
 723              	.LVL71:
 170:C:/Users/victim/Documents/GitHub/MrsMajor5.0/UEFI\bootmgfw.c ****         row = originalRow + (my_rand() % 30 - 15);
 724              		.loc 1 170 40 discriminator 1 view .LVU174
 725 0484 89C2     		movl	%eax, %edx
 726 0486 4869D21F 		imulq	$1374389535, %rdx, %rdx
 726      85EB51
 727 048d 48C1EA24 		shrq	$36, %rdx
 728 0491 6BCA32   		imull	$50, %edx, %ecx
 729 0494 29C8     		subl	%ecx, %eax
 170:C:/Users/victim/Documents/GitHub/MrsMajor5.0/UEFI\bootmgfw.c ****         row = originalRow + (my_rand() % 30 - 15);
 730              		.loc 1 170 45 discriminator 1 view .LVU175
 731 0496 8D58E7   		leal	-25(%rax), %ebx
 170:C:/Users/victim/Documents/GitHub/MrsMajor5.0/UEFI\bootmgfw.c ****         row = originalRow + (my_rand() % 30 - 15);
 732              		.loc 1 170 13 discriminator 1 view .LVU176
 733 0499 4C01E3   		addq	%r12, %rbx
 734              	.LVL72:
 171:C:/Users/victim/Documents/GitHub/MrsMajor5.0/UEFI\bootmgfw.c **** 
 735              		.loc 1 171 9 is_stmt 1 view .LVU177
 171:C:/Users/victim/Documents/GitHub/MrsMajor5.0/UEFI\bootmgfw.c **** 
 736              		.loc 1 171 30 is_stmt 0 view .LVU178
 737 049c E839FCFF 		call	my_rand
 737      FF
 738              	.LVL73:
 171:C:/Users/victim/Documents/GitHub/MrsMajor5.0/UEFI\bootmgfw.c **** 
 739              		.loc 1 171 40 discriminator 1 view .LVU179
 740 04a1 89C2     		movl	%eax, %edx
 741 04a3 B9898888 		movl	$2290649225, %ecx
 741      88
 742 04a8 480FAFD1 		imulq	%rcx, %rdx
 743 04ac 48C1EA24 		shrq	$36, %rdx
 744 04b0 6BCA1E   		imull	$30, %edx, %ecx
 745 04b3 29C8     		subl	%ecx, %eax
 171:C:/Users/victim/Documents/GitHub/MrsMajor5.0/UEFI\bootmgfw.c **** 
 746              		.loc 1 171 45 discriminator 1 view .LVU180
 747 04b5 448D70F1 		leal	-15(%rax), %r14d
 171:C:/Users/victim/Documents/GitHub/MrsMajor5.0/UEFI\bootmgfw.c **** 
 748              		.loc 1 171 13 discriminator 1 view .LVU181
 749 04b9 4D01EE   		addq	%r13, %r14
 750              	.LVL74:
 174:C:/Users/victim/Documents/GitHub/MrsMajor5.0/UEFI\bootmgfw.c ****         if (row >= Rows) row = Rows - 1;
 751              		.loc 1 174 9 is_stmt 1 view .LVU182
 174:C:/Users/victim/Documents/GitHub/MrsMajor5.0/UEFI\bootmgfw.c ****         if (row >= Rows) row = Rows - 1;
 752              		.loc 1 174 17 is_stmt 0 view .LVU183
 753 04bc 488B4424 		movq	40(%rsp), %rax
 753      28
 174:C:/Users/victim/Documents/GitHub/MrsMajor5.0/UEFI\bootmgfw.c ****         if (row >= Rows) row = Rows - 1;
 754              		.loc 1 174 12 view .LVU184
 755 04c1 4839C3   		cmpq	%rax, %rbx
 756 04c4 7204     		jb	.L41
 174:C:/Users/victim/Documents/GitHub/MrsMajor5.0/UEFI\bootmgfw.c ****         if (row >= Rows) row = Rows - 1;
 757              		.loc 1 174 29 is_stmt 1 discriminator 1 view .LVU185
 174:C:/Users/victim/Documents/GitHub/MrsMajor5.0/UEFI\bootmgfw.c ****         if (row >= Rows) row = Rows - 1;
 758              		.loc 1 174 33 is_stmt 0 discriminator 1 view .LVU186
 759 04c6 488D58FF 		leaq	-1(%rax), %rbx
 760              	.LVL75:
 761              	.L41:
 175:C:/Users/victim/Documents/GitHub/MrsMajor5.0/UEFI\bootmgfw.c **** 
 762              		.loc 1 175 9 is_stmt 1 view .LVU187
 175:C:/Users/victim/Documents/GitHub/MrsMajor5.0/UEFI\bootmgfw.c **** 
 763              		.loc 1 175 17 is_stmt 0 view .LVU188
 764 04ca 488B4424 		movq	32(%rsp), %rax
 764      20
 175:C:/Users/victim/Documents/GitHub/MrsMajor5.0/UEFI\bootmgfw.c **** 
 765              		.loc 1 175 12 view .LVU189
 766 04cf 4939C6   		cmpq	%rax, %r14
 767 04d2 7281     		jb	.L42
 175:C:/Users/victim/Documents/GitHub/MrsMajor5.0/UEFI\bootmgfw.c **** 
 768              		.loc 1 175 26 is_stmt 1 discriminator 1 view .LVU190
 175:C:/Users/victim/Documents/GitHub/MrsMajor5.0/UEFI\bootmgfw.c **** 
 769              		.loc 1 175 30 is_stmt 0 discriminator 1 view .LVU191
 770 04d4 4C8D70FF 		leaq	-1(%rax), %r14
 771              	.LVL76:
 175:C:/Users/victim/Documents/GitHub/MrsMajor5.0/UEFI\bootmgfw.c **** 
 772              		.loc 1 175 30 discriminator 1 view .LVU192
 773 04d8 E978FFFF 		jmp	.L42
 773      FF
 774              	.LVL77:
 775              	.L46:
 175:C:/Users/victim/Documents/GitHub/MrsMajor5.0/UEFI\bootmgfw.c **** 
 776              		.loc 1 175 30 discriminator 1 view .LVU193
 777              	.LBE28:
 778              	.LBE29:
 181:C:/Users/victim/Documents/GitHub/MrsMajor5.0/UEFI\bootmgfw.c ****     }
 182:C:/Users/victim/Documents/GitHub/MrsMajor5.0/UEFI\bootmgfw.c **** 
 183:C:/Users/victim/Documents/GitHub/MrsMajor5.0/UEFI\bootmgfw.c ****     // Reset to default color and position
 184:C:/Users/victim/Documents/GitHub/MrsMajor5.0/UEFI\bootmgfw.c ****     uefi_call_wrapper(ConOut->SetAttribute, 1, ConOut, EFI_WHITE | EFI_BACKGROUND_BLACK);
 779              		.loc 1 184 5 is_stmt 1 view .LVU194
 780 04dd BA0F0000 		movl	$15, %edx
 780      00
 781 04e2 4889F1   		movq	%rsi, %rcx
 782 04e5 FF5628   		call	*40(%rsi)
 783              	.LVL78:
 185:C:/Users/victim/Documents/GitHub/MrsMajor5.0/UEFI\bootmgfw.c ****     uefi_call_wrapper(ConOut->SetCursorPosition, 2, ConOut, originalCol, originalRow);
 784              		.loc 1 185 5 view .LVU195
 785 04e8 4D89E8   		movq	%r13, %r8
 786 04eb 4C89E2   		movq	%r12, %rdx
 787 04ee 4889F1   		movq	%rsi, %rcx
 788 04f1 FF5638   		call	*56(%rsi)
 789              	.LVL79:
 186:C:/Users/victim/Documents/GitHub/MrsMajor5.0/UEFI\bootmgfw.c ****     Print(message);
 790              		.loc 1 186 5 view .LVU196
 791 04f4 4889E9   		movq	%rbp, %rcx
 792 04f7 E8000000 		call	Print
 792      00
 793 04fc 90       		nop
 794              	.LVL80:
 795              	.L38:
 187:C:/Users/victim/Documents/GitHub/MrsMajor5.0/UEFI\bootmgfw.c **** }
 796              		.loc 1 187 1 is_stmt 0 view .LVU197
 797 04fd 4883C430 		addq	$48, %rsp
 798              		.cfi_def_cfa_offset 64
 799 0501 5B       		popq	%rbx
 800              		.cfi_restore 3
 801              		.cfi_def_cfa_offset 56
 802 0502 5E       		popq	%rsi
 803              		.cfi_restore 4
 804              		.cfi_def_cfa_offset 48
 805              	.LVL81:
 806              		.loc 1 187 1 view .LVU198
 807 0503 5F       		popq	%rdi
 808              		.cfi_restore 5
 809              		.cfi_def_cfa_offset 40
 810 0504 5D       		popq	%rbp
 811              		.cfi_restore 6
 812              		.cfi_def_cfa_offset 32
 813              	.LVL82:
 814              		.loc 1 187 1 view .LVU199
 815 0505 415C     		popq	%r12
 816              		.cfi_restore 12
 817              		.cfi_def_cfa_offset 24
 818              	.LVL83:
 819              		.loc 1 187 1 view .LVU200
 820 0507 415D     		popq	%r13
 821              		.cfi_restore 13
 822              		.cfi_def_cfa_offset 16
 823              	.LVL84:
 824              		.loc 1 187 1 view .LVU201
 825 0509 415E     		popq	%r14
 826              		.cfi_restore 14
 827              		.cfi_def_cfa_offset 8
 828 050b C3       		ret
 829              		.cfi_endproc
 830              	.LFE10:
 831              		.seh_endproc
 832              		.section .rdata,"dr"
 833              		.align 2
 834              	.LC8:
 835 0040 2E000000 		.ascii ".\0\0\0"
 836              		.text
 837              		.globl	pixel_rain
 839              		.seh_proc	pixel_rain
 840              	pixel_rain:
 841              	.LVL85:
 842              	.LFB11:
 188:C:/Users/victim/Documents/GitHub/MrsMajor5.0/UEFI\bootmgfw.c **** 
 189:C:/Users/victim/Documents/GitHub/MrsMajor5.0/UEFI\bootmgfw.c **** // Effect 3: Pixel Rain
 190:C:/Users/victim/Documents/GitHub/MrsMajor5.0/UEFI\bootmgfw.c **** void pixel_rain(EFI_SYSTEM_TABLE* SystemTable, UINTN Columns, UINTN Rows) {
 843              		.loc 1 190 75 is_stmt 1 view -0
 844              		.cfi_startproc
 845              		.loc 1 190 75 is_stmt 0 view .LVU203
 846 050c 4155     		pushq	%r13
 847              		.seh_pushreg	%r13
 848              		.cfi_def_cfa_offset 16
 849              		.cfi_offset 13, -16
 850 050e 4154     		pushq	%r12
 851              		.seh_pushreg	%r12
 852              		.cfi_def_cfa_offset 24
 853              		.cfi_offset 12, -24
 854 0510 55       		pushq	%rbp
 855              		.seh_pushreg	%rbp
 856              		.cfi_def_cfa_offset 32
 857              		.cfi_offset 6, -32
 858 0511 57       		pushq	%rdi
 859              		.seh_pushreg	%rdi
 860              		.cfi_def_cfa_offset 40
 861              		.cfi_offset 5, -40
 862 0512 56       		pushq	%rsi
 863              		.seh_pushreg	%rsi
 864              		.cfi_def_cfa_offset 48
 865              		.cfi_offset 4, -48
 866 0513 53       		pushq	%rbx
 867              		.seh_pushreg	%rbx
 868              		.cfi_def_cfa_offset 56
 869              		.cfi_offset 3, -56
 870 0514 4883EC28 		subq	$40, %rsp
 871              		.seh_stackalloc	40
 872              		.cfi_def_cfa_offset 96
 873              		.seh_endprologue
 874 0518 4889CD   		movq	%rcx, %rbp
 875 051b 4889D7   		movq	%rdx, %rdi
 876 051e 4C89C6   		movq	%r8, %rsi
 191:C:/Users/victim/Documents/GitHub/MrsMajor5.0/UEFI\bootmgfw.c ****     for (UINTN i = 0; i < 100; i++) {
 877              		.loc 1 191 5 is_stmt 1 view .LVU204
 878              	.LBB30:
 879              		.loc 1 191 10 view .LVU205
 880              	.LVL86:
 881              		.loc 1 191 16 is_stmt 0 view .LVU206
 882 0521 BB000000 		movl	$0, %ebx
 882      00
 883              		.loc 1 191 5 view .LVU207
 884 0526 EB60     		jmp	.L48
 885              	.LVL87:
 886              	.L49:
 887              	.LBB31:
 192:C:/Users/victim/Documents/GitHub/MrsMajor5.0/UEFI\bootmgfw.c ****         UINTN col = my_rand() % Columns;
 888              		.loc 1 192 9 is_stmt 1 view .LVU208
 889              		.loc 1 192 21 is_stmt 0 view .LVU209
 890 0528 E8ADFBFF 		call	my_rand
 890      FF
 891              	.LVL88:
 892              		.loc 1 192 21 discriminator 1 view .LVU210
 893 052d 89C0     		movl	%eax, %eax
 894              		.loc 1 192 15 discriminator 1 view .LVU211
 895 052f BA000000 		movl	$0, %edx
 895      00
 896 0534 48F7F7   		divq	%rdi
 897 0537 4989D4   		movq	%rdx, %r12
 898              	.LVL89:
 193:C:/Users/victim/Documents/GitHub/MrsMajor5.0/UEFI\bootmgfw.c ****         UINTN row = my_rand() % Rows;
 899              		.loc 1 193 9 is_stmt 1 view .LVU212
 900              		.loc 1 193 21 is_stmt 0 view .LVU213
 901 053a E89BFBFF 		call	my_rand
 901      FF
 902              	.LVL90:
 903              		.loc 1 193 21 discriminator 1 view .LVU214
 904 053f 89C0     		movl	%eax, %eax
 905              		.loc 1 193 15 discriminator 1 view .LVU215
 906 0541 BA000000 		movl	$0, %edx
 906      00
 907 0546 48F7F6   		divq	%rsi
 908 0549 4989D5   		movq	%rdx, %r13
 909              	.LVL91:
 194:C:/Users/victim/Documents/GitHub/MrsMajor5.0/UEFI\bootmgfw.c ****         UINTN color = random_color();
 910              		.loc 1 194 9 is_stmt 1 view .LVU216
 911              		.loc 1 194 23 is_stmt 0 view .LVU217
 912 054c E8ECFBFF 		call	random_color
 912      FF
 913              	.LVL92:
 914              		.loc 1 194 23 view .LVU218
 915 0551 4889C2   		movq	%rax, %rdx
 916              	.LVL93:
 195:C:/Users/victim/Documents/GitHub/MrsMajor5.0/UEFI\bootmgfw.c ****         uefi_call_wrapper(SystemTable->ConOut->SetAttribute, 1, SystemTable->ConOut, color);
 917              		.loc 1 195 9 is_stmt 1 view .LVU219
 918 0554 488B4540 		movq	64(%rbp), %rax
 919              	.LVL94:
 920              		.loc 1 195 9 is_stmt 0 view .LVU220
 921 0558 4889C1   		movq	%rax, %rcx
 922 055b FF5028   		call	*40(%rax)
 923              	.LVL95:
 196:C:/Users/victim/Documents/GitHub/MrsMajor5.0/UEFI\bootmgfw.c ****         uefi_call_wrapper(SystemTable->ConOut->SetCursorPosition, 1, SystemTable->ConOut, col, row)
 924              		.loc 1 196 9 is_stmt 1 view .LVU221
 925 055e 488B4540 		movq	64(%rbp), %rax
 926 0562 4D89E8   		movq	%r13, %r8
 927 0565 4C89E2   		movq	%r12, %rdx
 928 0568 4889C1   		movq	%rax, %rcx
 929 056b FF5038   		call	*56(%rax)
 930              	.LVL96:
 197:C:/Users/victim/Documents/GitHub/MrsMajor5.0/UEFI\bootmgfw.c ****         Print(L".");
 931              		.loc 1 197 9 view .LVU222
 932 056e 488D0D40 		leaq	.LC8(%rip), %rcx
 932      000000
 933 0575 E8000000 		call	Print
 933      00
 934              	.LVL97:
 198:C:/Users/victim/Documents/GitHub/MrsMajor5.0/UEFI\bootmgfw.c ****         delay(500000);
 935              		.loc 1 198 9 view .LVU223
 936 057a B920A107 		movl	$500000, %ecx
 936      00
 937 057f E871FBFF 		call	delay
 937      FF
 938              	.LVL98:
 939              	.LBE31:
 191:C:/Users/victim/Documents/GitHub/MrsMajor5.0/UEFI\bootmgfw.c ****         UINTN col = my_rand() % Columns;
 940              		.loc 1 191 33 discriminator 3 view .LVU224
 941 0584 4883C301 		addq	$1, %rbx
 942              	.LVL99:
 943              	.L48:
 191:C:/Users/victim/Documents/GitHub/MrsMajor5.0/UEFI\bootmgfw.c ****         UINTN col = my_rand() % Columns;
 944              		.loc 1 191 25 discriminator 1 view .LVU225
 945 0588 4883FB63 		cmpq	$99, %rbx
 946 058c 769A     		jbe	.L49
 947              	.LBE30:
 199:C:/Users/victim/Documents/GitHub/MrsMajor5.0/UEFI\bootmgfw.c ****     }
 200:C:/Users/victim/Documents/GitHub/MrsMajor5.0/UEFI\bootmgfw.c **** }
 948              		.loc 1 200 1 is_stmt 0 view .LVU226
 949 058e 4883C428 		addq	$40, %rsp
 950              		.cfi_def_cfa_offset 56
 951 0592 5B       		popq	%rbx
 952              		.cfi_restore 3
 953              		.cfi_def_cfa_offset 48
 954              	.LVL100:
 955              		.loc 1 200 1 view .LVU227
 956 0593 5E       		popq	%rsi
 957              		.cfi_restore 4
 958              		.cfi_def_cfa_offset 40
 959              	.LVL101:
 960              		.loc 1 200 1 view .LVU228
 961 0594 5F       		popq	%rdi
 962              		.cfi_restore 5
 963              		.cfi_def_cfa_offset 32
 964              	.LVL102:
 965              		.loc 1 200 1 view .LVU229
 966 0595 5D       		popq	%rbp
 967              		.cfi_restore 6
 968              		.cfi_def_cfa_offset 24
 969              	.LVL103:
 970              		.loc 1 200 1 view .LVU230
 971 0596 415C     		popq	%r12
 972              		.cfi_restore 12
 973              		.cfi_def_cfa_offset 16
 974 0598 415D     		popq	%r13
 975              		.cfi_restore 13
 976              		.cfi_def_cfa_offset 8
 977 059a C3       		ret
 978              		.cfi_endproc
 979              	.LFE11:
 980              		.seh_endproc
 981              		.globl	wave_animation
 983              		.seh_proc	wave_animation
 984              	wave_animation:
 985              	.LVL104:
 986              	.LFB12:
 201:C:/Users/victim/Documents/GitHub/MrsMajor5.0/UEFI\bootmgfw.c **** 
 202:C:/Users/victim/Documents/GitHub/MrsMajor5.0/UEFI\bootmgfw.c **** // Effect 4: Wave Animation
 203:C:/Users/victim/Documents/GitHub/MrsMajor5.0/UEFI\bootmgfw.c **** void wave_animation(EFI_SYSTEM_TABLE* SystemTable, CHAR16* message, UINTN originalCol, UINTN origin
 987              		.loc 1 203 124 is_stmt 1 view -0
 988              		.cfi_startproc
 989              		.loc 1 203 124 is_stmt 0 view .LVU232
 990 059b 4157     		pushq	%r15
 991              		.seh_pushreg	%r15
 992              		.cfi_def_cfa_offset 16
 993              		.cfi_offset 15, -16
 994 059d 4156     		pushq	%r14
 995              		.seh_pushreg	%r14
 996              		.cfi_def_cfa_offset 24
 997              		.cfi_offset 14, -24
 998 059f 4155     		pushq	%r13
 999              		.seh_pushreg	%r13
 1000              		.cfi_def_cfa_offset 32
 1001              		.cfi_offset 13, -32
 1002 05a1 4154     		pushq	%r12
 1003              		.seh_pushreg	%r12
 1004              		.cfi_def_cfa_offset 40
 1005              		.cfi_offset 12, -40
 1006 05a3 55       		pushq	%rbp
 1007              		.seh_pushreg	%rbp
 1008              		.cfi_def_cfa_offset 48
 1009              		.cfi_offset 6, -48
 1010 05a4 57       		pushq	%rdi
 1011              		.seh_pushreg	%rdi
 1012              		.cfi_def_cfa_offset 56
 1013              		.cfi_offset 5, -56
 1014 05a5 56       		pushq	%rsi
 1015              		.seh_pushreg	%rsi
 1016              		.cfi_def_cfa_offset 64
 1017              		.cfi_offset 4, -64
 1018 05a6 53       		pushq	%rbx
 1019              		.seh_pushreg	%rbx
 1020              		.cfi_def_cfa_offset 72
 1021              		.cfi_offset 3, -72
 1022 05a7 4883EC28 		subq	$40, %rsp
 1023              		.seh_stackalloc	40
 1024              		.cfi_def_cfa_offset 112
 1025              		.seh_endprologue
 1026 05ab 4889CD   		movq	%rcx, %rbp
 1027 05ae 4889D7   		movq	%rdx, %rdi
 1028 05b1 4D89C7   		movq	%r8, %r15
 1029 05b4 4D89CE   		movq	%r9, %r14
 204:C:/Users/victim/Documents/GitHub/MrsMajor5.0/UEFI\bootmgfw.c ****     for (UINTN t = 0; t < 100; t++) {
 1030              		.loc 1 204 5 is_stmt 1 view .LVU233
 1031              	.LBB32:
 1032              		.loc 1 204 10 view .LVU234
 1033              	.LVL105:
 1034              		.loc 1 204 16 is_stmt 0 view .LVU235
 1035 05b7 41BD0000 		movl	$0, %r13d
 1035      0000
 1036              		.loc 1 204 5 view .LVU236
 1037 05bd E98A0000 		jmp	.L51
 1037      00
 1038              	.LVL106:
 1039              	.L52:
 1040              	.LBB33:
 1041              	.LBB34:
 205:C:/Users/victim/Documents/GitHub/MrsMajor5.0/UEFI\bootmgfw.c ****         for (UINTN i = 0; i < StrLen(message); i++) {
 206:C:/Users/victim/Documents/GitHub/MrsMajor5.0/UEFI\bootmgfw.c ****             UINTN col = originalCol + i;
 1042              		.loc 1 206 13 is_stmt 1 view .LVU237
 1043              		.loc 1 206 19 is_stmt 0 view .LVU238
 1044 05c2 4E8D243B 		leaq	(%rbx,%r15), %r12
 1045              	.LVL107:
 207:C:/Users/victim/Documents/GitHub/MrsMajor5.0/UEFI\bootmgfw.c ****             UINTN row = originalRow + (amplitude * Sin((t + i) % 360));
 1046              		.loc 1 207 13 is_stmt 1 view .LVU239
 1047              		.loc 1 207 59 is_stmt 0 view .LVU240
 1048 05c6 498D4C1D 		leaq	0(%r13,%rbx), %rcx
 1048      00
 1049              		.loc 1 207 52 view .LVU241
 1050 05cb 48BA832D 		movabsq	$3279421168659475843, %rdx
 1050      D8822DD8 
 1050      822D
 1051 05d5 4889C8   		movq	%rcx, %rax
 1052 05d8 48F7E2   		mulq	%rdx
 1053 05db 48C1EA06 		shrq	$6, %rdx
 1054 05df 4869D268 		imulq	$360, %rdx, %rdx
 1054      010000
 1055 05e6 4829D1   		subq	%rdx, %rcx
 1056 05e9 E827FAFF 		call	Sin
 1056      FF
 1057              	.LVL108:
 1058              		.loc 1 207 50 discriminator 1 view .LVU242
 1059 05ee 480FAF84 		imulq	144(%rsp), %rax
 1059      24900000 
 1059      00
 1060              		.loc 1 207 19 discriminator 1 view .LVU243
 1061 05f7 4A8D3430 		leaq	(%rax,%r14), %rsi
 1062              	.LVL109:
 208:C:/Users/victim/Documents/GitHub/MrsMajor5.0/UEFI\bootmgfw.c ****             UINTN color = random_color();
 1063              		.loc 1 208 13 is_stmt 1 view .LVU244
 1064              		.loc 1 208 27 is_stmt 0 view .LVU245
 1065 05fb E83DFBFF 		call	random_color
 1065      FF
 1066              	.LVL110:
 1067 0600 4889C2   		movq	%rax, %rdx
 1068              	.LVL111:
 209:C:/Users/victim/Documents/GitHub/MrsMajor5.0/UEFI\bootmgfw.c ****             uefi_call_wrapper(SystemTable->ConOut->SetAttribute, 1, SystemTable->ConOut, color);
 1069              		.loc 1 209 13 is_stmt 1 view .LVU246
 1070 0603 488B4540 		movq	64(%rbp), %rax
 1071              	.LVL112:
 1072              		.loc 1 209 13 is_stmt 0 view .LVU247
 1073 0607 4889C1   		movq	%rax, %rcx
 1074 060a FF5028   		call	*40(%rax)
 1075              	.LVL113:
 210:C:/Users/victim/Documents/GitHub/MrsMajor5.0/UEFI\bootmgfw.c ****             uefi_call_wrapper(SystemTable->ConOut->SetCursorPosition, 1, SystemTable->ConOut, col, 
 1076              		.loc 1 210 13 is_stmt 1 view .LVU248
 1077 060d 488B4540 		movq	64(%rbp), %rax
 1078 0611 4989F0   		movq	%rsi, %r8
 1079 0614 4C89E2   		movq	%r12, %rdx
 1080 0617 4889C1   		movq	%rax, %rcx
 1081 061a FF5038   		call	*56(%rax)
 1082              	.LVL114:
 211:C:/Users/victim/Documents/GitHub/MrsMajor5.0/UEFI\bootmgfw.c ****             Print(L"%c", message[i]);
 1083              		.loc 1 211 13 view .LVU249
 1084 061d 0FB7145F 		movzwl	(%rdi,%rbx,2), %edx
 1085 0621 488D0D3A 		leaq	.LC7(%rip), %rcx
 1085      000000
 1086 0628 E8000000 		call	Print
 1086      00
 1087              	.LVL115:
 1088              	.LBE34:
 205:C:/Users/victim/Documents/GitHub/MrsMajor5.0/UEFI\bootmgfw.c ****             UINTN col = originalCol + i;
 1089              		.loc 1 205 49 discriminator 3 view .LVU250
 1090 062d 4883C301 		addq	$1, %rbx
 1091              	.LVL116:
 1092              	.L53:
 205:C:/Users/victim/Documents/GitHub/MrsMajor5.0/UEFI\bootmgfw.c ****             UINTN col = originalCol + i;
 1093              		.loc 1 205 29 discriminator 1 view .LVU251
 205:C:/Users/victim/Documents/GitHub/MrsMajor5.0/UEFI\bootmgfw.c ****             UINTN col = originalCol + i;
 1094              		.loc 1 205 31 is_stmt 0 discriminator 1 view .LVU252
 1095 0631 4889F9   		movq	%rdi, %rcx
 1096 0634 E8000000 		call	StrLen
 1096      00
 1097              	.LVL117:
 205:C:/Users/victim/Documents/GitHub/MrsMajor5.0/UEFI\bootmgfw.c ****             UINTN col = originalCol + i;
 1098              		.loc 1 205 29 discriminator 1 view .LVU253
 1099 0639 4839C3   		cmpq	%rax, %rbx
 1100 063c 7284     		jb	.L52
 1101              	.LBE33:
 212:C:/Users/victim/Documents/GitHub/MrsMajor5.0/UEFI\bootmgfw.c ****         }
 213:C:/Users/victim/Documents/GitHub/MrsMajor5.0/UEFI\bootmgfw.c ****         delay(1000000);
 1102              		.loc 1 213 9 is_stmt 1 view .LVU254
 1103 063e B940420F 		movl	$1000000, %ecx
 1103      00
 1104 0643 E8ADFAFF 		call	delay
 1104      FF
 1105              	.LVL118:
 204:C:/Users/victim/Documents/GitHub/MrsMajor5.0/UEFI\bootmgfw.c ****         for (UINTN i = 0; i < StrLen(message); i++) {
 1106              		.loc 1 204 33 discriminator 2 view .LVU255
 1107 0648 4983C501 		addq	$1, %r13
 1108              	.LVL119:
 1109              	.L51:
 204:C:/Users/victim/Documents/GitHub/MrsMajor5.0/UEFI\bootmgfw.c ****         for (UINTN i = 0; i < StrLen(message); i++) {
 1110              		.loc 1 204 25 discriminator 1 view .LVU256
 1111 064c 4983FD63 		cmpq	$99, %r13
 1112 0650 7707     		ja	.L55
 1113              	.LBB35:
 205:C:/Users/victim/Documents/GitHub/MrsMajor5.0/UEFI\bootmgfw.c ****             UINTN col = originalCol + i;
 1114              		.loc 1 205 20 is_stmt 0 view .LVU257
 1115 0652 BB000000 		movl	$0, %ebx
 1115      00
 1116 0657 EBD8     		jmp	.L53
 1117              	.L55:
 1118              	.LBE35:
 1119              	.LBE32:
 214:C:/Users/victim/Documents/GitHub/MrsMajor5.0/UEFI\bootmgfw.c ****     }
 215:C:/Users/victim/Documents/GitHub/MrsMajor5.0/UEFI\bootmgfw.c **** }
 1120              		.loc 1 215 1 view .LVU258
 1121 0659 4883C428 		addq	$40, %rsp
 1122              		.cfi_def_cfa_offset 72
 1123 065d 5B       		popq	%rbx
 1124              		.cfi_restore 3
 1125              		.cfi_def_cfa_offset 64
 1126 065e 5E       		popq	%rsi
 1127              		.cfi_restore 4
 1128              		.cfi_def_cfa_offset 56
 1129 065f 5F       		popq	%rdi
 1130              		.cfi_restore 5
 1131              		.cfi_def_cfa_offset 48
 1132              	.LVL120:
 1133              		.loc 1 215 1 view .LVU259
 1134 0660 5D       		popq	%rbp
 1135              		.cfi_restore 6
 1136              		.cfi_def_cfa_offset 40
 1137              	.LVL121:
 1138              		.loc 1 215 1 view .LVU260
 1139 0661 415C     		popq	%r12
 1140              		.cfi_restore 12
 1141              		.cfi_def_cfa_offset 32
 1142 0663 415D     		popq	%r13
 1143              		.cfi_restore 13
 1144              		.cfi_def_cfa_offset 24
 1145              	.LVL122:
 1146              		.loc 1 215 1 view .LVU261
 1147 0665 415E     		popq	%r14
 1148              		.cfi_restore 14
 1149              		.cfi_def_cfa_offset 16
 1150              	.LVL123:
 1151              		.loc 1 215 1 view .LVU262
 1152 0667 415F     		popq	%r15
 1153              		.cfi_restore 15
 1154              		.cfi_def_cfa_offset 8
 1155              	.LVL124:
 1156              		.loc 1 215 1 view .LVU263
 1157 0669 C3       		ret
 1158              		.cfi_endproc
 1159              	.LFE12:
 1160              		.seh_endproc
 1161              		.globl	text_explosion
 1163              		.seh_proc	text_explosion
 1164              	text_explosion:
 1165              	.LVL125:
 1166              	.LFB13:
 216:C:/Users/victim/Documents/GitHub/MrsMajor5.0/UEFI\bootmgfw.c **** 
 217:C:/Users/victim/Documents/GitHub/MrsMajor5.0/UEFI\bootmgfw.c **** // Effect 5: Text Explosion
 218:C:/Users/victim/Documents/GitHub/MrsMajor5.0/UEFI\bootmgfw.c **** void text_explosion(EFI_SYSTEM_TABLE* SystemTable, CHAR16* message, UINTN originalCol, UINTN origin
 1167              		.loc 1 218 107 is_stmt 1 view -0
 1168              		.cfi_startproc
 1169              		.loc 1 218 107 is_stmt 0 view .LVU265
 1170 066a 4156     		pushq	%r14
 1171              		.seh_pushreg	%r14
 1172              		.cfi_def_cfa_offset 16
 1173              		.cfi_offset 14, -16
 1174 066c 4155     		pushq	%r13
 1175              		.seh_pushreg	%r13
 1176              		.cfi_def_cfa_offset 24
 1177              		.cfi_offset 13, -24
 1178 066e 4154     		pushq	%r12
 1179              		.seh_pushreg	%r12
 1180              		.cfi_def_cfa_offset 32
 1181              		.cfi_offset 12, -32
 1182 0670 55       		pushq	%rbp
 1183              		.seh_pushreg	%rbp
 1184              		.cfi_def_cfa_offset 40
 1185              		.cfi_offset 6, -40
 1186 0671 57       		pushq	%rdi
 1187              		.seh_pushreg	%rdi
 1188              		.cfi_def_cfa_offset 48
 1189              		.cfi_offset 5, -48
 1190 0672 56       		pushq	%rsi
 1191              		.seh_pushreg	%rsi
 1192              		.cfi_def_cfa_offset 56
 1193              		.cfi_offset 4, -56
 1194 0673 53       		pushq	%rbx
 1195              		.seh_pushreg	%rbx
 1196              		.cfi_def_cfa_offset 64
 1197              		.cfi_offset 3, -64
 1198 0674 4883EC20 		subq	$32, %rsp
 1199              		.seh_stackalloc	32
 1200              		.cfi_def_cfa_offset 96
 1201              		.seh_endprologue
 1202 0678 4889CF   		movq	%rcx, %rdi
 1203 067b 4989D5   		movq	%rdx, %r13
 1204 067e 4D89C4   		movq	%r8, %r12
 1205 0681 4C89CD   		movq	%r9, %rbp
 219:C:/Users/victim/Documents/GitHub/MrsMajor5.0/UEFI\bootmgfw.c ****     for (UINTN i = 0; i < 50; i++) {
 1206              		.loc 1 219 5 is_stmt 1 view .LVU266
 1207              	.LBB36:
 1208              		.loc 1 219 10 view .LVU267
 1209              	.LVL126:
 1210              		.loc 1 219 16 is_stmt 0 view .LVU268
 1211 0684 BE000000 		movl	$0, %esi
 1211      00
 1212              		.loc 1 219 5 view .LVU269
 1213 0689 EB75     		jmp	.L57
 1214              	.LVL127:
 1215              	.L58:
 1216              	.LBB37:
 220:C:/Users/victim/Documents/GitHub/MrsMajor5.0/UEFI\bootmgfw.c ****         UINTN col = originalCol + (my_rand() % 50 - 25);
 1217              		.loc 1 220 9 is_stmt 1 view .LVU270
 1218              		.loc 1 220 36 is_stmt 0 view .LVU271
 1219 068b E84AFAFF 		call	my_rand
 1219      FF
 1220              	.LVL128:
 1221              		.loc 1 220 46 discriminator 1 view .LVU272
 1222 0690 89C2     		movl	%eax, %edx
 1223 0692 4869D21F 		imulq	$1374389535, %rdx, %rdx
 1223      85EB51
 1224 0699 48C1EA24 		shrq	$36, %rdx
 1225 069d 6BCA32   		imull	$50, %edx, %ecx
 1226 06a0 29C8     		subl	%ecx, %eax
 1227              		.loc 1 220 51 discriminator 1 view .LVU273
 1228 06a2 8D58E7   		leal	-25(%rax), %ebx
 1229              		.loc 1 220 15 discriminator 1 view .LVU274
 1230 06a5 4C01E3   		addq	%r12, %rbx
 1231              	.LVL129:
 221:C:/Users/victim/Documents/GitHub/MrsMajor5.0/UEFI\bootmgfw.c ****         UINTN row = originalRow + (my_rand() % 30 - 15);
 1232              		.loc 1 221 9 is_stmt 1 view .LVU275
 1233              		.loc 1 221 36 is_stmt 0 view .LVU276
 1234 06a8 E82DFAFF 		call	my_rand
 1234      FF
 1235              	.LVL130:
 1236              		.loc 1 221 46 discriminator 1 view .LVU277
 1237 06ad 89C2     		movl	%eax, %edx
 1238 06af B9898888 		movl	$2290649225, %ecx
 1238      88
 1239 06b4 480FAFD1 		imulq	%rcx, %rdx
 1240 06b8 48C1EA24 		shrq	$36, %rdx
 1241 06bc 6BCA1E   		imull	$30, %edx, %ecx
 1242 06bf 29C8     		subl	%ecx, %eax
 1243              		.loc 1 221 51 discriminator 1 view .LVU278
 1244 06c1 448D70F1 		leal	-15(%rax), %r14d
 1245              		.loc 1 221 15 discriminator 1 view .LVU279
 1246 06c5 4901EE   		addq	%rbp, %r14
 1247              	.LVL131:
 222:C:/Users/victim/Documents/GitHub/MrsMajor5.0/UEFI\bootmgfw.c ****         UINTN color = random_color();
 1248              		.loc 1 222 9 is_stmt 1 view .LVU280
 1249              		.loc 1 222 23 is_stmt 0 view .LVU281
 1250 06c8 E870FAFF 		call	random_color
 1250      FF
 1251              	.LVL132:
 1252 06cd 4889C2   		movq	%rax, %rdx
 1253              	.LVL133:
 223:C:/Users/victim/Documents/GitHub/MrsMajor5.0/UEFI\bootmgfw.c ****         uefi_call_wrapper(SystemTable->ConOut->SetAttribute, 1, SystemTable->ConOut, color);
 1254              		.loc 1 223 9 is_stmt 1 view .LVU282
 1255 06d0 488B4740 		movq	64(%rdi), %rax
 1256              	.LVL134:
 1257              		.loc 1 223 9 is_stmt 0 view .LVU283
 1258 06d4 4889C1   		movq	%rax, %rcx
 1259 06d7 FF5028   		call	*40(%rax)
 1260              	.LVL135:
 224:C:/Users/victim/Documents/GitHub/MrsMajor5.0/UEFI\bootmgfw.c ****         uefi_call_wrapper(SystemTable->ConOut->SetCursorPosition, 1, SystemTable->ConOut, col, row)
 1261              		.loc 1 224 9 is_stmt 1 view .LVU284
 1262 06da 488B4740 		movq	64(%rdi), %rax
 1263 06de 4D89F0   		movq	%r14, %r8
 1264 06e1 4889DA   		movq	%rbx, %rdx
 1265 06e4 4889C1   		movq	%rax, %rcx
 1266 06e7 FF5038   		call	*56(%rax)
 1267              	.LVL136:
 225:C:/Users/victim/Documents/GitHub/MrsMajor5.0/UEFI\bootmgfw.c ****         Print(message);
 1268              		.loc 1 225 9 view .LVU285
 1269 06ea 4C89E9   		movq	%r13, %rcx
 1270 06ed E8000000 		call	Print
 1270      00
 1271              	.LVL137:
 226:C:/Users/victim/Documents/GitHub/MrsMajor5.0/UEFI\bootmgfw.c ****         delay(2000000);
 1272              		.loc 1 226 9 view .LVU286
 1273 06f2 B980841E 		movl	$2000000, %ecx
 1273      00
 1274 06f7 E8F9F9FF 		call	delay
 1274      FF
 1275              	.LVL138:
 1276              	.LBE37:
 219:C:/Users/victim/Documents/GitHub/MrsMajor5.0/UEFI\bootmgfw.c ****         UINTN col = originalCol + (my_rand() % 50 - 25);
 1277              		.loc 1 219 32 discriminator 3 view .LVU287
 1278 06fc 4883C601 		addq	$1, %rsi
 1279              	.LVL139:
 1280              	.L57:
 219:C:/Users/victim/Documents/GitHub/MrsMajor5.0/UEFI\bootmgfw.c ****         UINTN col = originalCol + (my_rand() % 50 - 25);
 1281              		.loc 1 219 25 discriminator 1 view .LVU288
 1282 0700 4883FE31 		cmpq	$49, %rsi
 1283 0704 7685     		jbe	.L58
 1284              	.LBE36:
 227:C:/Users/victim/Documents/GitHub/MrsMajor5.0/UEFI\bootmgfw.c ****     }
 228:C:/Users/victim/Documents/GitHub/MrsMajor5.0/UEFI\bootmgfw.c **** }
 1285              		.loc 1 228 1 is_stmt 0 view .LVU289
 1286 0706 4883C420 		addq	$32, %rsp
 1287              		.cfi_def_cfa_offset 64
 1288 070a 5B       		popq	%rbx
 1289              		.cfi_restore 3
 1290              		.cfi_def_cfa_offset 56
 1291 070b 5E       		popq	%rsi
 1292              		.cfi_restore 4
 1293              		.cfi_def_cfa_offset 48
 1294              	.LVL140:
 1295              		.loc 1 228 1 view .LVU290
 1296 070c 5F       		popq	%rdi
 1297              		.cfi_restore 5
 1298              		.cfi_def_cfa_offset 40
 1299              	.LVL141:
 1300              		.loc 1 228 1 view .LVU291
 1301 070d 5D       		popq	%rbp
 1302              		.cfi_restore 6
 1303              		.cfi_def_cfa_offset 32
 1304              	.LVL142:
 1305              		.loc 1 228 1 view .LVU292
 1306 070e 415C     		popq	%r12
 1307              		.cfi_restore 12
 1308              		.cfi_def_cfa_offset 24
 1309              	.LVL143:
 1310              		.loc 1 228 1 view .LVU293
 1311 0710 415D     		popq	%r13
 1312              		.cfi_restore 13
 1313              		.cfi_def_cfa_offset 16
 1314              	.LVL144:
 1315              		.loc 1 228 1 view .LVU294
 1316 0712 415E     		popq	%r14
 1317              		.cfi_restore 14
 1318              		.cfi_def_cfa_offset 8
 1319 0714 C3       		ret
 1320              		.cfi_endproc
 1321              	.LFE13:
 1322              		.seh_endproc
 1323              		.globl	fading_text
 1325              		.seh_proc	fading_text
 1326              	fading_text:
 1327              	.LVL145:
 1328              	.LFB14:
 229:C:/Users/victim/Documents/GitHub/MrsMajor5.0/UEFI\bootmgfw.c **** 
 230:C:/Users/victim/Documents/GitHub/MrsMajor5.0/UEFI\bootmgfw.c **** // Effect 6: Fading Text
 231:C:/Users/victim/Documents/GitHub/MrsMajor5.0/UEFI\bootmgfw.c **** void fading_text(EFI_SYSTEM_TABLE* SystemTable, CHAR16* message, UINTN originalCol, UINTN originalR
 1329              		.loc 1 231 104 is_stmt 1 view -0
 1330              		.cfi_startproc
 1331              		.loc 1 231 104 is_stmt 0 view .LVU296
 1332 0715 4154     		pushq	%r12
 1333              		.seh_pushreg	%r12
 1334              		.cfi_def_cfa_offset 16
 1335              		.cfi_offset 12, -16
 1336 0717 55       		pushq	%rbp
 1337              		.seh_pushreg	%rbp
 1338              		.cfi_def_cfa_offset 24
 1339              		.cfi_offset 6, -24
 1340 0718 57       		pushq	%rdi
 1341              		.seh_pushreg	%rdi
 1342              		.cfi_def_cfa_offset 32
 1343              		.cfi_offset 5, -32
 1344 0719 56       		pushq	%rsi
 1345              		.seh_pushreg	%rsi
 1346              		.cfi_def_cfa_offset 40
 1347              		.cfi_offset 4, -40
 1348 071a 53       		pushq	%rbx
 1349              		.seh_pushreg	%rbx
 1350              		.cfi_def_cfa_offset 48
 1351              		.cfi_offset 3, -48
 1352 071b 4883EC20 		subq	$32, %rsp
 1353              		.seh_stackalloc	32
 1354              		.cfi_def_cfa_offset 80
 1355              		.seh_endprologue
 1356 071f 4889CB   		movq	%rcx, %rbx
 1357 0722 4989D4   		movq	%rdx, %r12
 1358 0725 4C89C5   		movq	%r8, %rbp
 1359 0728 4C89CF   		movq	%r9, %rdi
 232:C:/Users/victim/Documents/GitHub/MrsMajor5.0/UEFI\bootmgfw.c ****     for (UINTN i = 0; i < 20; i++) {
 1360              		.loc 1 232 5 is_stmt 1 view .LVU297
 1361              	.LBB38:
 1362              		.loc 1 232 10 view .LVU298
 1363              	.LVL146:
 1364              		.loc 1 232 16 is_stmt 0 view .LVU299
 1365 072b BE000000 		movl	$0, %esi
 1365      00
 1366              		.loc 1 232 5 view .LVU300
 1367 0730 EB42     		jmp	.L60
 1368              	.LVL147:
 1369              	.L61:
 1370              	.LBB39:
 233:C:/Users/victim/Documents/GitHub/MrsMajor5.0/UEFI\bootmgfw.c ****         UINTN color = random_color();
 1371              		.loc 1 233 9 is_stmt 1 view .LVU301
 1372              		.loc 1 233 23 is_stmt 0 view .LVU302
 1373 0732 E806FAFF 		call	random_color
 1373      FF
 1374              	.LVL148:
 1375 0737 4889C2   		movq	%rax, %rdx
 1376              	.LVL149:
 234:C:/Users/victim/Documents/GitHub/MrsMajor5.0/UEFI\bootmgfw.c ****         uefi_call_wrapper(SystemTable->ConOut->SetAttribute, 1, SystemTable->ConOut, color);
 1377              		.loc 1 234 9 is_stmt 1 view .LVU303
 1378 073a 488B4340 		movq	64(%rbx), %rax
 1379              	.LVL150:
 1380              		.loc 1 234 9 is_stmt 0 view .LVU304
 1381 073e 4889C1   		movq	%rax, %rcx
 1382 0741 FF5028   		call	*40(%rax)
 1383              	.LVL151:
 235:C:/Users/victim/Documents/GitHub/MrsMajor5.0/UEFI\bootmgfw.c ****         uefi_call_wrapper(SystemTable->ConOut->SetCursorPosition, 1, SystemTable->ConOut, originalC
 1384              		.loc 1 235 9 is_stmt 1 view .LVU305
 1385 0744 488B4340 		movq	64(%rbx), %rax
 1386 0748 4989F8   		movq	%rdi, %r8
 1387 074b 4889EA   		movq	%rbp, %rdx
 1388 074e 4889C1   		movq	%rax, %rcx
 1389 0751 FF5038   		call	*56(%rax)
 1390              	.LVL152:
 236:C:/Users/victim/Documents/GitHub/MrsMajor5.0/UEFI\bootmgfw.c ****         Print(message);
 1391              		.loc 1 236 9 view .LVU306
 1392 0754 4C89E1   		movq	%r12, %rcx
 1393 0757 E8000000 		call	Print
 1393      00
 1394              	.LVL153:
 237:C:/Users/victim/Documents/GitHub/MrsMajor5.0/UEFI\bootmgfw.c ****         delay(2000000);
 1395              		.loc 1 237 9 view .LVU307
 1396 075c B980841E 		movl	$2000000, %ecx
 1396      00
 1397 0761 E88FF9FF 		call	delay
 1397      FF
 1398              	.LVL154:
 238:C:/Users/victim/Documents/GitHub/MrsMajor5.0/UEFI\bootmgfw.c ****         uefi_call_wrapper(SystemTable->ConOut->ClearScreen, 1, SystemTable->ConOut);
 1399              		.loc 1 238 9 view .LVU308
 1400 0766 488B4340 		movq	64(%rbx), %rax
 1401 076a 4889C1   		movq	%rax, %rcx
 1402 076d FF5030   		call	*48(%rax)
 1403              	.LVL155:
 1404              	.LBE39:
 232:C:/Users/victim/Documents/GitHub/MrsMajor5.0/UEFI\bootmgfw.c ****         UINTN color = random_color();
 1405              		.loc 1 232 32 discriminator 3 view .LVU309
 1406 0770 4883C601 		addq	$1, %rsi
 1407              	.LVL156:
 1408              	.L60:
 232:C:/Users/victim/Documents/GitHub/MrsMajor5.0/UEFI\bootmgfw.c ****         UINTN color = random_color();
 1409              		.loc 1 232 25 discriminator 1 view .LVU310
 1410 0774 4883FE13 		cmpq	$19, %rsi
 1411 0778 76B8     		jbe	.L61
 1412              	.LBE38:
 239:C:/Users/victim/Documents/GitHub/MrsMajor5.0/UEFI\bootmgfw.c ****     }
 240:C:/Users/victim/Documents/GitHub/MrsMajor5.0/UEFI\bootmgfw.c **** }
 1413              		.loc 1 240 1 is_stmt 0 view .LVU311
 1414 077a 4883C420 		addq	$32, %rsp
 1415              		.cfi_def_cfa_offset 48
 1416 077e 5B       		popq	%rbx
 1417              		.cfi_restore 3
 1418              		.cfi_def_cfa_offset 40
 1419              	.LVL157:
 1420              		.loc 1 240 1 view .LVU312
 1421 077f 5E       		popq	%rsi
 1422              		.cfi_restore 4
 1423              		.cfi_def_cfa_offset 32
 1424              	.LVL158:
 1425              		.loc 1 240 1 view .LVU313
 1426 0780 5F       		popq	%rdi
 1427              		.cfi_restore 5
 1428              		.cfi_def_cfa_offset 24
 1429              	.LVL159:
 1430              		.loc 1 240 1 view .LVU314
 1431 0781 5D       		popq	%rbp
 1432              		.cfi_restore 6
 1433              		.cfi_def_cfa_offset 16
 1434              	.LVL160:
 1435              		.loc 1 240 1 view .LVU315
 1436 0782 415C     		popq	%r12
 1437              		.cfi_restore 12
 1438              		.cfi_def_cfa_offset 8
 1439              	.LVL161:
 1440              		.loc 1 240 1 view .LVU316
 1441 0784 C3       		ret
 1442              		.cfi_endproc
 1443              	.LFE14:
 1444              		.seh_endproc
 1445              		.section .rdata,"dr"
 1446              		.align 2
 1447              	.LC9:
 1448 0044 5B005D00 		.ascii "[\0]\0\0\0"
 1448      0000
 1449              		.text
 1450              		.globl	grid_animation
 1452              		.seh_proc	grid_animation
 1453              	grid_animation:
 1454              	.LVL162:
 1455              	.LFB15:
 241:C:/Users/victim/Documents/GitHub/MrsMajor5.0/UEFI\bootmgfw.c **** 
 242:C:/Users/victim/Documents/GitHub/MrsMajor5.0/UEFI\bootmgfw.c **** // Effect 7: Grid Animation
 243:C:/Users/victim/Documents/GitHub/MrsMajor5.0/UEFI\bootmgfw.c **** void grid_animation(EFI_SYSTEM_TABLE* SystemTable, UINTN Columns, UINTN Rows) {
 1456              		.loc 1 243 79 is_stmt 1 view -0
 1457              		.cfi_startproc
 1458              		.loc 1 243 79 is_stmt 0 view .LVU318
 1459 0785 4155     		pushq	%r13
 1460              		.seh_pushreg	%r13
 1461              		.cfi_def_cfa_offset 16
 1462              		.cfi_offset 13, -16
 1463 0787 4154     		pushq	%r12
 1464              		.seh_pushreg	%r12
 1465              		.cfi_def_cfa_offset 24
 1466              		.cfi_offset 12, -24
 1467 0789 55       		pushq	%rbp
 1468              		.seh_pushreg	%rbp
 1469              		.cfi_def_cfa_offset 32
 1470              		.cfi_offset 6, -32
 1471 078a 57       		pushq	%rdi
 1472              		.seh_pushreg	%rdi
 1473              		.cfi_def_cfa_offset 40
 1474              		.cfi_offset 5, -40
 1475 078b 56       		pushq	%rsi
 1476              		.seh_pushreg	%rsi
 1477              		.cfi_def_cfa_offset 48
 1478              		.cfi_offset 4, -48
 1479 078c 53       		pushq	%rbx
 1480              		.seh_pushreg	%rbx
 1481              		.cfi_def_cfa_offset 56
 1482              		.cfi_offset 3, -56
 1483 078d 4883EC28 		subq	$40, %rsp
 1484              		.seh_stackalloc	40
 1485              		.cfi_def_cfa_offset 96
 1486              		.seh_endprologue
 1487 0791 4889CE   		movq	%rcx, %rsi
 1488 0794 4889D5   		movq	%rdx, %rbp
 1489 0797 4D89C4   		movq	%r8, %r12
 244:C:/Users/victim/Documents/GitHub/MrsMajor5.0/UEFI\bootmgfw.c ****     for (UINTN i = 0; i < 50; i++) {
 1490              		.loc 1 244 5 is_stmt 1 view .LVU319
 1491              	.LBB40:
 1492              		.loc 1 244 10 view .LVU320
 1493              	.LVL163:
 1494              		.loc 1 244 16 is_stmt 0 view .LVU321
 1495 079a 41BD0000 		movl	$0, %r13d
 1495      0000
 1496              		.loc 1 244 5 view .LVU322
 1497 07a0 EB55     		jmp	.L63
 1498              	.LVL164:
 1499              	.L64:
 1500              	.LBB41:
 1501              	.LBB42:
 1502              	.LBB43:
 245:C:/Users/victim/Documents/GitHub/MrsMajor5.0/UEFI\bootmgfw.c ****         for (UINTN row = 0; row < Rows; row += 2) {
 246:C:/Users/victim/Documents/GitHub/MrsMajor5.0/UEFI\bootmgfw.c ****             for (UINTN col = 0; col < Columns; col += 2) {
 247:C:/Users/victim/Documents/GitHub/MrsMajor5.0/UEFI\bootmgfw.c ****                 UINTN color = random_color();
 1503              		.loc 1 247 17 is_stmt 1 view .LVU323
 1504              		.loc 1 247 31 is_stmt 0 view .LVU324
 1505 07a2 E896F9FF 		call	random_color
 1505      FF
 1506              	.LVL165:
 1507 07a7 4889C2   		movq	%rax, %rdx
 1508              	.LVL166:
 248:C:/Users/victim/Documents/GitHub/MrsMajor5.0/UEFI\bootmgfw.c ****                 uefi_call_wrapper(SystemTable->ConOut->SetAttribute, 1, SystemTable->ConOut, color)
 1509              		.loc 1 248 17 is_stmt 1 view .LVU325
 1510 07aa 488B4640 		movq	64(%rsi), %rax
 1511              	.LVL167:
 1512              		.loc 1 248 17 is_stmt 0 view .LVU326
 1513 07ae 4889C1   		movq	%rax, %rcx
 1514 07b1 FF5028   		call	*40(%rax)
 1515              	.LVL168:
 249:C:/Users/victim/Documents/GitHub/MrsMajor5.0/UEFI\bootmgfw.c ****                 uefi_call_wrapper(SystemTable->ConOut->SetCursorPosition, 1, SystemTable->ConOut, c
 1516              		.loc 1 249 17 is_stmt 1 view .LVU327
 1517 07b4 488B4640 		movq	64(%rsi), %rax
 1518 07b8 4989F8   		movq	%rdi, %r8
 1519 07bb 4889DA   		movq	%rbx, %rdx
 1520 07be 4889C1   		movq	%rax, %rcx
 1521 07c1 FF5038   		call	*56(%rax)
 1522              	.LVL169:
 250:C:/Users/victim/Documents/GitHub/MrsMajor5.0/UEFI\bootmgfw.c ****                 Print(L"[]");
 1523              		.loc 1 250 17 view .LVU328
 1524 07c4 488D0D44 		leaq	.LC9(%rip), %rcx
 1524      000000
 1525 07cb E8000000 		call	Print
 1525      00
 1526              	.LVL170:
 1527              	.LBE43:
 246:C:/Users/victim/Documents/GitHub/MrsMajor5.0/UEFI\bootmgfw.c ****                 UINTN color = random_color();
 1528              		.loc 1 246 52 discriminator 3 view .LVU329
 1529 07d0 4883C302 		addq	$2, %rbx
 1530              	.LVL171:
 1531              	.L65:
 246:C:/Users/victim/Documents/GitHub/MrsMajor5.0/UEFI\bootmgfw.c ****                 UINTN color = random_color();
 1532              		.loc 1 246 37 discriminator 1 view .LVU330
 1533 07d4 4839EB   		cmpq	%rbp, %rbx
 1534 07d7 72C9     		jb	.L64
 1535              	.LBE42:
 245:C:/Users/victim/Documents/GitHub/MrsMajor5.0/UEFI\bootmgfw.c ****             for (UINTN col = 0; col < Columns; col += 2) {
 1536              		.loc 1 245 45 discriminator 2 view .LVU331
 1537 07d9 4883C702 		addq	$2, %rdi
 1538              	.LVL172:
 1539              	.L66:
 245:C:/Users/victim/Documents/GitHub/MrsMajor5.0/UEFI\bootmgfw.c ****             for (UINTN col = 0; col < Columns; col += 2) {
 1540              		.loc 1 245 33 discriminator 1 view .LVU332
 1541 07dd 4C39E7   		cmpq	%r12, %rdi
 1542 07e0 7307     		jnb	.L69
 1543              	.LBB44:
 246:C:/Users/victim/Documents/GitHub/MrsMajor5.0/UEFI\bootmgfw.c ****                 UINTN color = random_color();
 1544              		.loc 1 246 24 is_stmt 0 view .LVU333
 1545 07e2 BB000000 		movl	$0, %ebx
 1545      00
 1546 07e7 EBEB     		jmp	.L65
 1547              	.L69:
 1548              	.LBE44:
 1549              	.LBE41:
 251:C:/Users/victim/Documents/GitHub/MrsMajor5.0/UEFI\bootmgfw.c ****             }
 252:C:/Users/victim/Documents/GitHub/MrsMajor5.0/UEFI\bootmgfw.c ****         }
 253:C:/Users/victim/Documents/GitHub/MrsMajor5.0/UEFI\bootmgfw.c ****         delay(1000000);
 1550              		.loc 1 253 9 is_stmt 1 view .LVU334
 1551 07e9 B940420F 		movl	$1000000, %ecx
 1551      00
 1552 07ee E802F9FF 		call	delay
 1552      FF
 1553              	.LVL173:
 244:C:/Users/victim/Documents/GitHub/MrsMajor5.0/UEFI\bootmgfw.c ****         for (UINTN row = 0; row < Rows; row += 2) {
 1554              		.loc 1 244 32 discriminator 2 view .LVU335
 1555 07f3 4983C501 		addq	$1, %r13
 1556              	.LVL174:
 1557              	.L63:
 244:C:/Users/victim/Documents/GitHub/MrsMajor5.0/UEFI\bootmgfw.c ****         for (UINTN row = 0; row < Rows; row += 2) {
 1558              		.loc 1 244 25 discriminator 1 view .LVU336
 1559 07f7 4983FD31 		cmpq	$49, %r13
 1560 07fb 7707     		ja	.L70
 1561              	.LBB45:
 245:C:/Users/victim/Documents/GitHub/MrsMajor5.0/UEFI\bootmgfw.c ****             for (UINTN col = 0; col < Columns; col += 2) {
 1562              		.loc 1 245 20 is_stmt 0 view .LVU337
 1563 07fd BF000000 		movl	$0, %edi
 1563      00
 1564 0802 EBD9     		jmp	.L66
 1565              	.L70:
 1566              	.LBE45:
 1567              	.LBE40:
 254:C:/Users/victim/Documents/GitHub/MrsMajor5.0/UEFI\bootmgfw.c ****     }
 255:C:/Users/victim/Documents/GitHub/MrsMajor5.0/UEFI\bootmgfw.c **** }
 1568              		.loc 1 255 1 view .LVU338
 1569 0804 4883C428 		addq	$40, %rsp
 1570              		.cfi_def_cfa_offset 56
 1571 0808 5B       		popq	%rbx
 1572              		.cfi_restore 3
 1573              		.cfi_def_cfa_offset 48
 1574 0809 5E       		popq	%rsi
 1575              		.cfi_restore 4
 1576              		.cfi_def_cfa_offset 40
 1577              	.LVL175:
 1578              		.loc 1 255 1 view .LVU339
 1579 080a 5F       		popq	%rdi
 1580              		.cfi_restore 5
 1581              		.cfi_def_cfa_offset 32
 1582 080b 5D       		popq	%rbp
 1583              		.cfi_restore 6
 1584              		.cfi_def_cfa_offset 24
 1585              	.LVL176:
 1586              		.loc 1 255 1 view .LVU340
 1587 080c 415C     		popq	%r12
 1588              		.cfi_restore 12
 1589              		.cfi_def_cfa_offset 16
 1590              	.LVL177:
 1591              		.loc 1 255 1 view .LVU341
 1592 080e 415D     		popq	%r13
 1593              		.cfi_restore 13
 1594              		.cfi_def_cfa_offset 8
 1595              	.LVL178:
 1596              		.loc 1 255 1 view .LVU342
 1597 0810 C3       		ret
 1598              		.cfi_endproc
 1599              	.LFE15:
 1600              		.seh_endproc
 1601              		.globl	matrix_text_fall
 1603              		.seh_proc	matrix_text_fall
 1604              	matrix_text_fall:
 1605              	.LVL179:
 1606              	.LFB16:
 256:C:/Users/victim/Documents/GitHub/MrsMajor5.0/UEFI\bootmgfw.c **** 
 257:C:/Users/victim/Documents/GitHub/MrsMajor5.0/UEFI\bootmgfw.c **** // Effect 8: Matrix-like Text Fall
 258:C:/Users/victim/Documents/GitHub/MrsMajor5.0/UEFI\bootmgfw.c **** void matrix_text_fall(EFI_SYSTEM_TABLE* SystemTable, UINTN Columns, UINTN Rows) {
 1607              		.loc 1 258 81 is_stmt 1 view -0
 1608              		.cfi_startproc
 1609              		.loc 1 258 81 is_stmt 0 view .LVU344
 1610 0811 4156     		pushq	%r14
 1611              		.seh_pushreg	%r14
 1612              		.cfi_def_cfa_offset 16
 1613              		.cfi_offset 14, -16
 1614 0813 4155     		pushq	%r13
 1615              		.seh_pushreg	%r13
 1616              		.cfi_def_cfa_offset 24
 1617              		.cfi_offset 13, -24
 1618 0815 4154     		pushq	%r12
 1619              		.seh_pushreg	%r12
 1620              		.cfi_def_cfa_offset 32
 1621              		.cfi_offset 12, -32
 1622 0817 55       		pushq	%rbp
 1623              		.seh_pushreg	%rbp
 1624              		.cfi_def_cfa_offset 40
 1625              		.cfi_offset 6, -40
 1626 0818 57       		pushq	%rdi
 1627              		.seh_pushreg	%rdi
 1628              		.cfi_def_cfa_offset 48
 1629              		.cfi_offset 5, -48
 1630 0819 56       		pushq	%rsi
 1631              		.seh_pushreg	%rsi
 1632              		.cfi_def_cfa_offset 56
 1633              		.cfi_offset 4, -56
 1634 081a 53       		pushq	%rbx
 1635              		.seh_pushreg	%rbx
 1636              		.cfi_def_cfa_offset 64
 1637              		.cfi_offset 3, -64
 1638 081b 4883EC20 		subq	$32, %rsp
 1639              		.seh_stackalloc	32
 1640              		.cfi_def_cfa_offset 96
 1641              		.seh_endprologue
 1642 081f 4889CD   		movq	%rcx, %rbp
 1643 0822 4889D6   		movq	%rdx, %rsi
 1644 0825 4C89C7   		movq	%r8, %rdi
 259:C:/Users/victim/Documents/GitHub/MrsMajor5.0/UEFI\bootmgfw.c ****     for (UINTN i = 0; i < 100; i++) {
 1645              		.loc 1 259 5 is_stmt 1 view .LVU345
 1646              	.LBB46:
 1647              		.loc 1 259 10 view .LVU346
 1648              	.LVL180:
 1649              		.loc 1 259 16 is_stmt 0 view .LVU347
 1650 0828 41BD0000 		movl	$0, %r13d
 1650      0000
 1651              		.loc 1 259 5 view .LVU348
 1652 082e E9810000 		jmp	.L72
 1652      00
 1653              	.LVL181:
 1654              	.L76:
 1655              	.LBB47:
 1656              	.LBB48:
 260:C:/Users/victim/Documents/GitHub/MrsMajor5.0/UEFI\bootmgfw.c ****         for (UINTN j = 0; j < Columns; j++) {
 261:C:/Users/victim/Documents/GitHub/MrsMajor5.0/UEFI\bootmgfw.c ****             UINTN row = my_rand() % Rows;
 262:C:/Users/victim/Documents/GitHub/MrsMajor5.0/UEFI\bootmgfw.c ****             UINTN col = my_rand() % Columns;
 263:C:/Users/victim/Documents/GitHub/MrsMajor5.0/UEFI\bootmgfw.c ****             UINTN color = random_color();
 264:C:/Users/victim/Documents/GitHub/MrsMajor5.0/UEFI\bootmgfw.c ****             uefi_call_wrapper(SystemTable->ConOut->SetAttribute, 1, SystemTable->ConOut, color);
 265:C:/Users/victim/Documents/GitHub/MrsMajor5.0/UEFI\bootmgfw.c ****             uefi_call_wrapper(SystemTable->ConOut->SetCursorPosition, 1, SystemTable->ConOut, col, 
 266:C:/Users/victim/Documents/GitHub/MrsMajor5.0/UEFI\bootmgfw.c ****             CHAR16 symbol = (my_rand() % 2 == 0) ? L'1' : L'0';
 1657              		.loc 1 266 20 discriminator 2 view .LVU349
 1658 0833 BA300000 		movl	$48, %edx
 1658      00
 1659              	.L73:
 1660              	.LVL182:
 267:C:/Users/victim/Documents/GitHub/MrsMajor5.0/UEFI\bootmgfw.c ****             Print(L"%c", symbol);
 1661              		.loc 1 267 13 is_stmt 1 view .LVU350
 1662 0838 0FB7D2   		movzwl	%dx, %edx
 1663              		.loc 1 267 13 is_stmt 0 view .LVU351
 1664 083b 488D0D3A 		leaq	.LC7(%rip), %rcx
 1664      000000
 1665 0842 E8000000 		call	Print
 1665      00
 1666              	.LVL183:
 1667              		.loc 1 267 13 view .LVU352
 1668              	.LBE48:
 260:C:/Users/victim/Documents/GitHub/MrsMajor5.0/UEFI\bootmgfw.c ****         for (UINTN j = 0; j < Columns; j++) {
 1669              		.loc 1 260 41 is_stmt 1 discriminator 2 view .LVU353
 1670 0847 4883C301 		addq	$1, %rbx
 1671              	.LVL184:
 1672              	.L75:
 260:C:/Users/victim/Documents/GitHub/MrsMajor5.0/UEFI\bootmgfw.c ****         for (UINTN j = 0; j < Columns; j++) {
 1673              		.loc 1 260 29 discriminator 1 view .LVU354
 1674 084b 4839F3   		cmpq	%rsi, %rbx
 1675 084e 7356     		jnb	.L78
 1676              	.LBB49:
 261:C:/Users/victim/Documents/GitHub/MrsMajor5.0/UEFI\bootmgfw.c ****             UINTN col = my_rand() % Columns;
 1677              		.loc 1 261 13 view .LVU355
 261:C:/Users/victim/Documents/GitHub/MrsMajor5.0/UEFI\bootmgfw.c ****             UINTN col = my_rand() % Columns;
 1678              		.loc 1 261 25 is_stmt 0 view .LVU356
 1679 0850 E885F8FF 		call	my_rand
 1679      FF
 1680              	.LVL185:
 261:C:/Users/victim/Documents/GitHub/MrsMajor5.0/UEFI\bootmgfw.c ****             UINTN col = my_rand() % Columns;
 1681              		.loc 1 261 25 discriminator 1 view .LVU357
 1682 0855 89C0     		movl	%eax, %eax
 261:C:/Users/victim/Documents/GitHub/MrsMajor5.0/UEFI\bootmgfw.c ****             UINTN col = my_rand() % Columns;
 1683              		.loc 1 261 19 discriminator 1 view .LVU358
 1684 0857 BA000000 		movl	$0, %edx
 1684      00
 1685 085c 48F7F7   		divq	%rdi
 1686 085f 4989D4   		movq	%rdx, %r12
 1687              	.LVL186:
 262:C:/Users/victim/Documents/GitHub/MrsMajor5.0/UEFI\bootmgfw.c ****             UINTN color = random_color();
 1688              		.loc 1 262 13 is_stmt 1 view .LVU359
 262:C:/Users/victim/Documents/GitHub/MrsMajor5.0/UEFI\bootmgfw.c ****             UINTN color = random_color();
 1689              		.loc 1 262 25 is_stmt 0 view .LVU360
 1690 0862 E873F8FF 		call	my_rand
 1690      FF
 1691              	.LVL187:
 262:C:/Users/victim/Documents/GitHub/MrsMajor5.0/UEFI\bootmgfw.c ****             UINTN color = random_color();
 1692              		.loc 1 262 25 discriminator 1 view .LVU361
 1693 0867 89C0     		movl	%eax, %eax
 262:C:/Users/victim/Documents/GitHub/MrsMajor5.0/UEFI\bootmgfw.c ****             UINTN color = random_color();
 1694              		.loc 1 262 19 discriminator 1 view .LVU362
 1695 0869 BA000000 		movl	$0, %edx
 1695      00
 1696 086e 48F7F6   		divq	%rsi
 1697 0871 4989D6   		movq	%rdx, %r14
 1698              	.LVL188:
 263:C:/Users/victim/Documents/GitHub/MrsMajor5.0/UEFI\bootmgfw.c ****             uefi_call_wrapper(SystemTable->ConOut->SetAttribute, 1, SystemTable->ConOut, color);
 1699              		.loc 1 263 13 is_stmt 1 view .LVU363
 263:C:/Users/victim/Documents/GitHub/MrsMajor5.0/UEFI\bootmgfw.c ****             uefi_call_wrapper(SystemTable->ConOut->SetAttribute, 1, SystemTable->ConOut, color);
 1700              		.loc 1 263 27 is_stmt 0 view .LVU364
 1701 0874 E8C4F8FF 		call	random_color
 1701      FF
 1702              	.LVL189:
 263:C:/Users/victim/Documents/GitHub/MrsMajor5.0/UEFI\bootmgfw.c ****             uefi_call_wrapper(SystemTable->ConOut->SetAttribute, 1, SystemTable->ConOut, color);
 1703              		.loc 1 263 27 view .LVU365
 1704 0879 4889C2   		movq	%rax, %rdx
 1705              	.LVL190:
 264:C:/Users/victim/Documents/GitHub/MrsMajor5.0/UEFI\bootmgfw.c ****             uefi_call_wrapper(SystemTable->ConOut->SetCursorPosition, 1, SystemTable->ConOut, col, 
 1706              		.loc 1 264 13 is_stmt 1 view .LVU366
 1707 087c 488B4540 		movq	64(%rbp), %rax
 1708              	.LVL191:
 264:C:/Users/victim/Documents/GitHub/MrsMajor5.0/UEFI\bootmgfw.c ****             uefi_call_wrapper(SystemTable->ConOut->SetCursorPosition, 1, SystemTable->ConOut, col, 
 1709              		.loc 1 264 13 is_stmt 0 view .LVU367
 1710 0880 4889C1   		movq	%rax, %rcx
 1711 0883 FF5028   		call	*40(%rax)
 1712              	.LVL192:
 265:C:/Users/victim/Documents/GitHub/MrsMajor5.0/UEFI\bootmgfw.c ****             CHAR16 symbol = (my_rand() % 2 == 0) ? L'1' : L'0';
 1713              		.loc 1 265 13 is_stmt 1 view .LVU368
 1714 0886 488B4540 		movq	64(%rbp), %rax
 1715 088a 4D89E0   		movq	%r12, %r8
 1716 088d 4C89F2   		movq	%r14, %rdx
 1717 0890 4889C1   		movq	%rax, %rcx
 1718 0893 FF5038   		call	*56(%rax)
 1719              	.LVL193:
 266:C:/Users/victim/Documents/GitHub/MrsMajor5.0/UEFI\bootmgfw.c ****             Print(L"%c", symbol);
 1720              		.loc 1 266 13 view .LVU369
 266:C:/Users/victim/Documents/GitHub/MrsMajor5.0/UEFI\bootmgfw.c ****             Print(L"%c", symbol);
 1721              		.loc 1 266 30 is_stmt 0 view .LVU370
 1722 0896 E83FF8FF 		call	my_rand
 1722      FF
 1723              	.LVL194:
 266:C:/Users/victim/Documents/GitHub/MrsMajor5.0/UEFI\bootmgfw.c ****             Print(L"%c", symbol);
 1724              		.loc 1 266 20 discriminator 1 view .LVU371
 1725 089b A801     		testb	$1, %al
 1726 089d 7594     		jne	.L76
 1727 089f BA310000 		movl	$49, %edx
 1727      00
 1728 08a4 EB92     		jmp	.L73
 1729              	.LVL195:
 1730              	.L78:
 266:C:/Users/victim/Documents/GitHub/MrsMajor5.0/UEFI\bootmgfw.c ****             Print(L"%c", symbol);
 1731              		.loc 1 266 20 discriminator 1 view .LVU372
 1732              	.LBE49:
 1733              	.LBE47:
 268:C:/Users/victim/Documents/GitHub/MrsMajor5.0/UEFI\bootmgfw.c ****         }
 269:C:/Users/victim/Documents/GitHub/MrsMajor5.0/UEFI\bootmgfw.c ****         delay(500000);
 1734              		.loc 1 269 9 is_stmt 1 view .LVU373
 1735 08a6 B920A107 		movl	$500000, %ecx
 1735      00
 1736 08ab E845F8FF 		call	delay
 1736      FF
 1737              	.LVL196:
 259:C:/Users/victim/Documents/GitHub/MrsMajor5.0/UEFI\bootmgfw.c ****         for (UINTN j = 0; j < Columns; j++) {
 1738              		.loc 1 259 33 discriminator 2 view .LVU374
 1739 08b0 4983C501 		addq	$1, %r13
 1740              	.LVL197:
 1741              	.L72:
 259:C:/Users/victim/Documents/GitHub/MrsMajor5.0/UEFI\bootmgfw.c ****         for (UINTN j = 0; j < Columns; j++) {
 1742              		.loc 1 259 25 discriminator 1 view .LVU375
 1743 08b4 4983FD63 		cmpq	$99, %r13
 1744 08b8 7707     		ja	.L79
 1745              	.LBB50:
 260:C:/Users/victim/Documents/GitHub/MrsMajor5.0/UEFI\bootmgfw.c ****             UINTN row = my_rand() % Rows;
 1746              		.loc 1 260 20 is_stmt 0 view .LVU376
 1747 08ba BB000000 		movl	$0, %ebx
 1747      00
 1748 08bf EB8A     		jmp	.L75
 1749              	.L79:
 1750              	.LBE50:
 1751              	.LBE46:
 270:C:/Users/victim/Documents/GitHub/MrsMajor5.0/UEFI\bootmgfw.c ****     }
 271:C:/Users/victim/Documents/GitHub/MrsMajor5.0/UEFI\bootmgfw.c **** }
 1752              		.loc 1 271 1 view .LVU377
 1753 08c1 4883C420 		addq	$32, %rsp
 1754              		.cfi_def_cfa_offset 64
 1755 08c5 5B       		popq	%rbx
 1756              		.cfi_restore 3
 1757              		.cfi_def_cfa_offset 56
 1758 08c6 5E       		popq	%rsi
 1759              		.cfi_restore 4
 1760              		.cfi_def_cfa_offset 48
 1761              	.LVL198:
 1762              		.loc 1 271 1 view .LVU378
 1763 08c7 5F       		popq	%rdi
 1764              		.cfi_restore 5
 1765              		.cfi_def_cfa_offset 40
 1766              	.LVL199:
 1767              		.loc 1 271 1 view .LVU379
 1768 08c8 5D       		popq	%rbp
 1769              		.cfi_restore 6
 1770              		.cfi_def_cfa_offset 32
 1771              	.LVL200:
 1772              		.loc 1 271 1 view .LVU380
 1773 08c9 415C     		popq	%r12
 1774              		.cfi_restore 12
 1775              		.cfi_def_cfa_offset 24
 1776 08cb 415D     		popq	%r13
 1777              		.cfi_restore 13
 1778              		.cfi_def_cfa_offset 16
 1779              	.LVL201:
 1780              		.loc 1 271 1 view .LVU381
 1781 08cd 415E     		popq	%r14
 1782              		.cfi_restore 14
 1783              		.cfi_def_cfa_offset 8
 1784 08cf C3       		ret
 1785              		.cfi_endproc
 1786              	.LFE16:
 1787              		.seh_endproc
 1788              		.section .rdata,"dr"
 1789 004a 00000000 		.align 8
 1789      0000
 1790              	.LC10:
 1791 0050 43006F00 		.ascii "C\0o\0l\0o\0r\0 \0s\0h\0i\0f\0t\0i\0n\0g\0 \0e\0f\0f\0e\0c\0t\0\0\0"
 1791      6C006F00 
 1791      72002000 
 1791      73006800 
 1791      69006600 
 1792              		.text
 1793              		.globl	color_shifting
 1795              		.seh_proc	color_shifting
 1796              	color_shifting:
 1797              	.LVL202:
 1798              	.LFB17:
 272:C:/Users/victim/Documents/GitHub/MrsMajor5.0/UEFI\bootmgfw.c **** 
 273:C:/Users/victim/Documents/GitHub/MrsMajor5.0/UEFI\bootmgfw.c **** // Effect 9: Color Shifting
 274:C:/Users/victim/Documents/GitHub/MrsMajor5.0/UEFI\bootmgfw.c **** void color_shifting(EFI_SYSTEM_TABLE* SystemTable) {
 1799              		.loc 1 274 52 is_stmt 1 view -0
 1800              		.cfi_startproc
 1801              		.loc 1 274 52 is_stmt 0 view .LVU383
 1802 08d0 56       		pushq	%rsi
 1803              		.seh_pushreg	%rsi
 1804              		.cfi_def_cfa_offset 16
 1805              		.cfi_offset 4, -16
 1806 08d1 53       		pushq	%rbx
 1807              		.seh_pushreg	%rbx
 1808              		.cfi_def_cfa_offset 24
 1809              		.cfi_offset 3, -24
 1810 08d2 4883EC28 		subq	$40, %rsp
 1811              		.seh_stackalloc	40
 1812              		.cfi_def_cfa_offset 64
 1813              		.seh_endprologue
 1814 08d6 4889CE   		movq	%rcx, %rsi
 275:C:/Users/victim/Documents/GitHub/MrsMajor5.0/UEFI\bootmgfw.c ****     for (UINTN i = 0; i < 100; i++) {
 1815              		.loc 1 275 5 is_stmt 1 view .LVU384
 1816              	.LBB51:
 1817              		.loc 1 275 10 view .LVU385
 1818              	.LVL203:
 1819              		.loc 1 275 16 is_stmt 0 view .LVU386
 1820 08d9 BB000000 		movl	$0, %ebx
 1820      00
 1821              		.loc 1 275 5 view .LVU387
 1822 08de EB41     		jmp	.L81
 1823              	.LVL204:
 1824              	.L82:
 1825              	.LBB52:
 276:C:/Users/victim/Documents/GitHub/MrsMajor5.0/UEFI\bootmgfw.c ****         UINTN color = random_color();
 1826              		.loc 1 276 9 is_stmt 1 view .LVU388
 1827              		.loc 1 276 23 is_stmt 0 view .LVU389
 1828 08e0 E858F8FF 		call	random_color
 1828      FF
 1829              	.LVL205:
 1830 08e5 4889C2   		movq	%rax, %rdx
 1831              	.LVL206:
 277:C:/Users/victim/Documents/GitHub/MrsMajor5.0/UEFI\bootmgfw.c ****         uefi_call_wrapper(SystemTable->ConOut->SetAttribute, 1, SystemTable->ConOut, color);
 1832              		.loc 1 277 9 is_stmt 1 view .LVU390
 1833 08e8 488B4640 		movq	64(%rsi), %rax
 1834              	.LVL207:
 1835              		.loc 1 277 9 is_stmt 0 view .LVU391
 1836 08ec 4889C1   		movq	%rax, %rcx
 1837 08ef FF5028   		call	*40(%rax)
 1838              	.LVL208:
 278:C:/Users/victim/Documents/GitHub/MrsMajor5.0/UEFI\bootmgfw.c ****         uefi_call_wrapper(SystemTable->ConOut->SetCursorPosition, 1, SystemTable->ConOut, 0, 0);
 1839              		.loc 1 278 9 is_stmt 1 view .LVU392
 1840 08f2 488B4640 		movq	64(%rsi), %rax
 1841 08f6 41B80000 		movl	$0, %r8d
 1841      0000
 1842 08fc BA000000 		movl	$0, %edx
 1842      00
 1843 0901 4889C1   		movq	%rax, %rcx
 1844 0904 FF5038   		call	*56(%rax)
 1845              	.LVL209:
 279:C:/Users/victim/Documents/GitHub/MrsMajor5.0/UEFI\bootmgfw.c ****         Print(L"Color shifting effect");
 1846              		.loc 1 279 9 view .LVU393
 1847 0907 488D0D50 		leaq	.LC10(%rip), %rcx
 1847      000000
 1848 090e E8000000 		call	Print
 1848      00
 1849              	.LVL210:
 280:C:/Users/victim/Documents/GitHub/MrsMajor5.0/UEFI\bootmgfw.c ****         delay(2000000);
 1850              		.loc 1 280 9 view .LVU394
 1851 0913 B980841E 		movl	$2000000, %ecx
 1851      00
 1852 0918 E8D8F7FF 		call	delay
 1852      FF
 1853              	.LVL211:
 1854              	.LBE52:
 275:C:/Users/victim/Documents/GitHub/MrsMajor5.0/UEFI\bootmgfw.c ****         UINTN color = random_color();
 1855              		.loc 1 275 33 discriminator 3 view .LVU395
 1856 091d 4883C301 		addq	$1, %rbx
 1857              	.LVL212:
 1858              	.L81:
 275:C:/Users/victim/Documents/GitHub/MrsMajor5.0/UEFI\bootmgfw.c ****         UINTN color = random_color();
 1859              		.loc 1 275 25 discriminator 1 view .LVU396
 1860 0921 4883FB63 		cmpq	$99, %rbx
 1861 0925 76B9     		jbe	.L82
 1862              	.LBE51:
 281:C:/Users/victim/Documents/GitHub/MrsMajor5.0/UEFI\bootmgfw.c ****     }
 282:C:/Users/victim/Documents/GitHub/MrsMajor5.0/UEFI\bootmgfw.c **** }
 1863              		.loc 1 282 1 is_stmt 0 view .LVU397
 1864 0927 4883C428 		addq	$40, %rsp
 1865              		.cfi_def_cfa_offset 24
 1866 092b 5B       		popq	%rbx
 1867              		.cfi_restore 3
 1868              		.cfi_def_cfa_offset 16
 1869              	.LVL213:
 1870              		.loc 1 282 1 view .LVU398
 1871 092c 5E       		popq	%rsi
 1872              		.cfi_restore 4
 1873              		.cfi_def_cfa_offset 8
 1874              	.LVL214:
 1875              		.loc 1 282 1 view .LVU399
 1876 092d C3       		ret
 1877              		.cfi_endproc
 1878              	.LFE17:
 1879              		.seh_endproc
 1880              		.globl	flickering_text
 1882              		.seh_proc	flickering_text
 1883              	flickering_text:
 1884              	.LVL215:
 1885              	.LFB18:
 283:C:/Users/victim/Documents/GitHub/MrsMajor5.0/UEFI\bootmgfw.c **** 
 284:C:/Users/victim/Documents/GitHub/MrsMajor5.0/UEFI\bootmgfw.c **** // Effect 10: Flickering Text
 285:C:/Users/victim/Documents/GitHub/MrsMajor5.0/UEFI\bootmgfw.c **** void flickering_text(EFI_SYSTEM_TABLE* SystemTable, CHAR16* message, UINTN originalCol, UINTN origi
 1886              		.loc 1 285 108 is_stmt 1 view -0
 1887              		.cfi_startproc
 1888              		.loc 1 285 108 is_stmt 0 view .LVU401
 1889 092e 4154     		pushq	%r12
 1890              		.seh_pushreg	%r12
 1891              		.cfi_def_cfa_offset 16
 1892              		.cfi_offset 12, -16
 1893 0930 55       		pushq	%rbp
 1894              		.seh_pushreg	%rbp
 1895              		.cfi_def_cfa_offset 24
 1896              		.cfi_offset 6, -24
 1897 0931 57       		pushq	%rdi
 1898              		.seh_pushreg	%rdi
 1899              		.cfi_def_cfa_offset 32
 1900              		.cfi_offset 5, -32
 1901 0932 56       		pushq	%rsi
 1902              		.seh_pushreg	%rsi
 1903              		.cfi_def_cfa_offset 40
 1904              		.cfi_offset 4, -40
 1905 0933 53       		pushq	%rbx
 1906              		.seh_pushreg	%rbx
 1907              		.cfi_def_cfa_offset 48
 1908              		.cfi_offset 3, -48
 1909 0934 4883EC20 		subq	$32, %rsp
 1910              		.seh_stackalloc	32
 1911              		.cfi_def_cfa_offset 80
 1912              		.seh_endprologue
 1913 0938 4889CB   		movq	%rcx, %rbx
 1914 093b 4989D4   		movq	%rdx, %r12
 1915 093e 4C89C5   		movq	%r8, %rbp
 1916 0941 4C89CF   		movq	%r9, %rdi
 286:C:/Users/victim/Documents/GitHub/MrsMajor5.0/UEFI\bootmgfw.c ****     for (UINTN i = 0; i < 50; i++) {
 1917              		.loc 1 286 5 is_stmt 1 view .LVU402
 1918              	.LBB53:
 1919              		.loc 1 286 10 view .LVU403
 1920              	.LVL216:
 1921              		.loc 1 286 16 is_stmt 0 view .LVU404
 1922 0944 BE000000 		movl	$0, %esi
 1922      00
 1923              		.loc 1 286 5 view .LVU405
 1924 0949 EB4C     		jmp	.L84
 1925              	.LVL217:
 1926              	.L85:
 1927              	.LBB54:
 287:C:/Users/victim/Documents/GitHub/MrsMajor5.0/UEFI\bootmgfw.c ****         UINTN color = random_color();
 1928              		.loc 1 287 9 is_stmt 1 view .LVU406
 1929              		.loc 1 287 23 is_stmt 0 view .LVU407
 1930 094b E8EDF7FF 		call	random_color
 1930      FF
 1931              	.LVL218:
 1932 0950 4889C2   		movq	%rax, %rdx
 1933              	.LVL219:
 288:C:/Users/victim/Documents/GitHub/MrsMajor5.0/UEFI\bootmgfw.c ****         uefi_call_wrapper(SystemTable->ConOut->SetAttribute, 1, SystemTable->ConOut, color);
 1934              		.loc 1 288 9 is_stmt 1 view .LVU408
 1935 0953 488B4340 		movq	64(%rbx), %rax
 1936              	.LVL220:
 1937              		.loc 1 288 9 is_stmt 0 view .LVU409
 1938 0957 4889C1   		movq	%rax, %rcx
 1939 095a FF5028   		call	*40(%rax)
 1940              	.LVL221:
 289:C:/Users/victim/Documents/GitHub/MrsMajor5.0/UEFI\bootmgfw.c ****         uefi_call_wrapper(SystemTable->ConOut->SetCursorPosition, 1, SystemTable->ConOut, originalC
 1941              		.loc 1 289 9 is_stmt 1 view .LVU410
 1942 095d 488B4340 		movq	64(%rbx), %rax
 1943 0961 4989F8   		movq	%rdi, %r8
 1944 0964 4889EA   		movq	%rbp, %rdx
 1945 0967 4889C1   		movq	%rax, %rcx
 1946 096a FF5038   		call	*56(%rax)
 1947              	.LVL222:
 290:C:/Users/victim/Documents/GitHub/MrsMajor5.0/UEFI\bootmgfw.c ****         Print(message);
 1948              		.loc 1 290 9 view .LVU411
 1949 096d 4C89E1   		movq	%r12, %rcx
 1950 0970 E8000000 		call	Print
 1950      00
 1951              	.LVL223:
 291:C:/Users/victim/Documents/GitHub/MrsMajor5.0/UEFI\bootmgfw.c ****         delay(1000000);
 1952              		.loc 1 291 9 view .LVU412
 1953 0975 B940420F 		movl	$1000000, %ecx
 1953      00
 1954 097a E876F7FF 		call	delay
 1954      FF
 1955              	.LVL224:
 292:C:/Users/victim/Documents/GitHub/MrsMajor5.0/UEFI\bootmgfw.c ****         uefi_call_wrapper(SystemTable->ConOut->ClearScreen, 1, SystemTable->ConOut);
 1956              		.loc 1 292 9 view .LVU413
 1957 097f 488B4340 		movq	64(%rbx), %rax
 1958 0983 4889C1   		movq	%rax, %rcx
 1959 0986 FF5030   		call	*48(%rax)
 1960              	.LVL225:
 293:C:/Users/victim/Documents/GitHub/MrsMajor5.0/UEFI\bootmgfw.c ****         delay(1000000);
 1961              		.loc 1 293 9 view .LVU414
 1962 0989 B940420F 		movl	$1000000, %ecx
 1962      00
 1963 098e E862F7FF 		call	delay
 1963      FF
 1964              	.LVL226:
 1965              	.LBE54:
 286:C:/Users/victim/Documents/GitHub/MrsMajor5.0/UEFI\bootmgfw.c ****         UINTN color = random_color();
 1966              		.loc 1 286 32 discriminator 3 view .LVU415
 1967 0993 4883C601 		addq	$1, %rsi
 1968              	.LVL227:
 1969              	.L84:
 286:C:/Users/victim/Documents/GitHub/MrsMajor5.0/UEFI\bootmgfw.c ****         UINTN color = random_color();
 1970              		.loc 1 286 25 discriminator 1 view .LVU416
 1971 0997 4883FE31 		cmpq	$49, %rsi
 1972 099b 76AE     		jbe	.L85
 1973              	.LBE53:
 294:C:/Users/victim/Documents/GitHub/MrsMajor5.0/UEFI\bootmgfw.c ****     }
 295:C:/Users/victim/Documents/GitHub/MrsMajor5.0/UEFI\bootmgfw.c **** }
 1974              		.loc 1 295 1 is_stmt 0 view .LVU417
 1975 099d 4883C420 		addq	$32, %rsp
 1976              		.cfi_def_cfa_offset 48
 1977 09a1 5B       		popq	%rbx
 1978              		.cfi_restore 3
 1979              		.cfi_def_cfa_offset 40
 1980              	.LVL228:
 1981              		.loc 1 295 1 view .LVU418
 1982 09a2 5E       		popq	%rsi
 1983              		.cfi_restore 4
 1984              		.cfi_def_cfa_offset 32
 1985              	.LVL229:
 1986              		.loc 1 295 1 view .LVU419
 1987 09a3 5F       		popq	%rdi
 1988              		.cfi_restore 5
 1989              		.cfi_def_cfa_offset 24
 1990              	.LVL230:
 1991              		.loc 1 295 1 view .LVU420
 1992 09a4 5D       		popq	%rbp
 1993              		.cfi_restore 6
 1994              		.cfi_def_cfa_offset 16
 1995              	.LVL231:
 1996              		.loc 1 295 1 view .LVU421
 1997 09a5 415C     		popq	%r12
 1998              		.cfi_restore 12
 1999              		.cfi_def_cfa_offset 8
 2000              	.LVL232:
 2001              		.loc 1 295 1 view .LVU422
 2002 09a7 C3       		ret
 2003              		.cfi_endproc
 2004              	.LFE18:
 2005              		.seh_endproc
 2006              		.section .rdata,"dr"
 2007              		.align 2
 2008              	.LC11:
 2009 007c 2D000000 		.ascii "-\0\0\0"
 2010              		.align 2
 2011              	.LC12:
 2012 0080 7C000000 		.ascii "|\0\0\0"
 2013              		.text
 2014              		.globl	flashing_borders
 2016              		.seh_proc	flashing_borders
 2017              	flashing_borders:
 2018              	.LVL233:
 2019              	.LFB19:
 296:C:/Users/victim/Documents/GitHub/MrsMajor5.0/UEFI\bootmgfw.c **** 
 297:C:/Users/victim/Documents/GitHub/MrsMajor5.0/UEFI\bootmgfw.c **** // Effect 11: Flashing Borders
 298:C:/Users/victim/Documents/GitHub/MrsMajor5.0/UEFI\bootmgfw.c **** void flashing_borders(EFI_SYSTEM_TABLE* SystemTable, UINTN Columns, UINTN Rows) {
 2020              		.loc 1 298 81 is_stmt 1 view -0
 2021              		.cfi_startproc
 2022              		.loc 1 298 81 is_stmt 0 view .LVU424
 2023 09a8 4155     		pushq	%r13
 2024              		.seh_pushreg	%r13
 2025              		.cfi_def_cfa_offset 16
 2026              		.cfi_offset 13, -16
 2027 09aa 4154     		pushq	%r12
 2028              		.seh_pushreg	%r12
 2029              		.cfi_def_cfa_offset 24
 2030              		.cfi_offset 12, -24
 2031 09ac 55       		pushq	%rbp
 2032              		.seh_pushreg	%rbp
 2033              		.cfi_def_cfa_offset 32
 2034              		.cfi_offset 6, -32
 2035 09ad 57       		pushq	%rdi
 2036              		.seh_pushreg	%rdi
 2037              		.cfi_def_cfa_offset 40
 2038              		.cfi_offset 5, -40
 2039 09ae 56       		pushq	%rsi
 2040              		.seh_pushreg	%rsi
 2041              		.cfi_def_cfa_offset 48
 2042              		.cfi_offset 4, -48
 2043 09af 53       		pushq	%rbx
 2044              		.seh_pushreg	%rbx
 2045              		.cfi_def_cfa_offset 56
 2046              		.cfi_offset 3, -56
 2047 09b0 4883EC28 		subq	$40, %rsp
 2048              		.seh_stackalloc	40
 2049              		.cfi_def_cfa_offset 96
 2050              		.seh_endprologue
 2051 09b4 4889CE   		movq	%rcx, %rsi
 2052 09b7 4989D4   		movq	%rdx, %r12
 2053 09ba 4C89C5   		movq	%r8, %rbp
 299:C:/Users/victim/Documents/GitHub/MrsMajor5.0/UEFI\bootmgfw.c ****     for (UINTN i = 0; i < 50; i++) {
 2054              		.loc 1 299 5 is_stmt 1 view .LVU425
 2055              	.LBB55:
 2056              		.loc 1 299 10 view .LVU426
 2057              	.LVL234:
 2058              		.loc 1 299 16 is_stmt 0 view .LVU427
 2059 09bd 41BD0000 		movl	$0, %r13d
 2059      0000
 2060              		.loc 1 299 5 view .LVU428
 2061 09c3 E9A70000 		jmp	.L87
 2061      00
 2062              	.LVL235:
 2063              	.L89:
 2064              	.LBB56:
 2065              	.LBB57:
 300:C:/Users/victim/Documents/GitHub/MrsMajor5.0/UEFI\bootmgfw.c ****         UINTN color = random_color();
 301:C:/Users/victim/Documents/GitHub/MrsMajor5.0/UEFI\bootmgfw.c ****         uefi_call_wrapper(SystemTable->ConOut->SetAttribute, 1, SystemTable->ConOut, color);
 302:C:/Users/victim/Documents/GitHub/MrsMajor5.0/UEFI\bootmgfw.c ****         for (UINTN col = 0; col < Columns; col++) {
 303:C:/Users/victim/Documents/GitHub/MrsMajor5.0/UEFI\bootmgfw.c ****             uefi_call_wrapper(SystemTable->ConOut->SetCursorPosition, 1, SystemTable->ConOut, col, 
 2066              		.loc 1 303 13 is_stmt 1 view .LVU429
 2067 09c8 488B4640 		movq	64(%rsi), %rax
 2068 09cc 41B80000 		movl	$0, %r8d
 2068      0000
 2069 09d2 4889DA   		movq	%rbx, %rdx
 2070 09d5 4889C1   		movq	%rax, %rcx
 2071 09d8 FF5038   		call	*56(%rax)
 2072              	.LVL236:
 304:C:/Users/victim/Documents/GitHub/MrsMajor5.0/UEFI\bootmgfw.c ****             Print(L"-");
 2073              		.loc 1 304 13 view .LVU430
 2074 09db 488D3D7C 		leaq	.LC11(%rip), %rdi
 2074      000000
 2075 09e2 4889F9   		movq	%rdi, %rcx
 2076 09e5 E8000000 		call	Print
 2076      00
 2077              	.LVL237:
 305:C:/Users/victim/Documents/GitHub/MrsMajor5.0/UEFI\bootmgfw.c ****             uefi_call_wrapper(SystemTable->ConOut->SetCursorPosition, 1, SystemTable->ConOut, col, 
 2078              		.loc 1 305 13 view .LVU431
 2079 09ea 488B4640 		movq	64(%rsi), %rax
 2080 09ee 4C8D45FF 		leaq	-1(%rbp), %r8
 2081 09f2 4889DA   		movq	%rbx, %rdx
 2082 09f5 4889C1   		movq	%rax, %rcx
 2083 09f8 FF5038   		call	*56(%rax)
 2084              	.LVL238:
 306:C:/Users/victim/Documents/GitHub/MrsMajor5.0/UEFI\bootmgfw.c ****             Print(L"-");
 2085              		.loc 1 306 13 view .LVU432
 2086 09fb 4889F9   		movq	%rdi, %rcx
 2087 09fe E8000000 		call	Print
 2087      00
 2088              	.LVL239:
 302:C:/Users/victim/Documents/GitHub/MrsMajor5.0/UEFI\bootmgfw.c ****             uefi_call_wrapper(SystemTable->ConOut->SetCursorPosition, 1, SystemTable->ConOut, col, 
 2089              		.loc 1 302 47 discriminator 3 view .LVU433
 2090 0a03 4883C301 		addq	$1, %rbx
 2091              	.LVL240:
 2092              	.L88:
 302:C:/Users/victim/Documents/GitHub/MrsMajor5.0/UEFI\bootmgfw.c ****             uefi_call_wrapper(SystemTable->ConOut->SetCursorPosition, 1, SystemTable->ConOut, col, 
 2093              		.loc 1 302 33 discriminator 1 view .LVU434
 2094 0a07 4C39E3   		cmpq	%r12, %rbx
 2095 0a0a 72BC     		jb	.L89
 2096              	.LBE57:
 2097              	.LBB58:
 307:C:/Users/victim/Documents/GitHub/MrsMajor5.0/UEFI\bootmgfw.c ****         }
 308:C:/Users/victim/Documents/GitHub/MrsMajor5.0/UEFI\bootmgfw.c ****         for (UINTN row = 0; row < Rows; row++) {
 2098              		.loc 1 308 20 is_stmt 0 view .LVU435
 2099 0a0c BB000000 		movl	$0, %ebx
 2099      00
 2100              	.LVL241:
 2101              		.loc 1 308 20 view .LVU436
 2102 0a11 EB3F     		jmp	.L90
 2103              	.LVL242:
 2104              	.L91:
 309:C:/Users/victim/Documents/GitHub/MrsMajor5.0/UEFI\bootmgfw.c ****             uefi_call_wrapper(SystemTable->ConOut->SetCursorPosition, 1, SystemTable->ConOut, 0, ro
 2105              		.loc 1 309 13 is_stmt 1 view .LVU437
 2106 0a13 488B4640 		movq	64(%rsi), %rax
 2107 0a17 4989D8   		movq	%rbx, %r8
 2108 0a1a BA000000 		movl	$0, %edx
 2108      00
 2109 0a1f 4889C1   		movq	%rax, %rcx
 2110 0a22 FF5038   		call	*56(%rax)
 2111              	.LVL243:
 310:C:/Users/victim/Documents/GitHub/MrsMajor5.0/UEFI\bootmgfw.c ****             Print(L"|");
 2112              		.loc 1 310 13 view .LVU438
 2113 0a25 488D3D80 		leaq	.LC12(%rip), %rdi
 2113      000000
 2114 0a2c 4889F9   		movq	%rdi, %rcx
 2115 0a2f E8000000 		call	Print
 2115      00
 2116              	.LVL244:
 311:C:/Users/victim/Documents/GitHub/MrsMajor5.0/UEFI\bootmgfw.c ****             uefi_call_wrapper(SystemTable->ConOut->SetCursorPosition, 1, SystemTable->ConOut, Colum
 2117              		.loc 1 311 13 view .LVU439
 2118 0a34 488B4640 		movq	64(%rsi), %rax
 2119 0a38 498D5424 		leaq	-1(%r12), %rdx
 2119      FF
 2120 0a3d 4989D8   		movq	%rbx, %r8
 2121 0a40 4889C1   		movq	%rax, %rcx
 2122 0a43 FF5038   		call	*56(%rax)
 2123              	.LVL245:
 312:C:/Users/victim/Documents/GitHub/MrsMajor5.0/UEFI\bootmgfw.c ****             Print(L"|");
 2124              		.loc 1 312 13 view .LVU440
 2125 0a46 4889F9   		movq	%rdi, %rcx
 2126 0a49 E8000000 		call	Print
 2126      00
 2127              	.LVL246:
 308:C:/Users/victim/Documents/GitHub/MrsMajor5.0/UEFI\bootmgfw.c ****             uefi_call_wrapper(SystemTable->ConOut->SetCursorPosition, 1, SystemTable->ConOut, 0, ro
 2128              		.loc 1 308 44 discriminator 3 view .LVU441
 2129 0a4e 4883C301 		addq	$1, %rbx
 2130              	.LVL247:
 2131              	.L90:
 308:C:/Users/victim/Documents/GitHub/MrsMajor5.0/UEFI\bootmgfw.c ****             uefi_call_wrapper(SystemTable->ConOut->SetCursorPosition, 1, SystemTable->ConOut, 0, ro
 2132              		.loc 1 308 33 discriminator 1 view .LVU442
 2133 0a52 4839EB   		cmpq	%rbp, %rbx
 2134 0a55 72BC     		jb	.L91
 2135              	.LBE58:
 313:C:/Users/victim/Documents/GitHub/MrsMajor5.0/UEFI\bootmgfw.c ****         }
 314:C:/Users/victim/Documents/GitHub/MrsMajor5.0/UEFI\bootmgfw.c ****         delay(500000);
 2136              		.loc 1 314 9 view .LVU443
 2137 0a57 B920A107 		movl	$500000, %ecx
 2137      00
 2138 0a5c E894F6FF 		call	delay
 2138      FF
 2139              	.LVL248:
 315:C:/Users/victim/Documents/GitHub/MrsMajor5.0/UEFI\bootmgfw.c ****         uefi_call_wrapper(SystemTable->ConOut->ClearScreen, 1, SystemTable->ConOut);
 2140              		.loc 1 315 9 view .LVU444
 2141 0a61 488B4640 		movq	64(%rsi), %rax
 2142 0a65 4889C1   		movq	%rax, %rcx
 2143 0a68 FF5030   		call	*48(%rax)
 2144              	.LVL249:
 2145              	.LBE56:
 299:C:/Users/victim/Documents/GitHub/MrsMajor5.0/UEFI\bootmgfw.c ****         UINTN color = random_color();
 2146              		.loc 1 299 32 discriminator 2 view .LVU445
 2147 0a6b 4983C501 		addq	$1, %r13
 2148              	.LVL250:
 2149              	.L87:
 299:C:/Users/victim/Documents/GitHub/MrsMajor5.0/UEFI\bootmgfw.c ****         UINTN color = random_color();
 2150              		.loc 1 299 25 discriminator 1 view .LVU446
 2151 0a6f 4983FD31 		cmpq	$49, %r13
 2152 0a73 771C     		ja	.L93
 2153              	.LBB60:
 300:C:/Users/victim/Documents/GitHub/MrsMajor5.0/UEFI\bootmgfw.c ****         uefi_call_wrapper(SystemTable->ConOut->SetAttribute, 1, SystemTable->ConOut, color);
 2154              		.loc 1 300 9 view .LVU447
 300:C:/Users/victim/Documents/GitHub/MrsMajor5.0/UEFI\bootmgfw.c ****         uefi_call_wrapper(SystemTable->ConOut->SetAttribute, 1, SystemTable->ConOut, color);
 2155              		.loc 1 300 23 is_stmt 0 view .LVU448
 2156 0a75 E8C3F6FF 		call	random_color
 2156      FF
 2157              	.LVL251:
 2158 0a7a 4889C2   		movq	%rax, %rdx
 2159              	.LVL252:
 301:C:/Users/victim/Documents/GitHub/MrsMajor5.0/UEFI\bootmgfw.c ****         for (UINTN col = 0; col < Columns; col++) {
 2160              		.loc 1 301 9 is_stmt 1 view .LVU449
 2161 0a7d 488B4640 		movq	64(%rsi), %rax
 2162              	.LVL253:
 301:C:/Users/victim/Documents/GitHub/MrsMajor5.0/UEFI\bootmgfw.c ****         for (UINTN col = 0; col < Columns; col++) {
 2163              		.loc 1 301 9 is_stmt 0 view .LVU450
 2164 0a81 4889C1   		movq	%rax, %rcx
 2165 0a84 FF5028   		call	*40(%rax)
 2166              	.LVL254:
 302:C:/Users/victim/Documents/GitHub/MrsMajor5.0/UEFI\bootmgfw.c ****             uefi_call_wrapper(SystemTable->ConOut->SetCursorPosition, 1, SystemTable->ConOut, col, 
 2167              		.loc 1 302 9 is_stmt 1 view .LVU451
 2168              	.LBB59:
 302:C:/Users/victim/Documents/GitHub/MrsMajor5.0/UEFI\bootmgfw.c ****             uefi_call_wrapper(SystemTable->ConOut->SetCursorPosition, 1, SystemTable->ConOut, col, 
 2169              		.loc 1 302 14 view .LVU452
 302:C:/Users/victim/Documents/GitHub/MrsMajor5.0/UEFI\bootmgfw.c ****             uefi_call_wrapper(SystemTable->ConOut->SetCursorPosition, 1, SystemTable->ConOut, col, 
 2170              		.loc 1 302 20 is_stmt 0 view .LVU453
 2171 0a87 BB000000 		movl	$0, %ebx
 2171      00
 302:C:/Users/victim/Documents/GitHub/MrsMajor5.0/UEFI\bootmgfw.c ****             uefi_call_wrapper(SystemTable->ConOut->SetCursorPosition, 1, SystemTable->ConOut, col, 
 2172              		.loc 1 302 9 view .LVU454
 2173 0a8c E976FFFF 		jmp	.L88
 2173      FF
 2174              	.LVL255:
 2175              	.L93:
 302:C:/Users/victim/Documents/GitHub/MrsMajor5.0/UEFI\bootmgfw.c ****             uefi_call_wrapper(SystemTable->ConOut->SetCursorPosition, 1, SystemTable->ConOut, col, 
 2176              		.loc 1 302 9 view .LVU455
 2177              	.LBE59:
 2178              	.LBE60:
 2179              	.LBE55:
 316:C:/Users/victim/Documents/GitHub/MrsMajor5.0/UEFI\bootmgfw.c ****     }
 317:C:/Users/victim/Documents/GitHub/MrsMajor5.0/UEFI\bootmgfw.c **** }
 2180              		.loc 1 317 1 view .LVU456
 2181 0a91 4883C428 		addq	$40, %rsp
 2182              		.cfi_def_cfa_offset 56
 2183 0a95 5B       		popq	%rbx
 2184              		.cfi_restore 3
 2185              		.cfi_def_cfa_offset 48
 2186 0a96 5E       		popq	%rsi
 2187              		.cfi_restore 4
 2188              		.cfi_def_cfa_offset 40
 2189              	.LVL256:
 2190              		.loc 1 317 1 view .LVU457
 2191 0a97 5F       		popq	%rdi
 2192              		.cfi_restore 5
 2193              		.cfi_def_cfa_offset 32
 2194 0a98 5D       		popq	%rbp
 2195              		.cfi_restore 6
 2196              		.cfi_def_cfa_offset 24
 2197              	.LVL257:
 2198              		.loc 1 317 1 view .LVU458
 2199 0a99 415C     		popq	%r12
 2200              		.cfi_restore 12
 2201              		.cfi_def_cfa_offset 16
 2202              	.LVL258:
 2203              		.loc 1 317 1 view .LVU459
 2204 0a9b 415D     		popq	%r13
 2205              		.cfi_restore 13
 2206              		.cfi_def_cfa_offset 8
 2207              	.LVL259:
 2208              		.loc 1 317 1 view .LVU460
 2209 0a9d C3       		ret
 2210              		.cfi_endproc
 2211              	.LFE19:
 2212              		.seh_endproc
 2213              		.globl	random_patterns_symbols
 2215              		.seh_proc	random_patterns_symbols
 2216              	random_patterns_symbols:
 2217              	.LVL260:
 2218              	.LFB20:
 318:C:/Users/victim/Documents/GitHub/MrsMajor5.0/UEFI\bootmgfw.c **** 
 319:C:/Users/victim/Documents/GitHub/MrsMajor5.0/UEFI\bootmgfw.c **** // Effect 12: Random Patterns and Symbols
 320:C:/Users/victim/Documents/GitHub/MrsMajor5.0/UEFI\bootmgfw.c **** void random_patterns_symbols(EFI_SYSTEM_TABLE* SystemTable, UINTN Columns, UINTN Rows) {
 2219              		.loc 1 320 88 is_stmt 1 view -0
 2220              		.cfi_startproc
 2221              		.loc 1 320 88 is_stmt 0 view .LVU462
 2222 0a9e 4157     		pushq	%r15
 2223              		.seh_pushreg	%r15
 2224              		.cfi_def_cfa_offset 16
 2225              		.cfi_offset 15, -16
 2226 0aa0 4156     		pushq	%r14
 2227              		.seh_pushreg	%r14
 2228              		.cfi_def_cfa_offset 24
 2229              		.cfi_offset 14, -24
 2230 0aa2 4155     		pushq	%r13
 2231              		.seh_pushreg	%r13
 2232              		.cfi_def_cfa_offset 32
 2233              		.cfi_offset 13, -32
 2234 0aa4 4154     		pushq	%r12
 2235              		.seh_pushreg	%r12
 2236              		.cfi_def_cfa_offset 40
 2237              		.cfi_offset 12, -40
 2238 0aa6 55       		pushq	%rbp
 2239              		.seh_pushreg	%rbp
 2240              		.cfi_def_cfa_offset 48
 2241              		.cfi_offset 6, -48
 2242 0aa7 57       		pushq	%rdi
 2243              		.seh_pushreg	%rdi
 2244              		.cfi_def_cfa_offset 56
 2245              		.cfi_offset 5, -56
 2246 0aa8 56       		pushq	%rsi
 2247              		.seh_pushreg	%rsi
 2248              		.cfi_def_cfa_offset 64
 2249              		.cfi_offset 4, -64
 2250 0aa9 53       		pushq	%rbx
 2251              		.seh_pushreg	%rbx
 2252              		.cfi_def_cfa_offset 72
 2253              		.cfi_offset 3, -72
 2254 0aaa 4883EC48 		subq	$72, %rsp
 2255              		.seh_stackalloc	72
 2256              		.cfi_def_cfa_offset 144
 2257              		.seh_endprologue
 2258 0aae 4989CD   		movq	%rcx, %r13
 2259 0ab1 4989D4   		movq	%rdx, %r12
 2260 0ab4 4C89C5   		movq	%r8, %rbp
 321:C:/Users/victim/Documents/GitHub/MrsMajor5.0/UEFI\bootmgfw.c ****     CHAR16 symbols[] = { L'@', L'#', L'$', L'%', L'&', L'*', L'+', L'=' };  // Array of random symb
 2261              		.loc 1 321 5 is_stmt 1 view .LVU463
 2262              		.loc 1 321 12 is_stmt 0 view .LVU464
 2263 0ab7 66C74424 		movw	$64, 48(%rsp)
 2263      304000
 2264 0abe 66C74424 		movw	$35, 50(%rsp)
 2264      322300
 2265 0ac5 66C74424 		movw	$36, 52(%rsp)
 2265      342400
 2266 0acc 66C74424 		movw	$37, 54(%rsp)
 2266      362500
 2267 0ad3 66C74424 		movw	$38, 56(%rsp)
 2267      382600
 2268 0ada 66C74424 		movw	$42, 58(%rsp)
 2268      3A2A00
 2269 0ae1 66C74424 		movw	$43, 60(%rsp)
 2269      3C2B00
 2270 0ae8 66C74424 		movw	$61, 62(%rsp)
 2270      3E3D00
 322:C:/Users/victim/Documents/GitHub/MrsMajor5.0/UEFI\bootmgfw.c ****     UINTN num_symbols = sizeof(symbols) / sizeof(symbols[0]);
 2271              		.loc 1 322 5 is_stmt 1 view .LVU465
 2272              	.LVL261:
 323:C:/Users/victim/Documents/GitHub/MrsMajor5.0/UEFI\bootmgfw.c **** 
 324:C:/Users/victim/Documents/GitHub/MrsMajor5.0/UEFI\bootmgfw.c ****     for (UINTN i = 0; i < 100; i++) {
 2273              		.loc 1 324 5 view .LVU466
 2274              	.LBB61:
 2275              		.loc 1 324 10 view .LVU467
 2276              		.loc 1 324 16 is_stmt 0 view .LVU468
 2277 0aef 48C74424 		movq	$0, 40(%rsp)
 2277      28000000 
 2277      00
 2278              		.loc 1 324 5 view .LVU469
 2279 0af8 EB7F     		jmp	.L95
 2280              	.LVL262:
 2281              	.L96:
 2282              	.LBB62:
 2283              	.LBB63:
 325:C:/Users/victim/Documents/GitHub/MrsMajor5.0/UEFI\bootmgfw.c ****         for (UINTN j = 0; j < 50; j++) {
 326:C:/Users/victim/Documents/GitHub/MrsMajor5.0/UEFI\bootmgfw.c ****             UINTN col = my_rand() % Columns;
 2284              		.loc 1 326 13 is_stmt 1 view .LVU470
 2285              		.loc 1 326 25 is_stmt 0 view .LVU471
 2286 0afa E8DBF5FF 		call	my_rand
 2286      FF
 2287              	.LVL263:
 2288              		.loc 1 326 25 discriminator 1 view .LVU472
 2289 0aff 89C0     		movl	%eax, %eax
 2290              		.loc 1 326 19 discriminator 1 view .LVU473
 2291 0b01 BA000000 		movl	$0, %edx
 2291      00
 2292 0b06 49F7F4   		divq	%r12
 2293 0b09 4989D6   		movq	%rdx, %r14
 2294              	.LVL264:
 327:C:/Users/victim/Documents/GitHub/MrsMajor5.0/UEFI\bootmgfw.c ****             UINTN row = my_rand() % Rows;
 2295              		.loc 1 327 13 is_stmt 1 view .LVU474
 2296              		.loc 1 327 25 is_stmt 0 view .LVU475
 2297 0b0c E8C9F5FF 		call	my_rand
 2297      FF
 2298              	.LVL265:
 2299              		.loc 1 327 25 discriminator 1 view .LVU476
 2300 0b11 89C0     		movl	%eax, %eax
 2301              		.loc 1 327 19 discriminator 1 view .LVU477
 2302 0b13 BA000000 		movl	$0, %edx
 2302      00
 2303 0b18 48F7F5   		divq	%rbp
 2304 0b1b 4989D7   		movq	%rdx, %r15
 2305              	.LVL266:
 328:C:/Users/victim/Documents/GitHub/MrsMajor5.0/UEFI\bootmgfw.c ****             UINTN color = random_color();
 2306              		.loc 1 328 13 is_stmt 1 view .LVU478
 2307              		.loc 1 328 27 is_stmt 0 view .LVU479
 2308 0b1e E81AF6FF 		call	random_color
 2308      FF
 2309              	.LVL267:
 2310              		.loc 1 328 27 view .LVU480
 2311 0b23 4889C6   		movq	%rax, %rsi
 2312              	.LVL268:
 329:C:/Users/victim/Documents/GitHub/MrsMajor5.0/UEFI\bootmgfw.c ****             CHAR16 symbol = symbols[my_rand() % num_symbols];
 2313              		.loc 1 329 13 is_stmt 1 view .LVU481
 2314              		.loc 1 329 37 is_stmt 0 view .LVU482
 2315 0b26 E8AFF5FF 		call	my_rand
 2315      FF
 2316              	.LVL269:
 2317              		.loc 1 329 47 discriminator 1 view .LVU483
 2318 0b2b 83E007   		andl	$7, %eax
 2319              		.loc 1 329 20 discriminator 1 view .LVU484
 2320 0b2e 0FB75C44 		movzwl	48(%rsp,%rax,2), %ebx
 2320      30
 2321              	.LVL270:
 330:C:/Users/victim/Documents/GitHub/MrsMajor5.0/UEFI\bootmgfw.c **** 
 331:C:/Users/victim/Documents/GitHub/MrsMajor5.0/UEFI\bootmgfw.c ****             uefi_call_wrapper(SystemTable->ConOut->SetAttribute, 1, SystemTable->ConOut, color);
 2322              		.loc 1 331 13 is_stmt 1 view .LVU485
 2323 0b33 498B4540 		movq	64(%r13), %rax
 2324 0b37 4889F2   		movq	%rsi, %rdx
 2325 0b3a 4889C1   		movq	%rax, %rcx
 2326 0b3d FF5028   		call	*40(%rax)
 2327              	.LVL271:
 332:C:/Users/victim/Documents/GitHub/MrsMajor5.0/UEFI\bootmgfw.c ****             uefi_call_wrapper(SystemTable->ConOut->SetCursorPosition, 1, SystemTable->ConOut, col, 
 2328              		.loc 1 332 13 view .LVU486
 2329 0b40 498B4540 		movq	64(%r13), %rax
 2330 0b44 4D89F8   		movq	%r15, %r8
 2331 0b47 4C89F2   		movq	%r14, %rdx
 2332 0b4a 4889C1   		movq	%rax, %rcx
 2333 0b4d FF5038   		call	*56(%rax)
 2334              	.LVL272:
 333:C:/Users/victim/Documents/GitHub/MrsMajor5.0/UEFI\bootmgfw.c ****             Print(L"%c", symbol);
 2335              		.loc 1 333 13 view .LVU487
 2336 0b50 0FB7D3   		movzwl	%bx, %edx
 2337 0b53 488D0D3A 		leaq	.LC7(%rip), %rcx
 2337      000000
 2338 0b5a E8000000 		call	Print
 2338      00
 2339              	.LVL273:
 2340              	.LBE63:
 325:C:/Users/victim/Documents/GitHub/MrsMajor5.0/UEFI\bootmgfw.c ****             UINTN col = my_rand() % Columns;
 2341              		.loc 1 325 36 discriminator 3 view .LVU488
 2342 0b5f 4883C701 		addq	$1, %rdi
 2343              	.LVL274:
 2344              	.L97:
 325:C:/Users/victim/Documents/GitHub/MrsMajor5.0/UEFI\bootmgfw.c ****             UINTN col = my_rand() % Columns;
 2345              		.loc 1 325 29 discriminator 1 view .LVU489
 2346 0b63 4883FF31 		cmpq	$49, %rdi
 2347 0b67 7691     		jbe	.L96
 2348              	.LBE62:
 334:C:/Users/victim/Documents/GitHub/MrsMajor5.0/UEFI\bootmgfw.c ****         }
 335:C:/Users/victim/Documents/GitHub/MrsMajor5.0/UEFI\bootmgfw.c ****         delay(500000);
 2349              		.loc 1 335 9 view .LVU490
 2350 0b69 B920A107 		movl	$500000, %ecx
 2350      00
 2351 0b6e E882F5FF 		call	delay
 2351      FF
 2352              	.LVL275:
 324:C:/Users/victim/Documents/GitHub/MrsMajor5.0/UEFI\bootmgfw.c ****         for (UINTN j = 0; j < 50; j++) {
 2353              		.loc 1 324 33 discriminator 2 view .LVU491
 2354 0b73 48834424 		addq	$1, 40(%rsp)
 2354      2801
 2355              	.LVL276:
 2356              	.L95:
 324:C:/Users/victim/Documents/GitHub/MrsMajor5.0/UEFI\bootmgfw.c ****         for (UINTN j = 0; j < 50; j++) {
 2357              		.loc 1 324 25 discriminator 1 view .LVU492
 2358 0b79 48837C24 		cmpq	$99, 40(%rsp)
 2358      2863
 2359 0b7f 7707     		ja	.L99
 2360              	.LBB64:
 325:C:/Users/victim/Documents/GitHub/MrsMajor5.0/UEFI\bootmgfw.c ****             UINTN col = my_rand() % Columns;
 2361              		.loc 1 325 20 is_stmt 0 view .LVU493
 2362 0b81 BF000000 		movl	$0, %edi
 2362      00
 2363 0b86 EBDB     		jmp	.L97
 2364              	.L99:
 2365              	.LBE64:
 2366              	.LBE61:
 336:C:/Users/victim/Documents/GitHub/MrsMajor5.0/UEFI\bootmgfw.c ****     }
 337:C:/Users/victim/Documents/GitHub/MrsMajor5.0/UEFI\bootmgfw.c **** }
 2367              		.loc 1 337 1 view .LVU494
 2368 0b88 4883C448 		addq	$72, %rsp
 2369              		.cfi_def_cfa_offset 72
 2370 0b8c 5B       		popq	%rbx
 2371              		.cfi_restore 3
 2372              		.cfi_def_cfa_offset 64
 2373 0b8d 5E       		popq	%rsi
 2374              		.cfi_restore 4
 2375              		.cfi_def_cfa_offset 56
 2376 0b8e 5F       		popq	%rdi
 2377              		.cfi_restore 5
 2378              		.cfi_def_cfa_offset 48
 2379 0b8f 5D       		popq	%rbp
 2380              		.cfi_restore 6
 2381              		.cfi_def_cfa_offset 40
 2382              	.LVL277:
 2383              		.loc 1 337 1 view .LVU495
 2384 0b90 415C     		popq	%r12
 2385              		.cfi_restore 12
 2386              		.cfi_def_cfa_offset 32
 2387              	.LVL278:
 2388              		.loc 1 337 1 view .LVU496
 2389 0b92 415D     		popq	%r13
 2390              		.cfi_restore 13
 2391              		.cfi_def_cfa_offset 24
 2392              	.LVL279:
 2393              		.loc 1 337 1 view .LVU497
 2394 0b94 415E     		popq	%r14
 2395              		.cfi_restore 14
 2396              		.cfi_def_cfa_offset 16
 2397 0b96 415F     		popq	%r15
 2398              		.cfi_restore 15
 2399              		.cfi_def_cfa_offset 8
 2400 0b98 C3       		ret
 2401              		.cfi_endproc
 2402              	.LFE20:
 2403              		.seh_endproc
 2404              		.globl	play_beep
 2406              		.seh_proc	play_beep
 2407              	play_beep:
 2408              	.LVL280:
 2409              	.LFB21:
 338:C:/Users/victim/Documents/GitHub/MrsMajor5.0/UEFI\bootmgfw.c **** 
 339:C:/Users/victim/Documents/GitHub/MrsMajor5.0/UEFI\bootmgfw.c **** // Function to play a beep sound with a specific frequency and duration
 340:C:/Users/victim/Documents/GitHub/MrsMajor5.0/UEFI\bootmgfw.c **** void play_beep(UINTN frequency, UINTN duration) {
 2410              		.loc 1 340 49 is_stmt 1 view -0
 2411              		.cfi_startproc
 2412              		.loc 1 340 49 is_stmt 0 view .LVU499
 2413 0b99 53       		pushq	%rbx
 2414              		.seh_pushreg	%rbx
 2415              		.cfi_def_cfa_offset 16
 2416              		.cfi_offset 3, -16
 2417 0b9a 4883EC20 		subq	$32, %rsp
 2418              		.seh_stackalloc	32
 2419              		.cfi_def_cfa_offset 48
 2420              		.seh_endprologue
 2421 0b9e 4989C8   		movq	%rcx, %r8
 2422 0ba1 4889D1   		movq	%rdx, %rcx
 2423              	.LVL281:
 341:C:/Users/victim/Documents/GitHub/MrsMajor5.0/UEFI\bootmgfw.c ****     UINTN divisor = PIT_FREQUENCY / frequency;
 2424              		.loc 1 341 5 is_stmt 1 view .LVU500
 2425              		.loc 1 341 11 is_stmt 0 view .LVU501
 2426 0ba4 B8DC3412 		movl	$1193180, %eax
 2426      00
 2427 0ba9 BA000000 		movl	$0, %edx
 2427      00
 2428              	.LVL282:
 2429              		.loc 1 341 11 view .LVU502
 2430 0bae 49F7F0   		divq	%r8
 2431 0bb1 4889C3   		movq	%rax, %rbx
 2432              	.LVL283:
 342:C:/Users/victim/Documents/GitHub/MrsMajor5.0/UEFI\bootmgfw.c **** 
 343:C:/Users/victim/Documents/GitHub/MrsMajor5.0/UEFI\bootmgfw.c ****     // Set the frequency for the PC speaker
 344:C:/Users/victim/Documents/GitHub/MrsMajor5.0/UEFI\bootmgfw.c ****     outb(TIMER_COMMAND_PORT, 0xB6);
 2433              		.loc 1 344 5 is_stmt 1 view .LVU503
 2434              	.LBB65:
 2435              	.LBI65:
  29:C:/Users/victim/Documents/GitHub/MrsMajor5.0/UEFI\bootmgfw.c ****     __asm__ __volatile__ ("outb %0, %1" : : "a"(val), "Nd"(port));
 2436              		.loc 1 29 20 view .LVU504
 2437              	.LBB66:
  30:C:/Users/victim/Documents/GitHub/MrsMajor5.0/UEFI\bootmgfw.c **** }
 2438              		.loc 1 30 5 view .LVU505
 2439 0bb4 B8B6FFFF 		movl	$-74, %eax
 2439      FF
 2440              	.LVL284:
  30:C:/Users/victim/Documents/GitHub/MrsMajor5.0/UEFI\bootmgfw.c **** }
 2441              		.loc 1 30 5 is_stmt 0 view .LVU506
 2442              	/APP
 2443              	 # 30 "C:/Users/victim/Documents/GitHub/MrsMajor5.0/UEFI\bootmgfw.c" 1
 2444 0bb9 E643     		outb %al, $67
 2445              	 # 0 "" 2
 2446              	.LVL285:
  30:C:/Users/victim/Documents/GitHub/MrsMajor5.0/UEFI\bootmgfw.c **** }
 2447              		.loc 1 30 5 view .LVU507
 2448              	/NO_APP
 2449              	.LBE66:
 2450              	.LBE65:
 345:C:/Users/victim/Documents/GitHub/MrsMajor5.0/UEFI\bootmgfw.c ****     outb(TIMER_DATA_PORT, divisor & 0xFF);
 2451              		.loc 1 345 5 is_stmt 1 view .LVU508
 2452              	.LBB67:
 2453              	.LBI67:
  29:C:/Users/victim/Documents/GitHub/MrsMajor5.0/UEFI\bootmgfw.c ****     __asm__ __volatile__ ("outb %0, %1" : : "a"(val), "Nd"(port));
 2454              		.loc 1 29 20 view .LVU509
 2455              	.LBB68:
  30:C:/Users/victim/Documents/GitHub/MrsMajor5.0/UEFI\bootmgfw.c **** }
 2456              		.loc 1 30 5 view .LVU510
 2457 0bbb 89D8     		movl	%ebx, %eax
 2458              	/APP
 2459              	 # 30 "C:/Users/victim/Documents/GitHub/MrsMajor5.0/UEFI\bootmgfw.c" 1
 2460 0bbd E642     		outb %al, $66
 2461              	 # 0 "" 2
 2462              	.LVL286:
  30:C:/Users/victim/Documents/GitHub/MrsMajor5.0/UEFI\bootmgfw.c **** }
 2463              		.loc 1 30 5 is_stmt 0 view .LVU511
 2464              	/NO_APP
 2465              	.LBE68:
 2466              	.LBE67:
 346:C:/Users/victim/Documents/GitHub/MrsMajor5.0/UEFI\bootmgfw.c ****     outb(TIMER_DATA_PORT, (divisor >> 8) & 0xFF);
 2467              		.loc 1 346 5 is_stmt 1 view .LVU512
 2468 0bbf 0FB6C7   		movzbl	%bh, %eax
 2469              	.LVL287:
 2470              	.LBB69:
 2471              	.LBI69:
  29:C:/Users/victim/Documents/GitHub/MrsMajor5.0/UEFI\bootmgfw.c ****     __asm__ __volatile__ ("outb %0, %1" : : "a"(val), "Nd"(port));
 2472              		.loc 1 29 20 view .LVU513
 2473              	.LBB70:
  30:C:/Users/victim/Documents/GitHub/MrsMajor5.0/UEFI\bootmgfw.c **** }
 2474              		.loc 1 30 5 view .LVU514
 2475              	/APP
 2476              	 # 30 "C:/Users/victim/Documents/GitHub/MrsMajor5.0/UEFI\bootmgfw.c" 1
 2477 0bc2 E642     		outb %al, $66
 2478              	 # 0 "" 2
 2479              	.LVL288:
  30:C:/Users/victim/Documents/GitHub/MrsMajor5.0/UEFI\bootmgfw.c **** }
 2480              		.loc 1 30 5 is_stmt 0 view .LVU515
 2481              	/NO_APP
 2482              	.LBE70:
 2483              	.LBE69:
 347:C:/Users/victim/Documents/GitHub/MrsMajor5.0/UEFI\bootmgfw.c **** 
 348:C:/Users/victim/Documents/GitHub/MrsMajor5.0/UEFI\bootmgfw.c ****     // Turn on the speaker
 349:C:/Users/victim/Documents/GitHub/MrsMajor5.0/UEFI\bootmgfw.c ****     UINT8 temp = inb(SPEAKER_PORT);
 2484              		.loc 1 349 5 is_stmt 1 view .LVU516
 2485              	.LBB71:
 2486              	.LBI71:
  33:C:/Users/victim/Documents/GitHub/MrsMajor5.0/UEFI\bootmgfw.c ****     UINT8 ret;
 2487              		.loc 1 33 21 view .LVU517
 2488              	.LBB72:
  34:C:/Users/victim/Documents/GitHub/MrsMajor5.0/UEFI\bootmgfw.c ****     __asm__ __volatile__ ("inb %1, %0" : "=a"(ret) : "Nd"(port));
 2489              		.loc 1 34 5 view .LVU518
  35:C:/Users/victim/Documents/GitHub/MrsMajor5.0/UEFI\bootmgfw.c ****     return ret;
 2490              		.loc 1 35 5 view .LVU519
 2491              	/APP
 2492              	 # 35 "C:/Users/victim/Documents/GitHub/MrsMajor5.0/UEFI\bootmgfw.c" 1
 2493 0bc4 E461     		inb $97, %al
 2494              	 # 0 "" 2
 2495              	.LVL289:
  36:C:/Users/victim/Documents/GitHub/MrsMajor5.0/UEFI\bootmgfw.c **** }
 2496              		.loc 1 36 5 view .LVU520
  36:C:/Users/victim/Documents/GitHub/MrsMajor5.0/UEFI\bootmgfw.c **** }
 2497              		.loc 1 36 5 is_stmt 0 view .LVU521
 2498              	/NO_APP
 2499              	.LBE72:
 2500              	.LBE71:
 350:C:/Users/victim/Documents/GitHub/MrsMajor5.0/UEFI\bootmgfw.c ****     outb(SPEAKER_PORT, temp | 0x03);
 2501              		.loc 1 350 5 is_stmt 1 view .LVU522
 2502 0bc6 83C803   		orl	$3, %eax
 2503              	.LVL290:
 2504              	.LBB73:
 2505              	.LBI73:
  29:C:/Users/victim/Documents/GitHub/MrsMajor5.0/UEFI\bootmgfw.c ****     __asm__ __volatile__ ("outb %0, %1" : : "a"(val), "Nd"(port));
 2506              		.loc 1 29 20 view .LVU523
 2507              	.LBB74:
  30:C:/Users/victim/Documents/GitHub/MrsMajor5.0/UEFI\bootmgfw.c **** }
 2508              		.loc 1 30 5 view .LVU524
 2509              	/APP
 2510              	 # 30 "C:/Users/victim/Documents/GitHub/MrsMajor5.0/UEFI\bootmgfw.c" 1
 2511 0bc9 E661     		outb %al, $97
 2512              	 # 0 "" 2
 2513              	.LVL291:
  30:C:/Users/victim/Documents/GitHub/MrsMajor5.0/UEFI\bootmgfw.c **** }
 2514              		.loc 1 30 5 is_stmt 0 view .LVU525
 2515              	/NO_APP
 2516              	.LBE74:
 2517              	.LBE73:
 351:C:/Users/victim/Documents/GitHub/MrsMajor5.0/UEFI\bootmgfw.c **** 
 352:C:/Users/victim/Documents/GitHub/MrsMajor5.0/UEFI\bootmgfw.c ****     // Delay for the duration of the sound
 353:C:/Users/victim/Documents/GitHub/MrsMajor5.0/UEFI\bootmgfw.c ****     delay(duration);
 2518              		.loc 1 353 5 is_stmt 1 view .LVU526
 2519 0bcb E825F5FF 		call	delay
 2519      FF
 2520              	.LVL292:
 354:C:/Users/victim/Documents/GitHub/MrsMajor5.0/UEFI\bootmgfw.c **** 
 355:C:/Users/victim/Documents/GitHub/MrsMajor5.0/UEFI\bootmgfw.c ****     // Turn off the speaker
 356:C:/Users/victim/Documents/GitHub/MrsMajor5.0/UEFI\bootmgfw.c ****     temp = inb(SPEAKER_PORT);
 2521              		.loc 1 356 5 view .LVU527
 2522              	.LBB75:
 2523              	.LBI75:
  33:C:/Users/victim/Documents/GitHub/MrsMajor5.0/UEFI\bootmgfw.c ****     UINT8 ret;
 2524              		.loc 1 33 21 view .LVU528
 2525              	.LBB76:
  34:C:/Users/victim/Documents/GitHub/MrsMajor5.0/UEFI\bootmgfw.c ****     __asm__ __volatile__ ("inb %1, %0" : "=a"(ret) : "Nd"(port));
 2526              		.loc 1 34 5 view .LVU529
  35:C:/Users/victim/Documents/GitHub/MrsMajor5.0/UEFI\bootmgfw.c ****     return ret;
 2527              		.loc 1 35 5 view .LVU530
 2528              	/APP
 2529              	 # 35 "C:/Users/victim/Documents/GitHub/MrsMajor5.0/UEFI\bootmgfw.c" 1
 2530 0bd0 E461     		inb $97, %al
 2531              	 # 0 "" 2
 2532              	.LVL293:
  36:C:/Users/victim/Documents/GitHub/MrsMajor5.0/UEFI\bootmgfw.c **** }
 2533              		.loc 1 36 5 view .LVU531
  36:C:/Users/victim/Documents/GitHub/MrsMajor5.0/UEFI\bootmgfw.c **** }
 2534              		.loc 1 36 5 is_stmt 0 view .LVU532
 2535              	/NO_APP
 2536              	.LBE76:
 2537              	.LBE75:
 357:C:/Users/victim/Documents/GitHub/MrsMajor5.0/UEFI\bootmgfw.c ****     outb(SPEAKER_PORT, temp & 0xFC);
 2538              		.loc 1 357 5 is_stmt 1 view .LVU533
 2539              	.LBB77:
 2540              	.LBI77:
  29:C:/Users/victim/Documents/GitHub/MrsMajor5.0/UEFI\bootmgfw.c ****     __asm__ __volatile__ ("outb %0, %1" : : "a"(val), "Nd"(port));
 2541              		.loc 1 29 20 view .LVU534
 2542              	.LBB78:
  30:C:/Users/victim/Documents/GitHub/MrsMajor5.0/UEFI\bootmgfw.c **** }
 2543              		.loc 1 30 5 view .LVU535
 2544 0bd2 83E0FC   		andl	$-4, %eax
 2545              	.LVL294:
  30:C:/Users/victim/Documents/GitHub/MrsMajor5.0/UEFI\bootmgfw.c **** }
 2546              		.loc 1 30 5 is_stmt 0 view .LVU536
 2547              	/APP
 2548              	 # 30 "C:/Users/victim/Documents/GitHub/MrsMajor5.0/UEFI\bootmgfw.c" 1
 2549 0bd5 E661     		outb %al, $97
 2550              	 # 0 "" 2
 2551              	.LVL295:
  30:C:/Users/victim/Documents/GitHub/MrsMajor5.0/UEFI\bootmgfw.c **** }
 2552              		.loc 1 30 5 view .LVU537
 2553              	/NO_APP
 2554              	.LBE78:
 2555              	.LBE77:
 358:C:/Users/victim/Documents/GitHub/MrsMajor5.0/UEFI\bootmgfw.c **** }
 2556              		.loc 1 358 1 view .LVU538
 2557 0bd7 4883C420 		addq	$32, %rsp
 2558              		.cfi_def_cfa_offset 16
 2559 0bdb 5B       		popq	%rbx
 2560              		.cfi_restore 3
 2561              		.cfi_def_cfa_offset 8
 2562              	.LVL296:
 2563              		.loc 1 358 1 view .LVU539
 2564 0bdc C3       		ret
 2565              		.cfi_endproc
 2566              	.LFE21:
 2567              		.seh_endproc
 2568              		.section .rdata,"dr"
 2569 0084 00000000 		.align 8
 2570              	.LC13:
 2571 0088 4D005200 		.ascii "M\0R\0S\0M\0A\0J\0O\0R\0"
 2571      53004D00 
 2571      41004A00 
 2571      4F005200 
 2572 0098 35002000 		.ascii "5\0 \0I\0S\0 \0H\0E\0R\0E\0!\0\0\0"
 2572      49005300 
 2572      20004800 
 2572      45005200 
 2572      45002100 
 2573 00ae 0000     		.align 8
 2574              	.LC14:
 2575 00b0 54004800 		.ascii "T\0H\0E\0R\0E\0 \0I\0S\0 \0N\0O\0 \0E\0S\0C\0A\0P\0E\0!\0\0\0"
 2575      45005200 
 2575      45002000 
 2575      49005300 
 2575      20004E00 
 2576              		.align 2
 2577              	.LC15:
 2578 00d8 21002100 		.ascii "!\0!\0!\0\0\0"
 2578      21000000 
 2579              		.text
 2580              		.globl	dramatic_sound_effects
 2582              		.seh_proc	dramatic_sound_effects
 2583              	dramatic_sound_effects:
 2584              	.LVL297:
 2585              	.LFB22:
 359:C:/Users/victim/Documents/GitHub/MrsMajor5.0/UEFI\bootmgfw.c **** 
 360:C:/Users/victim/Documents/GitHub/MrsMajor5.0/UEFI\bootmgfw.c **** // Function to create visual and sound effects
 361:C:/Users/victim/Documents/GitHub/MrsMajor5.0/UEFI\bootmgfw.c **** void dramatic_sound_effects(EFI_SYSTEM_TABLE* SystemTable, UINTN Columns, UINTN Rows, UINTN effectD
 2586              		.loc 1 361 109 is_stmt 1 view -0
 2587              		.cfi_startproc
 2588              		.loc 1 361 109 is_stmt 0 view .LVU541
 2589 0bdd 4157     		pushq	%r15
 2590              		.seh_pushreg	%r15
 2591              		.cfi_def_cfa_offset 16
 2592              		.cfi_offset 15, -16
 2593 0bdf 4156     		pushq	%r14
 2594              		.seh_pushreg	%r14
 2595              		.cfi_def_cfa_offset 24
 2596              		.cfi_offset 14, -24
 2597 0be1 4155     		pushq	%r13
 2598              		.seh_pushreg	%r13
 2599              		.cfi_def_cfa_offset 32
 2600              		.cfi_offset 13, -32
 2601 0be3 4154     		pushq	%r12
 2602              		.seh_pushreg	%r12
 2603              		.cfi_def_cfa_offset 40
 2604              		.cfi_offset 12, -40
 2605 0be5 55       		pushq	%rbp
 2606              		.seh_pushreg	%rbp
 2607              		.cfi_def_cfa_offset 48
 2608              		.cfi_offset 6, -48
 2609 0be6 57       		pushq	%rdi
 2610              		.seh_pushreg	%rdi
 2611              		.cfi_def_cfa_offset 56
 2612              		.cfi_offset 5, -56
 2613 0be7 56       		pushq	%rsi
 2614              		.seh_pushreg	%rsi
 2615              		.cfi_def_cfa_offset 64
 2616              		.cfi_offset 4, -64
 2617 0be8 53       		pushq	%rbx
 2618              		.seh_pushreg	%rbx
 2619              		.cfi_def_cfa_offset 72
 2620              		.cfi_offset 3, -72
 2621 0be9 4883EC28 		subq	$40, %rsp
 2622              		.seh_stackalloc	40
 2623              		.cfi_def_cfa_offset 112
 2624              		.seh_endprologue
 2625 0bed 4989D6   		movq	%rdx, %r14
 2626 0bf0 4D89C5   		movq	%r8, %r13
 362:C:/Users/victim/Documents/GitHub/MrsMajor5.0/UEFI\bootmgfw.c ****     EFI_SIMPLE_TEXT_OUT_PROTOCOL* ConOut = SystemTable->ConOut;
 2627              		.loc 1 362 5 is_stmt 1 view .LVU542
 2628              		.loc 1 362 35 is_stmt 0 view .LVU543
 2629 0bf3 488B5940 		movq	64(%rcx), %rbx
 2630              	.LVL298:
 363:C:/Users/victim/Documents/GitHub/MrsMajor5.0/UEFI\bootmgfw.c ****     UINTN iterations = effectDuration / 1000000; // Convert microseconds to iterations
 2631              		.loc 1 363 5 is_stmt 1 view .LVU544
 2632              		.loc 1 363 11 is_stmt 0 view .LVU545
 2633 0bf7 48BADB34 		movabsq	$4835703278458516699, %rdx
 2633      B6D782DE 
 2633      1B43
 2634              	.LVL299:
 2635              		.loc 1 363 11 view .LVU546
 2636 0c01 4C89C8   		movq	%r9, %rax
 2637 0c04 48F7E2   		mulq	%rdx
 2638 0c07 48C1EA12 		shrq	$18, %rdx
 2639 0c0b 4989D4   		movq	%rdx, %r12
 2640              	.LVL300:
 364:C:/Users/victim/Documents/GitHub/MrsMajor5.0/UEFI\bootmgfw.c **** 
 365:C:/Users/victim/Documents/GitHub/MrsMajor5.0/UEFI\bootmgfw.c ****     for (UINTN i = 0; i < iterations; i++) {
 2641              		.loc 1 365 5 is_stmt 1 view .LVU547
 2642              	.LBB79:
 2643              		.loc 1 365 10 view .LVU548
 2644              		.loc 1 365 16 is_stmt 0 view .LVU549
 2645 0c0e BE000000 		movl	$0, %esi
 2645      00
 2646              		.loc 1 365 5 view .LVU550
 2647 0c13 EB1C     		jmp	.L102
 2648              	.LVL301:
 2649              	.L108:
 2650              	.LBB80:
 366:C:/Users/victim/Documents/GitHub/MrsMajor5.0/UEFI\bootmgfw.c ****         // Simulate sound with a flashing effect and PC speaker beep
 367:C:/Users/victim/Documents/GitHub/MrsMajor5.0/UEFI\bootmgfw.c ****         UINTN color = (i % 2 == 0) ? EFI_RED : EFI_WHITE;
 2651              		.loc 1 367 46 discriminator 2 view .LVU551
 2652 0c15 BA0F0000 		movl	$15, %edx
 2652      00
 2653 0c1a EB2C     		jmp	.L103
 2654              	.LVL302:
 2655              	.L109:
 368:C:/Users/victim/Documents/GitHub/MrsMajor5.0/UEFI\bootmgfw.c ****         uefi_call_wrapper(ConOut->SetAttribute, 1, ConOut, color);
 369:C:/Users/victim/Documents/GitHub/MrsMajor5.0/UEFI\bootmgfw.c ****         uefi_call_wrapper(ConOut->ClearScreen, 1, ConOut);
 370:C:/Users/victim/Documents/GitHub/MrsMajor5.0/UEFI\bootmgfw.c ****         uefi_call_wrapper(ConOut->SetCursorPosition, 1, ConOut, Columns / 2 - 15, Rows / 2);
 371:C:/Users/victim/Documents/GitHub/MrsMajor5.0/UEFI\bootmgfw.c ****         Print(L"MRSMAJOR5 IS HERE!");
 372:C:/Users/victim/Documents/GitHub/MrsMajor5.0/UEFI\bootmgfw.c **** 
 373:C:/Users/victim/Documents/GitHub/MrsMajor5.0/UEFI\bootmgfw.c ****         // Play a beep sound with alternating frequencies
 374:C:/Users/victim/Documents/GitHub/MrsMajor5.0/UEFI\bootmgfw.c ****         play_beep((i % 2 == 0) ? 1000 : 2000, 50000); // Frequency alternates between 1kHz and 2kHz
 2656              		.loc 1 374 9 discriminator 2 view .LVU552
 2657 0c1c B9D00700 		movl	$2000, %ecx
 2657      00
 2658 0c21 EB63     		jmp	.L104
 2659              	.L106:
 375:C:/Users/victim/Documents/GitHub/MrsMajor5.0/UEFI\bootmgfw.c **** 
 376:C:/Users/victim/Documents/GitHub/MrsMajor5.0/UEFI\bootmgfw.c ****         // Add patterns to simulate varying sound effects
 377:C:/Users/victim/Documents/GitHub/MrsMajor5.0/UEFI\bootmgfw.c ****         if (i % 5 == 0) {
 378:C:/Users/victim/Documents/GitHub/MrsMajor5.0/UEFI\bootmgfw.c ****             uefi_call_wrapper(ConOut->SetCursorPosition, 1, ConOut, Columns / 2 - 15, Rows / 2 + 1)
 379:C:/Users/victim/Documents/GitHub/MrsMajor5.0/UEFI\bootmgfw.c ****             Print(L"THERE IS NO ESCAPE!");
 380:C:/Users/victim/Documents/GitHub/MrsMajor5.0/UEFI\bootmgfw.c ****             play_beep(1500, 100000); // Play a beep at 1.5kHz
 381:C:/Users/victim/Documents/GitHub/MrsMajor5.0/UEFI\bootmgfw.c ****         }
 382:C:/Users/victim/Documents/GitHub/MrsMajor5.0/UEFI\bootmgfw.c **** 
 383:C:/Users/victim/Documents/GitHub/MrsMajor5.0/UEFI\bootmgfw.c ****         // Additional pattern for simulating sound intensity
 384:C:/Users/victim/Documents/GitHub/MrsMajor5.0/UEFI\bootmgfw.c ****         if (i % 10 == 0) {
 385:C:/Users/victim/Documents/GitHub/MrsMajor5.0/UEFI\bootmgfw.c ****             uefi_call_wrapper(ConOut->SetAttribute, 1, ConOut, EFI_GREEN);
 386:C:/Users/victim/Documents/GitHub/MrsMajor5.0/UEFI\bootmgfw.c ****             uefi_call_wrapper(ConOut->ClearScreen, 1, ConOut);
 387:C:/Users/victim/Documents/GitHub/MrsMajor5.0/UEFI\bootmgfw.c ****             uefi_call_wrapper(ConOut->SetCursorPosition, 1, ConOut, Columns / 2 - 15, Rows / 2 + 2)
 388:C:/Users/victim/Documents/GitHub/MrsMajor5.0/UEFI\bootmgfw.c ****             Print(L"!!!");
 389:C:/Users/victim/Documents/GitHub/MrsMajor5.0/UEFI\bootmgfw.c ****             play_beep(3000, 50000); // Play a higher-pitched beep at 3kHz
 390:C:/Users/victim/Documents/GitHub/MrsMajor5.0/UEFI\bootmgfw.c ****         }
 391:C:/Users/victim/Documents/GitHub/MrsMajor5.0/UEFI\bootmgfw.c **** 
 392:C:/Users/victim/Documents/GitHub/MrsMajor5.0/UEFI\bootmgfw.c ****         delay(500000); // Simulate duration
 2660              		.loc 1 392 9 is_stmt 1 view .LVU553
 2661 0c23 B920A107 		movl	$500000, %ecx
 2661      00
 2662 0c28 E8C8F4FF 		call	delay
 2662      FF
 2663              	.LVL303:
 2664              	.LBE80:
 365:C:/Users/victim/Documents/GitHub/MrsMajor5.0/UEFI\bootmgfw.c ****         // Simulate sound with a flashing effect and PC speaker beep
 2665              		.loc 1 365 40 discriminator 2 view .LVU554
 2666 0c2d 4883C601 		addq	$1, %rsi
 2667              	.LVL304:
 2668              	.L102:
 365:C:/Users/victim/Documents/GitHub/MrsMajor5.0/UEFI\bootmgfw.c ****         // Simulate sound with a flashing effect and PC speaker beep
 2669              		.loc 1 365 25 discriminator 1 view .LVU555
 2670 0c31 4C39E6   		cmpq	%r12, %rsi
 2671 0c34 0F830301 		jnb	.L110
 2671      0000
 2672              	.LBB81:
 367:C:/Users/victim/Documents/GitHub/MrsMajor5.0/UEFI\bootmgfw.c ****         uefi_call_wrapper(ConOut->SetAttribute, 1, ConOut, color);
 2673              		.loc 1 367 9 view .LVU556
 367:C:/Users/victim/Documents/GitHub/MrsMajor5.0/UEFI\bootmgfw.c ****         uefi_call_wrapper(ConOut->SetAttribute, 1, ConOut, color);
 2674              		.loc 1 367 46 is_stmt 0 view .LVU557
 2675 0c3a 4989F7   		movq	%rsi, %r15
 2676 0c3d 4183E701 		andl	$1, %r15d
 2677 0c41 75D2     		jne	.L108
 367:C:/Users/victim/Documents/GitHub/MrsMajor5.0/UEFI\bootmgfw.c ****         uefi_call_wrapper(ConOut->SetAttribute, 1, ConOut, color);
 2678              		.loc 1 367 46 discriminator 1 view .LVU558
 2679 0c43 BA040000 		movl	$4, %edx
 2679      00
 2680              	.L103:
 2681              	.LVL305:
 368:C:/Users/victim/Documents/GitHub/MrsMajor5.0/UEFI\bootmgfw.c ****         uefi_call_wrapper(ConOut->ClearScreen, 1, ConOut);
 2682              		.loc 1 368 9 is_stmt 1 view .LVU559
 2683 0c48 4889D9   		movq	%rbx, %rcx
 2684 0c4b FF5328   		call	*40(%rbx)
 2685              	.LVL306:
 369:C:/Users/victim/Documents/GitHub/MrsMajor5.0/UEFI\bootmgfw.c ****         uefi_call_wrapper(ConOut->SetCursorPosition, 1, ConOut, Columns / 2 - 15, Rows / 2);
 2686              		.loc 1 369 9 view .LVU560
 2687 0c4e 4889D9   		movq	%rbx, %rcx
 2688 0c51 FF5330   		call	*48(%rbx)
 2689              	.LVL307:
 370:C:/Users/victim/Documents/GitHub/MrsMajor5.0/UEFI\bootmgfw.c ****         Print(L"MRSMAJOR5 IS HERE!");
 2690              		.loc 1 370 9 view .LVU561
 2691 0c54 4C89ED   		movq	%r13, %rbp
 2692 0c57 48D1ED   		shrq	%rbp
 2693 0c5a 4C89F7   		movq	%r14, %rdi
 2694 0c5d 48D1EF   		shrq	%rdi
 2695 0c60 4883EF0F 		subq	$15, %rdi
 2696 0c64 4989E8   		movq	%rbp, %r8
 2697 0c67 4889FA   		movq	%rdi, %rdx
 2698 0c6a 4889D9   		movq	%rbx, %rcx
 2699 0c6d FF5338   		call	*56(%rbx)
 2700              	.LVL308:
 371:C:/Users/victim/Documents/GitHub/MrsMajor5.0/UEFI\bootmgfw.c **** 
 2701              		.loc 1 371 9 view .LVU562
 2702 0c70 488D0D88 		leaq	.LC13(%rip), %rcx
 2702      000000
 2703 0c77 E8000000 		call	Print
 2703      00
 2704              	.LVL309:
 374:C:/Users/victim/Documents/GitHub/MrsMajor5.0/UEFI\bootmgfw.c **** 
 2705              		.loc 1 374 9 view .LVU563
 2706 0c7c 4D85FF   		testq	%r15, %r15
 2707 0c7f 759B     		jne	.L109
 374:C:/Users/victim/Documents/GitHub/MrsMajor5.0/UEFI\bootmgfw.c **** 
 2708              		.loc 1 374 9 is_stmt 0 discriminator 1 view .LVU564
 2709 0c81 B9E80300 		movl	$1000, %ecx
 2709      00
 2710              	.L104:
 374:C:/Users/victim/Documents/GitHub/MrsMajor5.0/UEFI\bootmgfw.c **** 
 2711              		.loc 1 374 9 discriminator 4 view .LVU565
 2712 0c86 BA50C300 		movl	$50000, %edx
 2712      00
 2713 0c8b E809FFFF 		call	play_beep
 2713      FF
 2714              	.LVL310:
 377:C:/Users/victim/Documents/GitHub/MrsMajor5.0/UEFI\bootmgfw.c ****             uefi_call_wrapper(ConOut->SetCursorPosition, 1, ConOut, Columns / 2 - 15, Rows / 2 + 1)
 2715              		.loc 1 377 9 is_stmt 1 view .LVU566
 377:C:/Users/victim/Documents/GitHub/MrsMajor5.0/UEFI\bootmgfw.c ****             uefi_call_wrapper(ConOut->SetCursorPosition, 1, ConOut, Columns / 2 - 15, Rows / 2 + 1)
 2716              		.loc 1 377 15 is_stmt 0 view .LVU567
 2717 0c90 48BACDCC 		movabsq	$-3689348814741910323, %rdx
 2717      CCCCCCCC 
 2717      CCCC
 2718 0c9a 4889F0   		movq	%rsi, %rax
 2719 0c9d 48F7E2   		mulq	%rdx
 2720 0ca0 4889D0   		movq	%rdx, %rax
 2721 0ca3 48C1E802 		shrq	$2, %rax
 2722 0ca7 4883E2FC 		andq	$-4, %rdx
 2723 0cab 4801C2   		addq	%rax, %rdx
 377:C:/Users/victim/Documents/GitHub/MrsMajor5.0/UEFI\bootmgfw.c ****             uefi_call_wrapper(ConOut->SetCursorPosition, 1, ConOut, Columns / 2 - 15, Rows / 2 + 1)
 2724              		.loc 1 377 12 view .LVU568
 2725 0cae 4839D6   		cmpq	%rdx, %rsi
 2726 0cb1 7528     		jne	.L105
 378:C:/Users/victim/Documents/GitHub/MrsMajor5.0/UEFI\bootmgfw.c ****             Print(L"THERE IS NO ESCAPE!");
 2727              		.loc 1 378 13 is_stmt 1 view .LVU569
 2728 0cb3 4C8D4501 		leaq	1(%rbp), %r8
 2729 0cb7 4889FA   		movq	%rdi, %rdx
 2730 0cba 4889D9   		movq	%rbx, %rcx
 2731 0cbd FF5338   		call	*56(%rbx)
 2732              	.LVL311:
 379:C:/Users/victim/Documents/GitHub/MrsMajor5.0/UEFI\bootmgfw.c ****             play_beep(1500, 100000); // Play a beep at 1.5kHz
 2733              		.loc 1 379 13 view .LVU570
 2734 0cc0 488D0DB0 		leaq	.LC14(%rip), %rcx
 2734      000000
 2735 0cc7 E8000000 		call	Print
 2735      00
 2736              	.LVL312:
 380:C:/Users/victim/Documents/GitHub/MrsMajor5.0/UEFI\bootmgfw.c ****         }
 2737              		.loc 1 380 13 view .LVU571
 2738 0ccc BAA08601 		movl	$100000, %edx
 2738      00
 2739 0cd1 B9DC0500 		movl	$1500, %ecx
 2739      00
 2740 0cd6 E8BEFEFF 		call	play_beep
 2740      FF
 2741              	.LVL313:
 2742              	.L105:
 384:C:/Users/victim/Documents/GitHub/MrsMajor5.0/UEFI\bootmgfw.c ****             uefi_call_wrapper(ConOut->SetAttribute, 1, ConOut, EFI_GREEN);
 2743              		.loc 1 384 9 view .LVU572
 384:C:/Users/victim/Documents/GitHub/MrsMajor5.0/UEFI\bootmgfw.c ****             uefi_call_wrapper(ConOut->SetAttribute, 1, ConOut, EFI_GREEN);
 2744              		.loc 1 384 15 is_stmt 0 view .LVU573
 2745 0cdb 48BACDCC 		movabsq	$-3689348814741910323, %rdx
 2745      CCCCCCCC 
 2745      CCCC
 2746 0ce5 4889F0   		movq	%rsi, %rax
 2747 0ce8 48F7E2   		mulq	%rdx
 2748 0ceb 48C1EA03 		shrq	$3, %rdx
 2749 0cef 488D0492 		leaq	(%rdx,%rdx,4), %rax
 2750 0cf3 4801C0   		addq	%rax, %rax
 384:C:/Users/victim/Documents/GitHub/MrsMajor5.0/UEFI\bootmgfw.c ****             uefi_call_wrapper(ConOut->SetAttribute, 1, ConOut, EFI_GREEN);
 2751              		.loc 1 384 12 view .LVU574
 2752 0cf6 4839C6   		cmpq	%rax, %rsi
 2753 0cf9 0F8524FF 		jne	.L106
 2753      FFFF
 385:C:/Users/victim/Documents/GitHub/MrsMajor5.0/UEFI\bootmgfw.c ****             uefi_call_wrapper(ConOut->ClearScreen, 1, ConOut);
 2754              		.loc 1 385 13 is_stmt 1 view .LVU575
 2755 0cff BA020000 		movl	$2, %edx
 2755      00
 2756 0d04 4889D9   		movq	%rbx, %rcx
 2757 0d07 FF5328   		call	*40(%rbx)
 2758              	.LVL314:
 386:C:/Users/victim/Documents/GitHub/MrsMajor5.0/UEFI\bootmgfw.c ****             uefi_call_wrapper(ConOut->SetCursorPosition, 1, ConOut, Columns / 2 - 15, Rows / 2 + 2)
 2759              		.loc 1 386 13 view .LVU576
 2760 0d0a 4889D9   		movq	%rbx, %rcx
 2761 0d0d FF5330   		call	*48(%rbx)
 2762              	.LVL315:
 387:C:/Users/victim/Documents/GitHub/MrsMajor5.0/UEFI\bootmgfw.c ****             Print(L"!!!");
 2763              		.loc 1 387 13 view .LVU577
 2764 0d10 4C8D4502 		leaq	2(%rbp), %r8
 2765 0d14 4889FA   		movq	%rdi, %rdx
 2766 0d17 4889D9   		movq	%rbx, %rcx
 2767 0d1a FF5338   		call	*56(%rbx)
 2768              	.LVL316:
 388:C:/Users/victim/Documents/GitHub/MrsMajor5.0/UEFI\bootmgfw.c ****             play_beep(3000, 50000); // Play a higher-pitched beep at 3kHz
 2769              		.loc 1 388 13 view .LVU578
 2770 0d1d 488D0DD8 		leaq	.LC15(%rip), %rcx
 2770      000000
 2771 0d24 E8000000 		call	Print
 2771      00
 2772              	.LVL317:
 389:C:/Users/victim/Documents/GitHub/MrsMajor5.0/UEFI\bootmgfw.c ****         }
 2773              		.loc 1 389 13 view .LVU579
 2774 0d29 BA50C300 		movl	$50000, %edx
 2774      00
 2775 0d2e B9B80B00 		movl	$3000, %ecx
 2775      00
 2776 0d33 E861FEFF 		call	play_beep
 2776      FF
 2777              	.LVL318:
 2778 0d38 E9E6FEFF 		jmp	.L106
 2778      FF
 2779              	.LVL319:
 2780              	.L110:
 389:C:/Users/victim/Documents/GitHub/MrsMajor5.0/UEFI\bootmgfw.c ****         }
 2781              		.loc 1 389 13 is_stmt 0 view .LVU580
 2782              	.LBE81:
 2783              	.LBE79:
 393:C:/Users/victim/Documents/GitHub/MrsMajor5.0/UEFI\bootmgfw.c ****     }
 394:C:/Users/victim/Documents/GitHub/MrsMajor5.0/UEFI\bootmgfw.c **** }
 2784              		.loc 1 394 1 view .LVU581
 2785 0d3d 4883C428 		addq	$40, %rsp
 2786              		.cfi_def_cfa_offset 72
 2787 0d41 5B       		popq	%rbx
 2788              		.cfi_restore 3
 2789              		.cfi_def_cfa_offset 64
 2790              	.LVL320:
 2791              		.loc 1 394 1 view .LVU582
 2792 0d42 5E       		popq	%rsi
 2793              		.cfi_restore 4
 2794              		.cfi_def_cfa_offset 56
 2795              	.LVL321:
 2796              		.loc 1 394 1 view .LVU583
 2797 0d43 5F       		popq	%rdi
 2798              		.cfi_restore 5
 2799              		.cfi_def_cfa_offset 48
 2800 0d44 5D       		popq	%rbp
 2801              		.cfi_restore 6
 2802              		.cfi_def_cfa_offset 40
 2803 0d45 415C     		popq	%r12
 2804              		.cfi_restore 12
 2805              		.cfi_def_cfa_offset 32
 2806              	.LVL322:
 2807              		.loc 1 394 1 view .LVU584
 2808 0d47 415D     		popq	%r13
 2809              		.cfi_restore 13
 2810              		.cfi_def_cfa_offset 24
 2811              	.LVL323:
 2812              		.loc 1 394 1 view .LVU585
 2813 0d49 415E     		popq	%r14
 2814              		.cfi_restore 14
 2815              		.cfi_def_cfa_offset 16
 2816              	.LVL324:
 2817              		.loc 1 394 1 view .LVU586
 2818 0d4b 415F     		popq	%r15
 2819              		.cfi_restore 15
 2820              		.cfi_def_cfa_offset 8
 2821 0d4d C3       		ret
 2822              		.cfi_endproc
 2823              	.LFE22:
 2824              		.seh_endproc
 2825              		.section .rdata,"dr"
 2826              		.align 8
 2827              	.LC16:
 2828 00e0 55006E00 		.ascii "U\0n\0a\0b\0l\0e\0 \0t\0o\0 \0q\0u\0e\0r\0y\0 \0s\0c\0r\0e\0e\0n\0 \0s\0i\0z\0e\0\12\0\0\0
 2828      61006200 
 2828      6C006500 
 2828      20007400 
 2828      6F002000 
 2829 011a 00000000 		.align 8
 2829      0000
 2830              	.LC17:
 2831 0120 4D007200 		.ascii "M\0r\0s\0M\0a\0j\0o\0r\0"
 2831      73004D00 
 2831      61006A00 
 2831      6F007200 
 2832 0130 35002E00 		.ascii "5\0.\0"
 2833 0134 30002000 		.ascii "0\0 \0H\0E\0R\0E\0!\0\0\0"
 2833      48004500 
 2833      52004500 
 2833      21000000 
 2834              		.text
 2835              		.globl	efi_main
 2837              		.seh_proc	efi_main
 2838              	efi_main:
 2839              	.LVL325:
 2840              	.LFB23:
 395:C:/Users/victim/Documents/GitHub/MrsMajor5.0/UEFI\bootmgfw.c **** 
 396:C:/Users/victim/Documents/GitHub/MrsMajor5.0/UEFI\bootmgfw.c **** // Updated Main EFI Entry Point
 397:C:/Users/victim/Documents/GitHub/MrsMajor5.0/UEFI\bootmgfw.c **** EFI_STATUS EFIAPI efi_main(EFI_HANDLE ImageHandle, EFI_SYSTEM_TABLE* SystemTable) {
 2841              		.loc 1 397 83 is_stmt 1 view -0
 2842              		.cfi_startproc
 2843              		.loc 1 397 83 is_stmt 0 view .LVU588
 2844 0d4e 56       		pushq	%rsi
 2845              		.seh_pushreg	%rsi
 2846              		.cfi_def_cfa_offset 16
 2847              		.cfi_offset 4, -16
 2848 0d4f 53       		pushq	%rbx
 2849              		.seh_pushreg	%rbx
 2850              		.cfi_def_cfa_offset 24
 2851              		.cfi_offset 3, -24
 2852 0d50 4883EC48 		subq	$72, %rsp
 2853              		.seh_stackalloc	72
 2854              		.cfi_def_cfa_offset 96
 2855              		.seh_endprologue
 2856 0d54 4889D3   		movq	%rdx, %rbx
 398:C:/Users/victim/Documents/GitHub/MrsMajor5.0/UEFI\bootmgfw.c ****     InitializeLib(ImageHandle, SystemTable);
 2857              		.loc 1 398 5 is_stmt 1 view .LVU589
 2858 0d57 E8000000 		call	InitializeLib
 2858      00
 2859              	.LVL326:
 399:C:/Users/victim/Documents/GitHub/MrsMajor5.0/UEFI\bootmgfw.c **** 
 400:C:/Users/victim/Documents/GitHub/MrsMajor5.0/UEFI\bootmgfw.c ****     // Get screen size (columns and rows)
 401:C:/Users/victim/Documents/GitHub/MrsMajor5.0/UEFI\bootmgfw.c ****     UINTN Columns, Rows;
 2860              		.loc 1 401 5 view .LVU590
 402:C:/Users/victim/Documents/GitHub/MrsMajor5.0/UEFI\bootmgfw.c ****     EFI_STATUS Status = uefi_call_wrapper(SystemTable->ConOut->QueryMode, 4, SystemTable->ConOut, S
 2861              		.loc 1 402 5 view .LVU591
 2862              		.loc 1 402 25 is_stmt 0 view .LVU592
 2863 0d5c 488B4340 		movq	64(%rbx), %rax
 2864 0d60 488B5048 		movq	72(%rax), %rdx
 2865 0d64 48635204 		movslq	4(%rdx), %rdx
 2866 0d68 4C8D4C24 		leaq	48(%rsp), %r9
 2866      30
 2867 0d6d 4C8D4424 		leaq	56(%rsp), %r8
 2867      38
 2868 0d72 4889C1   		movq	%rax, %rcx
 2869 0d75 FF5018   		call	*24(%rax)
 2870              	.LVL327:
 2871 0d78 4889C6   		movq	%rax, %rsi
 2872              	.LVL328:
 403:C:/Users/victim/Documents/GitHub/MrsMajor5.0/UEFI\bootmgfw.c ****     if (EFI_ERROR(Status)) {
 2873              		.loc 1 403 5 is_stmt 1 view .LVU593
 2874              		.loc 1 403 8 is_stmt 0 view .LVU594
 2875 0d7b 4885C0   		testq	%rax, %rax
 2876 0d7e 0F882002 		js	.L114
 2876      0000
 404:C:/Users/victim/Documents/GitHub/MrsMajor5.0/UEFI\bootmgfw.c ****         Print(L"Unable to query screen size\n");
 405:C:/Users/victim/Documents/GitHub/MrsMajor5.0/UEFI\bootmgfw.c ****         return Status;
 406:C:/Users/victim/Documents/GitHub/MrsMajor5.0/UEFI\bootmgfw.c ****     }
 407:C:/Users/victim/Documents/GitHub/MrsMajor5.0/UEFI\bootmgfw.c **** 
 408:C:/Users/victim/Documents/GitHub/MrsMajor5.0/UEFI\bootmgfw.c ****     // Effect Duration
 409:C:/Users/victim/Documents/GitHub/MrsMajor5.0/UEFI\bootmgfw.c ****     UINTN effectDuration = 10000000; // Duration for all effects (in microseconds)
 2877              		.loc 1 409 5 is_stmt 1 view .LVU595
 2878              	.LVL329:
 410:C:/Users/victim/Documents/GitHub/MrsMajor5.0/UEFI\bootmgfw.c **** 
 411:C:/Users/victim/Documents/GitHub/MrsMajor5.0/UEFI\bootmgfw.c ****     // Run visual effects with dramatic sound effect simulation
 412:C:/Users/victim/Documents/GitHub/MrsMajor5.0/UEFI\bootmgfw.c ****     rotating_characters_all_colors(SystemTable);
 2879              		.loc 1 412 5 view .LVU596
 2880 0d84 4889D9   		movq	%rbx, %rcx
 2881 0d87 E8B0F4FF 		call	rotating_characters_all_colors
 2881      FF
 2882              	.LVL330:
 413:C:/Users/victim/Documents/GitHub/MrsMajor5.0/UEFI\bootmgfw.c ****     dramatic_sound_effects(SystemTable, Columns, Rows, effectDuration);
 2883              		.loc 1 413 5 view .LVU597
 2884 0d8c 41B98096 		movl	$10000000, %r9d
 2884      9800
 2885 0d92 4C8B4424 		movq	48(%rsp), %r8
 2885      30
 2886 0d97 488B5424 		movq	56(%rsp), %rdx
 2886      38
 2887 0d9c 4889D9   		movq	%rbx, %rcx
 2888 0d9f E839FEFF 		call	dramatic_sound_effects
 2888      FF
 2889              	.LVL331:
 414:C:/Users/victim/Documents/GitHub/MrsMajor5.0/UEFI\bootmgfw.c **** 
 415:C:/Users/victim/Documents/GitHub/MrsMajor5.0/UEFI\bootmgfw.c ****     complex_blur(SystemTable, L"MrsMajor5.0 HERE!", 10, 10);
 2890              		.loc 1 415 5 view .LVU598
 2891 0da4 41B90A00 		movl	$10, %r9d
 2891      0000
 2892 0daa 41B80A00 		movl	$10, %r8d
 2892      0000
 2893 0db0 488D3520 		leaq	.LC17(%rip), %rsi
 2893      010000
 2894              	.LVL332:
 2895              		.loc 1 415 5 is_stmt 0 view .LVU599
 2896 0db7 4889F2   		movq	%rsi, %rdx
 2897 0dba 4889D9   		movq	%rbx, %rcx
 2898 0dbd E843F6FF 		call	complex_blur
 2898      FF
 2899              	.LVL333:
 416:C:/Users/victim/Documents/GitHub/MrsMajor5.0/UEFI\bootmgfw.c ****     dramatic_sound_effects(SystemTable, Columns, Rows, effectDuration);
 2900              		.loc 1 416 5 is_stmt 1 view .LVU600
 2901 0dc2 41B98096 		movl	$10000000, %r9d
 2901      9800
 2902 0dc8 4C8B4424 		movq	48(%rsp), %r8
 2902      30
 2903 0dcd 488B5424 		movq	56(%rsp), %rdx
 2903      38
 2904 0dd2 4889D9   		movq	%rbx, %rcx
 2905 0dd5 E803FEFF 		call	dramatic_sound_effects
 2905      FF
 2906              	.LVL334:
 417:C:/Users/victim/Documents/GitHub/MrsMajor5.0/UEFI\bootmgfw.c **** 
 418:C:/Users/victim/Documents/GitHub/MrsMajor5.0/UEFI\bootmgfw.c ****     pixel_rain(SystemTable, Columns, Rows);
 2907              		.loc 1 418 5 view .LVU601
 2908 0dda 4C8B4424 		movq	48(%rsp), %r8
 2908      30
 2909 0ddf 488B5424 		movq	56(%rsp), %rdx
 2909      38
 2910 0de4 4889D9   		movq	%rbx, %rcx
 2911 0de7 E820F7FF 		call	pixel_rain
 2911      FF
 2912              	.LVL335:
 419:C:/Users/victim/Documents/GitHub/MrsMajor5.0/UEFI\bootmgfw.c ****     dramatic_sound_effects(SystemTable, Columns, Rows, effectDuration);
 2913              		.loc 1 419 5 view .LVU602
 2914 0dec 41B98096 		movl	$10000000, %r9d
 2914      9800
 2915 0df2 4C8B4424 		movq	48(%rsp), %r8
 2915      30
 2916 0df7 488B5424 		movq	56(%rsp), %rdx
 2916      38
 2917 0dfc 4889D9   		movq	%rbx, %rcx
 2918 0dff E8D9FDFF 		call	dramatic_sound_effects
 2918      FF
 2919              	.LVL336:
 420:C:/Users/victim/Documents/GitHub/MrsMajor5.0/UEFI\bootmgfw.c **** 
 421:C:/Users/victim/Documents/GitHub/MrsMajor5.0/UEFI\bootmgfw.c ****     wave_animation(SystemTable, L"MrsMajor5.0 HERE!", 0, 10, 2);
 2920              		.loc 1 421 5 view .LVU603
 2921 0e04 48C74424 		movq	$2, 32(%rsp)
 2921      20020000 
 2921      00
 2922 0e0d 41B90A00 		movl	$10, %r9d
 2922      0000
 2923 0e13 41B80000 		movl	$0, %r8d
 2923      0000
 2924 0e19 4889F2   		movq	%rsi, %rdx
 2925 0e1c 4889D9   		movq	%rbx, %rcx
 2926 0e1f E877F7FF 		call	wave_animation
 2926      FF
 2927              	.LVL337:
 422:C:/Users/victim/Documents/GitHub/MrsMajor5.0/UEFI\bootmgfw.c ****     dramatic_sound_effects(SystemTable, Columns, Rows, effectDuration);
 2928              		.loc 1 422 5 view .LVU604
 2929 0e24 41B98096 		movl	$10000000, %r9d
 2929      9800
 2930 0e2a 4C8B4424 		movq	48(%rsp), %r8
 2930      30
 2931 0e2f 488B5424 		movq	56(%rsp), %rdx
 2931      38
 2932 0e34 4889D9   		movq	%rbx, %rcx
 2933 0e37 E8A1FDFF 		call	dramatic_sound_effects
 2933      FF
 2934              	.LVL338:
 423:C:/Users/victim/Documents/GitHub/MrsMajor5.0/UEFI\bootmgfw.c **** 
 424:C:/Users/victim/Documents/GitHub/MrsMajor5.0/UEFI\bootmgfw.c ****     text_explosion(SystemTable, L"MrsMajor5.0 HERE!", Columns / 2, Rows / 2);
 2935              		.loc 1 424 5 view .LVU605
 2936 0e3c 4C8B4C24 		movq	48(%rsp), %r9
 2936      30
 2937 0e41 49D1E9   		shrq	%r9
 2938 0e44 4C8B4424 		movq	56(%rsp), %r8
 2938      38
 2939 0e49 49D1E8   		shrq	%r8
 2940 0e4c 4889F2   		movq	%rsi, %rdx
 2941 0e4f 4889D9   		movq	%rbx, %rcx
 2942 0e52 E813F8FF 		call	text_explosion
 2942      FF
 2943              	.LVL339:
 425:C:/Users/victim/Documents/GitHub/MrsMajor5.0/UEFI\bootmgfw.c ****     dramatic_sound_effects(SystemTable, Columns, Rows, effectDuration);
 2944              		.loc 1 425 5 view .LVU606
 2945 0e57 41B98096 		movl	$10000000, %r9d
 2945      9800
 2946 0e5d 4C8B4424 		movq	48(%rsp), %r8
 2946      30
 2947 0e62 488B5424 		movq	56(%rsp), %rdx
 2947      38
 2948 0e67 4889D9   		movq	%rbx, %rcx
 2949 0e6a E86EFDFF 		call	dramatic_sound_effects
 2949      FF
 2950              	.LVL340:
 426:C:/Users/victim/Documents/GitHub/MrsMajor5.0/UEFI\bootmgfw.c **** 
 427:C:/Users/victim/Documents/GitHub/MrsMajor5.0/UEFI\bootmgfw.c ****     fading_text(SystemTable, L"MrsMajor5.0 HERE!", 5, 5);
 2951              		.loc 1 427 5 view .LVU607
 2952 0e6f 41B90500 		movl	$5, %r9d
 2952      0000
 2953 0e75 41B80500 		movl	$5, %r8d
 2953      0000
 2954 0e7b 4889F2   		movq	%rsi, %rdx
 2955 0e7e 4889D9   		movq	%rbx, %rcx
 2956 0e81 E88FF8FF 		call	fading_text
 2956      FF
 2957              	.LVL341:
 428:C:/Users/victim/Documents/GitHub/MrsMajor5.0/UEFI\bootmgfw.c ****     dramatic_sound_effects(SystemTable, Columns, Rows, effectDuration);
 2958              		.loc 1 428 5 view .LVU608
 2959 0e86 41B98096 		movl	$10000000, %r9d
 2959      9800
 2960 0e8c 4C8B4424 		movq	48(%rsp), %r8
 2960      30
 2961 0e91 488B5424 		movq	56(%rsp), %rdx
 2961      38
 2962 0e96 4889D9   		movq	%rbx, %rcx
 2963 0e99 E83FFDFF 		call	dramatic_sound_effects
 2963      FF
 2964              	.LVL342:
 429:C:/Users/victim/Documents/GitHub/MrsMajor5.0/UEFI\bootmgfw.c **** 
 430:C:/Users/victim/Documents/GitHub/MrsMajor5.0/UEFI\bootmgfw.c ****     grid_animation(SystemTable, Columns, Rows);
 2965              		.loc 1 430 5 view .LVU609
 2966 0e9e 4C8B4424 		movq	48(%rsp), %r8
 2966      30
 2967 0ea3 488B5424 		movq	56(%rsp), %rdx
 2967      38
 2968 0ea8 4889D9   		movq	%rbx, %rcx
 2969 0eab E8D5F8FF 		call	grid_animation
 2969      FF
 2970              	.LVL343:
 431:C:/Users/victim/Documents/GitHub/MrsMajor5.0/UEFI\bootmgfw.c ****     dramatic_sound_effects(SystemTable, Columns, Rows, effectDuration);
 2971              		.loc 1 431 5 view .LVU610
 2972 0eb0 41B98096 		movl	$10000000, %r9d
 2972      9800
 2973 0eb6 4C8B4424 		movq	48(%rsp), %r8
 2973      30
 2974 0ebb 488B5424 		movq	56(%rsp), %rdx
 2974      38
 2975 0ec0 4889D9   		movq	%rbx, %rcx
 2976 0ec3 E815FDFF 		call	dramatic_sound_effects
 2976      FF
 2977              	.LVL344:
 432:C:/Users/victim/Documents/GitHub/MrsMajor5.0/UEFI\bootmgfw.c **** 
 433:C:/Users/victim/Documents/GitHub/MrsMajor5.0/UEFI\bootmgfw.c ****     matrix_text_fall(SystemTable, Columns, Rows);
 2978              		.loc 1 433 5 view .LVU611
 2979 0ec8 4C8B4424 		movq	48(%rsp), %r8
 2979      30
 2980 0ecd 488B5424 		movq	56(%rsp), %rdx
 2980      38
 2981 0ed2 4889D9   		movq	%rbx, %rcx
 2982 0ed5 E837F9FF 		call	matrix_text_fall
 2982      FF
 2983              	.LVL345:
 434:C:/Users/victim/Documents/GitHub/MrsMajor5.0/UEFI\bootmgfw.c ****     dramatic_sound_effects(SystemTable, Columns, Rows, effectDuration);
 2984              		.loc 1 434 5 view .LVU612
 2985 0eda 41B98096 		movl	$10000000, %r9d
 2985      9800
 2986 0ee0 4C8B4424 		movq	48(%rsp), %r8
 2986      30
 2987 0ee5 488B5424 		movq	56(%rsp), %rdx
 2987      38
 2988 0eea 4889D9   		movq	%rbx, %rcx
 2989 0eed E8EBFCFF 		call	dramatic_sound_effects
 2989      FF
 2990              	.LVL346:
 435:C:/Users/victim/Documents/GitHub/MrsMajor5.0/UEFI\bootmgfw.c **** 
 436:C:/Users/victim/Documents/GitHub/MrsMajor5.0/UEFI\bootmgfw.c ****     color_shifting(SystemTable);
 2991              		.loc 1 436 5 view .LVU613
 2992 0ef2 4889D9   		movq	%rbx, %rcx
 2993 0ef5 E8D6F9FF 		call	color_shifting
 2993      FF
 2994              	.LVL347:
 437:C:/Users/victim/Documents/GitHub/MrsMajor5.0/UEFI\bootmgfw.c ****     dramatic_sound_effects(SystemTable, Columns, Rows, effectDuration);
 2995              		.loc 1 437 5 view .LVU614
 2996 0efa 41B98096 		movl	$10000000, %r9d
 2996      9800
 2997 0f00 4C8B4424 		movq	48(%rsp), %r8
 2997      30
 2998 0f05 488B5424 		movq	56(%rsp), %rdx
 2998      38
 2999 0f0a 4889D9   		movq	%rbx, %rcx
 3000 0f0d E8CBFCFF 		call	dramatic_sound_effects
 3000      FF
 3001              	.LVL348:
 438:C:/Users/victim/Documents/GitHub/MrsMajor5.0/UEFI\bootmgfw.c **** 
 439:C:/Users/victim/Documents/GitHub/MrsMajor5.0/UEFI\bootmgfw.c ****     flickering_text(SystemTable, L"MrsMajor5.0 HERE!", 20, 10);
 3002              		.loc 1 439 5 view .LVU615
 3003 0f12 41B90A00 		movl	$10, %r9d
 3003      0000
 3004 0f18 41B81400 		movl	$20, %r8d
 3004      0000
 3005 0f1e 4889F2   		movq	%rsi, %rdx
 3006 0f21 4889D9   		movq	%rbx, %rcx
 3007 0f24 E805FAFF 		call	flickering_text
 3007      FF
 3008              	.LVL349:
 440:C:/Users/victim/Documents/GitHub/MrsMajor5.0/UEFI\bootmgfw.c ****     dramatic_sound_effects(SystemTable, Columns, Rows, effectDuration);
 3009              		.loc 1 440 5 view .LVU616
 3010 0f29 41B98096 		movl	$10000000, %r9d
 3010      9800
 3011 0f2f 4C8B4424 		movq	48(%rsp), %r8
 3011      30
 3012 0f34 488B5424 		movq	56(%rsp), %rdx
 3012      38
 3013 0f39 4889D9   		movq	%rbx, %rcx
 3014 0f3c E89CFCFF 		call	dramatic_sound_effects
 3014      FF
 3015              	.LVL350:
 441:C:/Users/victim/Documents/GitHub/MrsMajor5.0/UEFI\bootmgfw.c **** 
 442:C:/Users/victim/Documents/GitHub/MrsMajor5.0/UEFI\bootmgfw.c ****     flashing_borders(SystemTable, Columns, Rows);
 3016              		.loc 1 442 5 view .LVU617
 3017 0f41 4C8B4424 		movq	48(%rsp), %r8
 3017      30
 3018 0f46 488B5424 		movq	56(%rsp), %rdx
 3018      38
 3019 0f4b 4889D9   		movq	%rbx, %rcx
 3020 0f4e E855FAFF 		call	flashing_borders
 3020      FF
 3021              	.LVL351:
 443:C:/Users/victim/Documents/GitHub/MrsMajor5.0/UEFI\bootmgfw.c ****     dramatic_sound_effects(SystemTable, Columns, Rows, effectDuration);
 3022              		.loc 1 443 5 view .LVU618
 3023 0f53 41B98096 		movl	$10000000, %r9d
 3023      9800
 3024 0f59 4C8B4424 		movq	48(%rsp), %r8
 3024      30
 3025 0f5e 488B5424 		movq	56(%rsp), %rdx
 3025      38
 3026 0f63 4889D9   		movq	%rbx, %rcx
 3027 0f66 E872FCFF 		call	dramatic_sound_effects
 3027      FF
 3028              	.LVL352:
 444:C:/Users/victim/Documents/GitHub/MrsMajor5.0/UEFI\bootmgfw.c **** 
 445:C:/Users/victim/Documents/GitHub/MrsMajor5.0/UEFI\bootmgfw.c ****     random_patterns_symbols(SystemTable, Columns, Rows);
 3029              		.loc 1 445 5 view .LVU619
 3030 0f6b 4C8B4424 		movq	48(%rsp), %r8
 3030      30
 3031 0f70 488B5424 		movq	56(%rsp), %rdx
 3031      38
 3032 0f75 4889D9   		movq	%rbx, %rcx
 3033 0f78 E821FBFF 		call	random_patterns_symbols
 3033      FF
 3034              	.LVL353:
 446:C:/Users/victim/Documents/GitHub/MrsMajor5.0/UEFI\bootmgfw.c ****     dramatic_sound_effects(SystemTable, Columns, Rows, effectDuration);
 3035              		.loc 1 446 5 view .LVU620
 3036 0f7d 41B98096 		movl	$10000000, %r9d
 3036      9800
 3037 0f83 4C8B4424 		movq	48(%rsp), %r8
 3037      30
 3038 0f88 488B5424 		movq	56(%rsp), %rdx
 3038      38
 3039 0f8d 4889D9   		movq	%rbx, %rcx
 3040 0f90 E848FCFF 		call	dramatic_sound_effects
 3040      FF
 3041              	.LVL354:
 447:C:/Users/victim/Documents/GitHub/MrsMajor5.0/UEFI\bootmgfw.c **** 
 448:C:/Users/victim/Documents/GitHub/MrsMajor5.0/UEFI\bootmgfw.c ****     return EFI_SUCCESS;
 3042              		.loc 1 448 5 view .LVU621
 3043              		.loc 1 448 12 is_stmt 0 view .LVU622
 3044 0f95 BE000000 		movl	$0, %esi
 3044      00
 3045              	.LVL355:
 3046              	.L111:
 449:C:/Users/victim/Documents/GitHub/MrsMajor5.0/UEFI\bootmgfw.c **** }
 3047              		.loc 1 449 1 view .LVU623
 3048 0f9a 4889F0   		movq	%rsi, %rax
 3049 0f9d 4883C448 		addq	$72, %rsp
 3050              		.cfi_remember_state
 3051              		.cfi_def_cfa_offset 24
 3052 0fa1 5B       		popq	%rbx
 3053              		.cfi_restore 3
 3054              		.cfi_def_cfa_offset 16
 3055              	.LVL356:
 3056              		.loc 1 449 1 view .LVU624
 3057 0fa2 5E       		popq	%rsi
 3058              		.cfi_restore 4
 3059              		.cfi_def_cfa_offset 8
 3060 0fa3 C3       		ret
 3061              	.LVL357:
 3062              	.L114:
 3063              		.cfi_restore_state
 404:C:/Users/victim/Documents/GitHub/MrsMajor5.0/UEFI\bootmgfw.c ****         return Status;
 3064              		.loc 1 404 9 is_stmt 1 view .LVU625
 3065 0fa4 488D0DE0 		leaq	.LC16(%rip), %rcx
 3065      000000
 3066 0fab E8000000 		call	Print
 3066      00
 3067              	.LVL358:
 405:C:/Users/victim/Documents/GitHub/MrsMajor5.0/UEFI\bootmgfw.c ****     }
 3068              		.loc 1 405 9 view .LVU626
 405:C:/Users/victim/Documents/GitHub/MrsMajor5.0/UEFI\bootmgfw.c ****     }
 3069              		.loc 1 405 16 is_stmt 0 view .LVU627
 3070 0fb0 EBE8     		jmp	.L111
 3071              		.cfi_endproc
 3072              	.LFE23:
 3073              		.seh_endproc
 3074              		.data
 3075              		.align 4
 3076              	seed:
 3077 0000 39300000 		.long	12345
 3078 0004 00000000 		.section .rdata,"dr"
 3078      00000000 
 3078      00000000 
 3079 0144 00000000 		.align 16
 3079      00000000 
 3079      00000000 
 3080              	.LC1:
 3081 0150 00000000 		.long	0
 3082 0154 00000080 		.long	-2147483648
 3083 0158 00000000 		.long	0
 3084 015c 00000000 		.long	0
 3085              		.align 8
 3086              	.LC2:
 3087 0160 182D4454 		.long	1413754136
 3088 0164 FB210940 		.long	1074340347
 3089              		.align 8
 3090              	.LC3:
 3091 0168 00000000 		.long	0
 3092 016c 00806640 		.long	1080459264
 3093              		.align 8
 3094              	.LC4:
 3095 0170 BBBDD7D9 		.long	-640172613
 3096 0174 DF7CDB3D 		.long	1037794527
 3097              		.align 8
 3098              	.LC5:
 3099 0178 00000000 		.long	0
 3100 017c 00002440 		.long	1076101120
 3101              		.text
 3102              	.Letext0:
 3103              		.file 2 "C:/Users/victim/Documents/GitHub/MrsMajor5.0/UEFI/Backend/mingw64/lib/gcc/x86_64-w64-ming
 3104              		.file 3 "C:/Users/victim/Documents/GitHub/MrsMajor5.0/UEFI/Backend/mingw64/include/corecrt.h"
 3105              		.file 4 "gnu-efi-3.0.18/inc/x86_64/efibind.h"
 3106              		.file 5 "gnu-efi-3.0.18/inc/efidef.h"
 3107              		.file 6 "gnu-efi-3.0.18/inc/efidevp.h"
 3108              		.file 7 "gnu-efi-3.0.18/inc/efiprot.h"
 3109              		.file 8 "gnu-efi-3.0.18/inc/efiapi.h"
 3110              		.file 9 "gnu-efi-3.0.18/inc/eficon.h"
 3111              		.file 10 "gnu-efi-3.0.18/inc/efilib.h"
 3112 0fb2 90909090 		.section	.debug_info,"dr"
 3112      90909090 
 3112      90909090 
 3112      9090
 3113              	.Ldebug_info0:
 3114 0000 EA430000 		.long	0x43ea
 3115 0004 0500     		.word	0x5
 3116 0006 01       		.byte	0x1
 3117 0007 08       		.byte	0x8
 3118 0008 00000000 		.secrel32	.Ldebug_abbrev0
 3119 000c 36       		.uleb128 0x36
 3120 000d 474E5520 		.ascii "GNU C11 14.2.0 -mno-stack-arg-probe -m64 -mno-red-zone -maccumulate-outgoing-args -mtune=g
 3120      43313120 
 3120      31342E32 
 3120      2E30202D 
 3120      6D6E6F2D 
 3121 0111 1D       		.byte	0x1d
 3122 0112 00000000 		.secrel32	.LASF0
 3123 0116 3D000000 		.secrel32	.LASF1
 3124 011a 00000000 		.quad	.Ltext0
 3124      00000000 
 3125 0122 B20F0000 		.quad	.Letext0-.Ltext0
 3125      00000000 
 3126 012a 00000000 		.secrel32	.Ldebug_line0
 3127 012e 00000000 		.secrel32	.Ldebug_macro0
 3128 0132 14       		.uleb128 0x14
 3129 0133 08       		.byte	0x8
 3130 0134 04       		.byte	0x4
 3131 0135 646F7562 		.ascii "double\0"
 3131      6C6500
 3132 013c 14       		.uleb128 0x14
 3133 013d 08       		.byte	0x8
 3134 013e 07       		.byte	0x7
 3135 013f 6C6F6E67 		.ascii "long long unsigned int\0"
 3135      206C6F6E 
 3135      6720756E 
 3135      7369676E 
 3135      65642069 
 3136 0156 14       		.uleb128 0x14
 3137 0157 01       		.byte	0x1
 3138 0158 06       		.byte	0x6
 3139 0159 7369676E 		.ascii "signed char\0"
 3139      65642063 
 3139      68617200 
 3140 0165 05       		.uleb128 0x5
 3141 0166 696E7431 		.ascii "int16_t\0"
 3141      365F7400 
 3142 016e 02       		.byte	0x2
 3143 016f 25       		.byte	0x25
 3144 0170 18       		.byte	0x18
 3145 0171 75010000 		.long	0x175
 3146 0175 14       		.uleb128 0x14
 3147 0176 02       		.byte	0x2
 3148 0177 05       		.byte	0x5
 3149 0178 73686F72 		.ascii "short int\0"
 3149      7420696E 
 3149      7400
 3150 0182 05       		.uleb128 0x5
 3151 0183 696E7433 		.ascii "int32_t\0"
 3151      325F7400 
 3152 018b 02       		.byte	0x2
 3153 018c 28       		.byte	0x28
 3154 018d 18       		.byte	0x18
 3155 018e 92010000 		.long	0x192
 3156 0192 14       		.uleb128 0x14
 3157 0193 04       		.byte	0x4
 3158 0194 05       		.byte	0x5
 3159 0195 696E7400 		.ascii "int\0"
 3160 0199 05       		.uleb128 0x5
 3161 019a 696E7436 		.ascii "int64_t\0"
 3161      345F7400 
 3162 01a2 02       		.byte	0x2
 3163 01a3 2B       		.byte	0x2b
 3164 01a4 18       		.byte	0x18
 3165 01a5 A9010000 		.long	0x1a9
 3166 01a9 14       		.uleb128 0x14
 3167 01aa 08       		.byte	0x8
 3168 01ab 05       		.byte	0x5
 3169 01ac 6C6F6E67 		.ascii "long long int\0"
 3169      206C6F6E 
 3169      6720696E 
 3169      7400
 3170 01ba 05       		.uleb128 0x5
 3171 01bb 75696E74 		.ascii "uint8_t\0"
 3171      385F7400 
 3172 01c3 02       		.byte	0x2
 3173 01c4 2E       		.byte	0x2e
 3174 01c5 18       		.byte	0x18
 3175 01c6 CA010000 		.long	0x1ca
 3176 01ca 14       		.uleb128 0x14
 3177 01cb 01       		.byte	0x1
 3178 01cc 08       		.byte	0x8
 3179 01cd 756E7369 		.ascii "unsigned char\0"
 3179      676E6564 
 3179      20636861 
 3179      7200
 3180 01db 05       		.uleb128 0x5
 3181 01dc 75696E74 		.ascii "uint16_t\0"
 3181      31365F74 
 3181      00
 3182 01e5 02       		.byte	0x2
 3183 01e6 31       		.byte	0x31
 3184 01e7 19       		.byte	0x19
 3185 01e8 EC010000 		.long	0x1ec
 3186 01ec 14       		.uleb128 0x14
 3187 01ed 02       		.byte	0x2
 3188 01ee 07       		.byte	0x7
 3189 01ef 73686F72 		.ascii "short unsigned int\0"
 3189      7420756E 
 3189      7369676E 
 3189      65642069 
 3189      6E7400
 3190 0202 05       		.uleb128 0x5
 3191 0203 75696E74 		.ascii "uint32_t\0"
 3191      33325F74 
 3191      00
 3192 020c 02       		.byte	0x2
 3193 020d 34       		.byte	0x34
 3194 020e 19       		.byte	0x19
 3195 020f 13020000 		.long	0x213
 3196 0213 14       		.uleb128 0x14
 3197 0214 04       		.byte	0x4
 3198 0215 07       		.byte	0x7
 3199 0216 756E7369 		.ascii "unsigned int\0"
 3199      676E6564 
 3199      20696E74 
 3199      00
 3200 0223 05       		.uleb128 0x5
 3201 0224 75696E74 		.ascii "uint64_t\0"
 3201      36345F74 
 3201      00
 3202 022d 02       		.byte	0x2
 3203 022e 37       		.byte	0x37
 3204 022f 19       		.byte	0x19
 3205 0230 3C010000 		.long	0x13c
 3206 0234 14       		.uleb128 0x14
 3207 0235 01       		.byte	0x1
 3208 0236 06       		.byte	0x6
 3209 0237 63686172 		.ascii "char\0"
 3209      00
 3210 023c 05       		.uleb128 0x5
 3211 023d 77636861 		.ascii "wchar_t\0"
 3211      725F7400 
 3212 0245 03       		.byte	0x3
 3213 0246 62       		.byte	0x62
 3214 0247 18       		.byte	0x18
 3215 0248 EC010000 		.long	0x1ec
 3216 024c 14       		.uleb128 0x14
 3217 024d 04       		.byte	0x4
 3218 024e 05       		.byte	0x5
 3219 024f 6C6F6E67 		.ascii "long int\0"
 3219      20696E74 
 3219      00
 3220 0258 14       		.uleb128 0x14
 3221 0259 04       		.byte	0x4
 3222 025a 07       		.byte	0x7
 3223 025b 6C6F6E67 		.ascii "long unsigned int\0"
 3223      20756E73 
 3223      69676E65 
 3223      6420696E 
 3223      7400
 3224 026d 14       		.uleb128 0x14
 3225 026e 10       		.byte	0x10
 3226 026f 04       		.byte	0x4
 3227 0270 6C6F6E67 		.ascii "long double\0"
 3227      20646F75 
 3227      626C6500 
 3228 027c 05       		.uleb128 0x5
 3229 027d 43484152 		.ascii "CHAR16\0"
 3229      313600
 3230 0284 04       		.byte	0x4
 3231 0285 65       		.byte	0x65
 3232 0286 11       		.byte	0x11
 3233 0287 3C020000 		.long	0x23c
 3234 028b 25       		.uleb128 0x25
 3235 028c 7C020000 		.long	0x27c
 3236 0290 05       		.uleb128 0x5
 3237 0291 55494E54 		.ascii "UINT64\0"
 3237      363400
 3238 0298 04       		.byte	0x4
 3239 0299 68       		.byte	0x68
 3240 029a 14       		.byte	0x14
 3241 029b 23020000 		.long	0x223
 3242 029f 05       		.uleb128 0x5
 3243 02a0 55494E54 		.ascii "UINT32\0"
 3243      333200
 3244 02a7 04       		.byte	0x4
 3245 02a8 6C       		.byte	0x6c
 3246 02a9 18       		.byte	0x18
 3247 02aa 02020000 		.long	0x202
 3248 02ae 05       		.uleb128 0x5
 3249 02af 494E5433 		.ascii "INT32\0"
 3249      3200
 3250 02b5 04       		.byte	0x4
 3251 02b6 6D       		.byte	0x6d
 3252 02b7 18       		.byte	0x18
 3253 02b8 82010000 		.long	0x182
 3254 02bc 05       		.uleb128 0x5
 3255 02bd 55494E54 		.ascii "UINT16\0"
 3255      313600
 3256 02c4 04       		.byte	0x4
 3257 02c5 70       		.byte	0x70
 3258 02c6 14       		.byte	0x14
 3259 02c7 DB010000 		.long	0x1db
 3260 02cb 05       		.uleb128 0x5
 3261 02cc 494E5431 		.ascii "INT16\0"
 3261      3600
 3262 02d2 04       		.byte	0x4
 3263 02d3 71       		.byte	0x71
 3264 02d4 14       		.byte	0x14
 3265 02d5 65010000 		.long	0x165
 3266 02d9 05       		.uleb128 0x5
 3267 02da 55494E54 		.ascii "UINT8\0"
 3267      3800
 3268 02e0 04       		.byte	0x4
 3269 02e1 73       		.byte	0x73
 3270 02e2 14       		.byte	0x14
 3271 02e3 BA010000 		.long	0x1ba
 3272 02e7 37       		.uleb128 0x37
 3273 02e8 564F4944 		.ascii "VOID\0"
 3273      00
 3274 02ed 04       		.byte	0x4
 3275 02ee 78       		.byte	0x78
 3276 02ef 14       		.byte	0x14
 3277 02f0 25       		.uleb128 0x25
 3278 02f1 E7020000 		.long	0x2e7
 3279 02f5 05       		.uleb128 0x5
 3280 02f6 494E544E 		.ascii "INTN\0"
 3280      00
 3281 02fb 04       		.byte	0x4
 3282 02fc 7B       		.byte	0x7b
 3283 02fd 14       		.byte	0x14
 3284 02fe 99010000 		.long	0x199
 3285 0302 05       		.uleb128 0x5
 3286 0303 55494E54 		.ascii "UINTN\0"
 3286      4E00
 3287 0309 04       		.byte	0x4
 3288 030a 7C       		.byte	0x7c
 3289 030b 14       		.byte	0x14
 3290 030c 23020000 		.long	0x223
 3291 0310 38       		.uleb128 0x38
 3292 0311 02030000 		.long	0x302
 3293 0315 05       		.uleb128 0x5
 3294 0316 424F4F4C 		.ascii "BOOLEAN\0"
 3294      45414E00 
 3295 031e 05       		.byte	0x5
 3296 031f 19       		.byte	0x19
 3297 0320 0F       		.byte	0xf
 3298 0321 25030000 		.long	0x325
 3299 0325 14       		.uleb128 0x14
 3300 0326 01       		.byte	0x1
 3301 0327 02       		.byte	0x2
 3302 0328 5F426F6F 		.ascii "_Bool\0"
 3302      6C00
 3303 032e 05       		.uleb128 0x5
 3304 032f 4546495F 		.ascii "EFI_STATUS\0"
 3304      53544154 
 3304      555300
 3305 033a 05       		.byte	0x5
 3306 033b 3A       		.byte	0x3a
 3307 033c 19       		.byte	0x19
 3308 033d 02030000 		.long	0x302
 3309 0341 05       		.uleb128 0x5
 3310 0342 4546495F 		.ascii "EFI_TPL\0"
 3310      54504C00 
 3311 034a 05       		.byte	0x5
 3312 034b 3C       		.byte	0x3c
 3313 034c 19       		.byte	0x19
 3314 034d 02030000 		.long	0x302
 3315 0351 05       		.uleb128 0x5
 3316 0352 4546495F 		.ascii "EFI_HANDLE\0"
 3316      48414E44 
 3316      4C4500
 3317 035d 05       		.byte	0x5
 3318 035e 3D       		.byte	0x3d
 3319 035f 1A       		.byte	0x1a
 3320 0360 64030000 		.long	0x364
 3321 0364 03       		.uleb128 0x3
 3322 0365 E7020000 		.long	0x2e7
 3323 0369 05       		.uleb128 0x5
 3324 036a 4546495F 		.ascii "EFI_EVENT\0"
 3324      4556454E 
 3324      5400
 3325 0374 05       		.byte	0x5
 3326 0375 3E       		.byte	0x3e
 3327 0376 1A       		.byte	0x1a
 3328 0377 64030000 		.long	0x364
 3329 037b 1B       		.uleb128 0x1b
 3330 037c 10       		.byte	0x10
 3331 037d 05       		.byte	0x5
 3332 037e 55       		.byte	0x55
 3333 037f C0030000 		.long	0x3c0
 3334 0383 09       		.uleb128 0x9
 3335 0384 44617461 		.ascii "Data1\0"
 3335      3100
 3336 038a 05       		.byte	0x5
 3337 038b 56       		.byte	0x56
 3338 038c 0D       		.byte	0xd
 3339 038d 9F020000 		.long	0x29f
 3340 0391 00       		.byte	0
 3341 0392 09       		.uleb128 0x9
 3342 0393 44617461 		.ascii "Data2\0"
 3342      3200
 3343 0399 05       		.byte	0x5
 3344 039a 57       		.byte	0x57
 3345 039b 0D       		.byte	0xd
 3346 039c BC020000 		.long	0x2bc
 3347 03a0 04       		.byte	0x4
 3348 03a1 09       		.uleb128 0x9
 3349 03a2 44617461 		.ascii "Data3\0"
 3349      3300
 3350 03a8 05       		.byte	0x5
 3351 03a9 58       		.byte	0x58
 3352 03aa 0D       		.byte	0xd
 3353 03ab BC020000 		.long	0x2bc
 3354 03af 06       		.byte	0x6
 3355 03b0 09       		.uleb128 0x9
 3356 03b1 44617461 		.ascii "Data4\0"
 3356      3400
 3357 03b7 05       		.byte	0x5
 3358 03b8 59       		.byte	0x59
 3359 03b9 0D       		.byte	0xd
 3360 03ba C0030000 		.long	0x3c0
 3361 03be 08       		.byte	0x8
 3362 03bf 00       		.byte	0
 3363 03c0 1D       		.uleb128 0x1d
 3364 03c1 D9020000 		.long	0x2d9
 3365 03c5 D0030000 		.long	0x3d0
 3366 03c9 1E       		.uleb128 0x1e
 3367 03ca 3C010000 		.long	0x13c
 3368 03ce 07       		.byte	0x7
 3369 03cf 00       		.byte	0
 3370 03d0 05       		.uleb128 0x5
 3371 03d1 4546495F 		.ascii "EFI_GUID\0"
 3371      47554944 
 3371      00
 3372 03da 05       		.byte	0x5
 3373 03db 5A       		.byte	0x5a
 3374 03dc 03       		.byte	0x3
 3375 03dd 7B030000 		.long	0x37b
 3376 03e1 25       		.uleb128 0x25
 3377 03e2 D0030000 		.long	0x3d0
 3378 03e6 1B       		.uleb128 0x1b
 3379 03e7 10       		.byte	0x10
 3380 03e8 05       		.byte	0x5
 3381 03e9 61       		.byte	0x61
 3382 03ea 9B040000 		.long	0x49b
 3383 03ee 09       		.uleb128 0x9
 3384 03ef 59656172 		.ascii "Year\0"
 3384      00
 3385 03f4 05       		.byte	0x5
 3386 03f5 62       		.byte	0x62
 3387 03f6 11       		.byte	0x11
 3388 03f7 BC020000 		.long	0x2bc
 3389 03fb 00       		.byte	0
 3390 03fc 09       		.uleb128 0x9
 3391 03fd 4D6F6E74 		.ascii "Month\0"
 3391      6800
 3392 0403 05       		.byte	0x5
 3393 0404 63       		.byte	0x63
 3394 0405 11       		.byte	0x11
 3395 0406 D9020000 		.long	0x2d9
 3396 040a 02       		.byte	0x2
 3397 040b 09       		.uleb128 0x9
 3398 040c 44617900 		.ascii "Day\0"
 3399 0410 05       		.byte	0x5
 3400 0411 64       		.byte	0x64
 3401 0412 11       		.byte	0x11
 3402 0413 D9020000 		.long	0x2d9
 3403 0417 03       		.byte	0x3
 3404 0418 09       		.uleb128 0x9
 3405 0419 486F7572 		.ascii "Hour\0"
 3405      00
 3406 041e 05       		.byte	0x5
 3407 041f 65       		.byte	0x65
 3408 0420 11       		.byte	0x11
 3409 0421 D9020000 		.long	0x2d9
 3410 0425 04       		.byte	0x4
 3411 0426 09       		.uleb128 0x9
 3412 0427 4D696E75 		.ascii "Minute\0"
 3412      746500
 3413 042e 05       		.byte	0x5
 3414 042f 66       		.byte	0x66
 3415 0430 11       		.byte	0x11
 3416 0431 D9020000 		.long	0x2d9
 3417 0435 05       		.byte	0x5
 3418 0436 09       		.uleb128 0x9
 3419 0437 5365636F 		.ascii "Second\0"
 3419      6E6400
 3420 043e 05       		.byte	0x5
 3421 043f 67       		.byte	0x67
 3422 0440 11       		.byte	0x11
 3423 0441 D9020000 		.long	0x2d9
 3424 0445 06       		.byte	0x6
 3425 0446 09       		.uleb128 0x9
 3426 0447 50616431 		.ascii "Pad1\0"
 3426      00
 3427 044c 05       		.byte	0x5
 3428 044d 68       		.byte	0x68
 3429 044e 11       		.byte	0x11
 3430 044f D9020000 		.long	0x2d9
 3431 0453 07       		.byte	0x7
 3432 0454 09       		.uleb128 0x9
 3433 0455 4E616E6F 		.ascii "Nanosecond\0"
 3433      7365636F 
 3433      6E6400
 3434 0460 05       		.byte	0x5
 3435 0461 69       		.byte	0x69
 3436 0462 11       		.byte	0x11
 3437 0463 9F020000 		.long	0x29f
 3438 0467 08       		.byte	0x8
 3439 0468 09       		.uleb128 0x9
 3440 0469 54696D65 		.ascii "TimeZone\0"
 3440      5A6F6E65 
 3440      00
 3441 0472 05       		.byte	0x5
 3442 0473 6A       		.byte	0x6a
 3443 0474 11       		.byte	0x11
 3444 0475 CB020000 		.long	0x2cb
 3445 0479 0C       		.byte	0xc
 3446 047a 09       		.uleb128 0x9
 3447 047b 4461796C 		.ascii "Daylight\0"
 3447      69676874 
 3447      00
 3448 0484 05       		.byte	0x5
 3449 0485 6B       		.byte	0x6b
 3450 0486 11       		.byte	0x11
 3451 0487 D9020000 		.long	0x2d9
 3452 048b 0E       		.byte	0xe
 3453 048c 09       		.uleb128 0x9
 3454 048d 50616432 		.ascii "Pad2\0"
 3454      00
 3455 0492 05       		.byte	0x5
 3456 0493 6C       		.byte	0x6c
 3457 0494 11       		.byte	0x11
 3458 0495 D9020000 		.long	0x2d9
 3459 0499 0F       		.byte	0xf
 3460 049a 00       		.byte	0
 3461 049b 05       		.uleb128 0x5
 3462 049c 4546495F 		.ascii "EFI_TIME\0"
 3462      54494D45 
 3462      00
 3463 04a5 05       		.byte	0x5
 3464 04a6 6D       		.byte	0x6d
 3465 04a7 03       		.byte	0x3
 3466 04a8 E6030000 		.long	0x3e6
 3467 04ac 05       		.uleb128 0x5
 3468 04ad 4546495F 		.ascii "EFI_PHYSICAL_ADDRESS\0"
 3468      50485953 
 3468      4943414C 
 3468      5F414444 
 3468      52455353 
 3469 04c2 05       		.byte	0x5
 3470 04c3 99       		.byte	0x99
 3471 04c4 19       		.byte	0x19
 3472 04c5 90020000 		.long	0x290
 3473 04c9 05       		.uleb128 0x5
 3474 04ca 4546495F 		.ascii "EFI_VIRTUAL_ADDRESS\0"
 3474      56495254 
 3474      55414C5F 
 3474      41444452 
 3474      45535300 
 3475 04de 05       		.byte	0x5
 3476 04df 9A       		.byte	0x9a
 3477 04e0 19       		.byte	0x19
 3478 04e1 90020000 		.long	0x290
 3479 04e5 26       		.uleb128 0x26
 3480 04e6 13020000 		.long	0x213
 3481 04ea 05       		.byte	0x5
 3482 04eb 9C       		.byte	0x9c
 3483 04ec 3D050000 		.long	0x53d
 3484 04f0 0A       		.uleb128 0xa
 3485 04f1 416C6C6F 		.ascii "AllocateAnyPages\0"
 3485      63617465 
 3485      416E7950 
 3485      61676573 
 3485      00
 3486 0502 00       		.byte	0
 3487 0503 0A       		.uleb128 0xa
 3488 0504 416C6C6F 		.ascii "AllocateMaxAddress\0"
 3488      63617465 
 3488      4D617841 
 3488      64647265 
 3488      737300
 3489 0517 01       		.byte	0x1
 3490 0518 0A       		.uleb128 0xa
 3491 0519 416C6C6F 		.ascii "AllocateAddress\0"
 3491      63617465 
 3491      41646472 
 3491      65737300 
 3492 0529 02       		.byte	0x2
 3493 052a 0A       		.uleb128 0xa
 3494 052b 4D617841 		.ascii "MaxAllocateType\0"
 3494      6C6C6F63 
 3494      61746554 
 3494      79706500 
 3495 053b 03       		.byte	0x3
 3496 053c 00       		.byte	0
 3497 053d 05       		.uleb128 0x5
 3498 053e 4546495F 		.ascii "EFI_ALLOCATE_TYPE\0"
 3498      414C4C4F 
 3498      43415445 
 3498      5F545950 
 3498      4500
 3499 0550 05       		.byte	0x5
 3500 0551 A1       		.byte	0xa1
 3501 0552 03       		.byte	0x3
 3502 0553 E5040000 		.long	0x4e5
 3503 0557 26       		.uleb128 0x26
 3504 0558 13020000 		.long	0x213
 3505 055c 05       		.byte	0x5
 3506 055d AA       		.byte	0xaa
 3507 055e D0060000 		.long	0x6d0
 3508 0562 0A       		.uleb128 0xa
 3509 0563 45666952 		.ascii "EfiReservedMemoryType\0"
 3509      65736572 
 3509      7665644D 
 3509      656D6F72 
 3509      79547970 
 3510 0579 00       		.byte	0
 3511 057a 0A       		.uleb128 0xa
 3512 057b 4566694C 		.ascii "EfiLoaderCode\0"
 3512      6F616465 
 3512      72436F64 
 3512      6500
 3513 0589 01       		.byte	0x1
 3514 058a 0A       		.uleb128 0xa
 3515 058b 4566694C 		.ascii "EfiLoaderData\0"
 3515      6F616465 
 3515      72446174 
 3515      6100
 3516 0599 02       		.byte	0x2
 3517 059a 0A       		.uleb128 0xa
 3518 059b 45666942 		.ascii "EfiBootServicesCode\0"
 3518      6F6F7453 
 3518      65727669 
 3518      63657343 
 3518      6F646500 
 3519 05af 03       		.byte	0x3
 3520 05b0 0A       		.uleb128 0xa
 3521 05b1 45666942 		.ascii "EfiBootServicesData\0"
 3521      6F6F7453 
 3521      65727669 
 3521      63657344 
 3521      61746100 
 3522 05c5 04       		.byte	0x4
 3523 05c6 0A       		.uleb128 0xa
 3524 05c7 45666952 		.ascii "EfiRuntimeServicesCode\0"
 3524      756E7469 
 3524      6D655365 
 3524      72766963 
 3524      6573436F 
 3525 05de 05       		.byte	0x5
 3526 05df 0A       		.uleb128 0xa
 3527 05e0 45666952 		.ascii "EfiRuntimeServicesData\0"
 3527      756E7469 
 3527      6D655365 
 3527      72766963 
 3527      65734461 
 3528 05f7 06       		.byte	0x6
 3529 05f8 0A       		.uleb128 0xa
 3530 05f9 45666943 		.ascii "EfiConventionalMemory\0"
 3530      6F6E7665 
 3530      6E74696F 
 3530      6E616C4D 
 3530      656D6F72 
 3531 060f 07       		.byte	0x7
 3532 0610 0A       		.uleb128 0xa
 3533 0611 45666955 		.ascii "EfiUnusableMemory\0"
 3533      6E757361 
 3533      626C654D 
 3533      656D6F72 
 3533      7900
 3534 0623 08       		.byte	0x8
 3535 0624 0A       		.uleb128 0xa
 3536 0625 45666941 		.ascii "EfiACPIReclaimMemory\0"
 3536      43504952 
 3536      65636C61 
 3536      696D4D65 
 3536      6D6F7279 
 3537 063a 09       		.byte	0x9
 3538 063b 0A       		.uleb128 0xa
 3539 063c 45666941 		.ascii "EfiACPIMemoryNVS\0"
 3539      4350494D 
 3539      656D6F72 
 3539      794E5653 
 3539      00
 3540 064d 0A       		.byte	0xa
 3541 064e 0A       		.uleb128 0xa
 3542 064f 4566694D 		.ascii "EfiMemoryMappedIO\0"
 3542      656D6F72 
 3542      794D6170 
 3542      70656449 
 3542      4F00
 3543 0661 0B       		.byte	0xb
 3544 0662 0A       		.uleb128 0xa
 3545 0663 4566694D 		.ascii "EfiMemoryMappedIOPortSpace\0"
 3545      656D6F72 
 3545      794D6170 
 3545      70656449 
 3545      4F506F72 
 3546 067e 0C       		.byte	0xc
 3547 067f 0A       		.uleb128 0xa
 3548 0680 45666950 		.ascii "EfiPalCode\0"
 3548      616C436F 
 3548      646500
 3549 068b 0D       		.byte	0xd
 3550 068c 0A       		.uleb128 0xa
 3551 068d 45666950 		.ascii "EfiPersistentMemory\0"
 3551      65727369 
 3551      7374656E 
 3551      744D656D 
 3551      6F727900 
 3552 06a1 0E       		.byte	0xe
 3553 06a2 0A       		.uleb128 0xa
 3554 06a3 45666955 		.ascii "EfiUnacceptedMemoryType\0"
 3554      6E616363 
 3554      65707465 
 3554      644D656D 
 3554      6F727954 
 3555 06bb 0F       		.byte	0xf
 3556 06bc 0A       		.uleb128 0xa
 3557 06bd 4566694D 		.ascii "EfiMaxMemoryType\0"
 3557      61784D65 
 3557      6D6F7279 
 3557      54797065 
 3557      00
 3558 06ce 10       		.byte	0x10
 3559 06cf 00       		.byte	0
 3560 06d0 05       		.uleb128 0x5
 3561 06d1 4546495F 		.ascii "EFI_MEMORY_TYPE\0"
 3561      4D454D4F 
 3561      52595F54 
 3561      59504500 
 3562 06e1 05       		.byte	0x5
 3563 06e2 BC       		.byte	0xbc
 3564 06e3 03       		.byte	0x3
 3565 06e4 57050000 		.long	0x557
 3566 06e8 1B       		.uleb128 0x1b
 3567 06e9 28       		.byte	0x28
 3568 06ea 05       		.byte	0x5
 3569 06eb D9       		.byte	0xd9
 3570 06ec 5C070000 		.long	0x75c
 3571 06f0 09       		.uleb128 0x9
 3572 06f1 54797065 		.ascii "Type\0"
 3572      00
 3573 06f6 05       		.byte	0x5
 3574 06f7 DA       		.byte	0xda
 3575 06f8 25       		.byte	0x25
 3576 06f9 9F020000 		.long	0x29f
 3577 06fd 00       		.byte	0
 3578 06fe 09       		.uleb128 0x9
 3579 06ff 50616400 		.ascii "Pad\0"
 3580 0703 05       		.byte	0x5
 3581 0704 DB       		.byte	0xdb
 3582 0705 25       		.byte	0x25
 3583 0706 9F020000 		.long	0x29f
 3584 070a 04       		.byte	0x4
 3585 070b 09       		.uleb128 0x9
 3586 070c 50687973 		.ascii "PhysicalStart\0"
 3586      6963616C 
 3586      53746172 
 3586      7400
 3587 071a 05       		.byte	0x5
 3588 071b DC       		.byte	0xdc
 3589 071c 25       		.byte	0x25
 3590 071d AC040000 		.long	0x4ac
 3591 0721 08       		.byte	0x8
 3592 0722 09       		.uleb128 0x9
 3593 0723 56697274 		.ascii "VirtualStart\0"
 3593      75616C53 
 3593      74617274 
 3593      00
 3594 0730 05       		.byte	0x5
 3595 0731 DD       		.byte	0xdd
 3596 0732 25       		.byte	0x25
 3597 0733 C9040000 		.long	0x4c9
 3598 0737 10       		.byte	0x10
 3599 0738 09       		.uleb128 0x9
 3600 0739 4E756D62 		.ascii "NumberOfPages\0"
 3600      65724F66 
 3600      50616765 
 3600      7300
 3601 0747 05       		.byte	0x5
 3602 0748 DE       		.byte	0xde
 3603 0749 25       		.byte	0x25
 3604 074a 90020000 		.long	0x290
 3605 074e 18       		.byte	0x18
 3606 074f 2D       		.uleb128 0x2d
 3607 0750 08000000 		.secrel32	.LASF2
 3608 0754 05       		.byte	0x5
 3609 0755 DF       		.byte	0xdf
 3610 0756 90020000 		.long	0x290
 3611 075a 20       		.byte	0x20
 3612 075b 00       		.byte	0
 3613 075c 05       		.uleb128 0x5
 3614 075d 4546495F 		.ascii "EFI_MEMORY_DESCRIPTOR\0"
 3614      4D454D4F 
 3614      52595F44 
 3614      45534352 
 3614      4950544F 
 3615 0773 05       		.byte	0x5
 3616 0774 E0       		.byte	0xe0
 3617 0775 03       		.byte	0x3
 3618 0776 E8060000 		.long	0x6e8
 3619 077a 2E       		.uleb128 0x2e
 3620 077b 5F454649 		.ascii "_EFI_DEVICE_PATH_PROTOCOL\0"
 3620      5F444556 
 3620      4943455F 
 3620      50415448 
 3620      5F50524F 
 3621 0795 04       		.byte	0x4
 3622 0796 06       		.byte	0x6
 3623 0797 1A       		.byte	0x1a
 3624 0798 CC070000 		.long	0x7cc
 3625 079c 09       		.uleb128 0x9
 3626 079d 54797065 		.ascii "Type\0"
 3626      00
 3627 07a2 06       		.byte	0x6
 3628 07a3 1B       		.byte	0x1b
 3629 07a4 29       		.byte	0x29
 3630 07a5 D9020000 		.long	0x2d9
 3631 07a9 00       		.byte	0
 3632 07aa 09       		.uleb128 0x9
 3633 07ab 53756254 		.ascii "SubType\0"
 3633      79706500 
 3634 07b3 06       		.byte	0x6
 3635 07b4 1C       		.byte	0x1c
 3636 07b5 29       		.byte	0x29
 3637 07b6 D9020000 		.long	0x2d9
 3638 07ba 01       		.byte	0x1
 3639 07bb 09       		.uleb128 0x9
 3640 07bc 4C656E67 		.ascii "Length\0"
 3640      746800
 3641 07c3 06       		.byte	0x6
 3642 07c4 1D       		.byte	0x1d
 3643 07c5 29       		.byte	0x29
 3644 07c6 CC070000 		.long	0x7cc
 3645 07ca 02       		.byte	0x2
 3646 07cb 00       		.byte	0
 3647 07cc 1D       		.uleb128 0x1d
 3648 07cd D9020000 		.long	0x2d9
 3649 07d1 DC070000 		.long	0x7dc
 3650 07d5 1E       		.uleb128 0x1e
 3651 07d6 3C010000 		.long	0x13c
 3652 07da 01       		.byte	0x1
 3653 07db 00       		.byte	0
 3654 07dc 05       		.uleb128 0x5
 3655 07dd 4546495F 		.ascii "EFI_DEVICE_PATH_PROTOCOL\0"
 3655      44455649 
 3655      43455F50 
 3655      4154485F 
 3655      50524F54 
 3656 07f6 06       		.byte	0x6
 3657 07f7 1E       		.byte	0x1e
 3658 07f8 03       		.byte	0x3
 3659 07f9 7A070000 		.long	0x77a
 3660 07fd 05       		.uleb128 0x5
 3661 07fe 4546495F 		.ascii "EFI_DEVICE_PATH\0"
 3661      44455649 
 3661      43455F50 
 3661      41544800 
 3662 080e 06       		.byte	0x6
 3663 080f 21       		.byte	0x21
 3664 0810 22       		.byte	0x22
 3665 0811 DC070000 		.long	0x7dc
 3666 0815 03       		.uleb128 0x3
 3667 0816 7C020000 		.long	0x27c
 3668 081a 03       		.uleb128 0x3
 3669 081b 8B020000 		.long	0x28b
 3670 081f 03       		.uleb128 0x3
 3671 0820 02030000 		.long	0x302
 3672 0824 03       		.uleb128 0x3
 3673 0825 90020000 		.long	0x290
 3674 0829 03       		.uleb128 0x3
 3675 082a 64030000 		.long	0x364
 3676 082e 03       		.uleb128 0x3
 3677 082f AC040000 		.long	0x4ac
 3678 0833 03       		.uleb128 0x3
 3679 0834 D0030000 		.long	0x3d0
 3680 0838 03       		.uleb128 0x3
 3681 0839 FD070000 		.long	0x7fd
 3682 083d 03       		.uleb128 0x3
 3683 083e 38080000 		.long	0x838
 3684 0842 03       		.uleb128 0x3
 3685 0843 E1030000 		.long	0x3e1
 3686 0847 03       		.uleb128 0x3
 3687 0848 51030000 		.long	0x351
 3688 084c 03       		.uleb128 0x3
 3689 084d 9F020000 		.long	0x29f
 3690 0851 03       		.uleb128 0x3
 3691 0852 15080000 		.long	0x815
 3692 0856 07       		.uleb128 0x7
 3693 0857 4546495F 		.ascii "EFI_IMAGE_UNLOAD\0"
 3693      494D4147 
 3693      455F554E 
 3693      4C4F4144 
 3693      00
 3694 0868 07       		.byte	0x7
 3695 0869 C604     		.word	0x4c6
 3696 086b 0A       		.byte	0xa
 3697 086c 70080000 		.long	0x870
 3698 0870 03       		.uleb128 0x3
 3699 0871 75080000 		.long	0x875
 3700 0875 06       		.uleb128 0x6
 3701 0876 2E030000 		.long	0x32e
 3702 087a 84080000 		.long	0x884
 3703 087e 01       		.uleb128 0x1
 3704 087f 51030000 		.long	0x351
 3705 0883 00       		.byte	0
 3706 0884 1F       		.uleb128 0x1f
 3707 0885 5F454649 		.ascii "_EFI_SYSTEM_TABLE\0"
 3707      5F535953 
 3707      54454D5F 
 3707      5441424C 
 3707      4500
 3708 0897 78       		.byte	0x78
 3709 0898 08       		.byte	0x8
 3710 0899 F203     		.word	0x3f2
 3711 089b D0090000 		.long	0x9d0
 3712 089f 04       		.uleb128 0x4
 3713 08a0 48647200 		.ascii "Hdr\0"
 3714 08a4 08       		.byte	0x8
 3715 08a5 F303     		.word	0x3f3
 3716 08a7 25       		.byte	0x25
 3717 08a8 311F0000 		.long	0x1f31
 3718 08ac 00       		.byte	0
 3719 08ad 04       		.uleb128 0x4
 3720 08ae 4669726D 		.ascii "FirmwareVendor\0"
 3720      77617265 
 3720      56656E64 
 3720      6F7200
 3721 08bd 08       		.byte	0x8
 3722 08be F503     		.word	0x3f5
 3723 08c0 26       		.byte	0x26
 3724 08c1 15080000 		.long	0x815
 3725 08c5 18       		.byte	0x18
 3726 08c6 04       		.uleb128 0x4
 3727 08c7 4669726D 		.ascii "FirmwareRevision\0"
 3727      77617265 
 3727      52657669 
 3727      73696F6E 
 3727      00
 3728 08d8 08       		.byte	0x8
 3729 08d9 F603     		.word	0x3f6
 3730 08db 25       		.byte	0x25
 3731 08dc 9F020000 		.long	0x29f
 3732 08e0 20       		.byte	0x20
 3733 08e1 04       		.uleb128 0x4
 3734 08e2 436F6E73 		.ascii "ConsoleInHandle\0"
 3734      6F6C6549 
 3734      6E48616E 
 3734      646C6500 
 3735 08f2 08       		.byte	0x8
 3736 08f3 F803     		.word	0x3f8
 3737 08f5 25       		.byte	0x25
 3738 08f6 51030000 		.long	0x351
 3739 08fa 28       		.byte	0x28
 3740 08fb 04       		.uleb128 0x4
 3741 08fc 436F6E49 		.ascii "ConIn\0"
 3741      6E00
 3742 0902 08       		.byte	0x8
 3743 0903 F903     		.word	0x3f9
 3744 0905 26       		.byte	0x26
 3745 0906 0C260000 		.long	0x260c
 3746 090a 30       		.byte	0x30
 3747 090b 04       		.uleb128 0x4
 3748 090c 436F6E73 		.ascii "ConsoleOutHandle\0"
 3748      6F6C654F 
 3748      75744861 
 3748      6E646C65 
 3748      00
 3749 091d 08       		.byte	0x8
 3750 091e FB03     		.word	0x3fb
 3751 0920 25       		.byte	0x25
 3752 0921 51030000 		.long	0x351
 3753 0925 38       		.byte	0x38
 3754 0926 27       		.uleb128 0x27
 3755 0927 46000000 		.secrel32	.LASF3
 3756 092b FC03     		.word	0x3fc
 3757 092d 26       		.byte	0x26
 3758 092e 11260000 		.long	0x2611
 3759 0932 40       		.byte	0x40
 3760 0933 04       		.uleb128 0x4
 3761 0934 5374616E 		.ascii "StandardErrorHandle\0"
 3761      64617264 
 3761      4572726F 
 3761      7248616E 
 3761      646C6500 
 3762 0948 08       		.byte	0x8
 3763 0949 FE03     		.word	0x3fe
 3764 094b 25       		.byte	0x25
 3765 094c 51030000 		.long	0x351
 3766 0950 48       		.byte	0x48
 3767 0951 04       		.uleb128 0x4
 3768 0952 53746445 		.ascii "StdErr\0"
 3768      727200
 3769 0959 08       		.byte	0x8
 3770 095a FF03     		.word	0x3ff
 3771 095c 26       		.byte	0x26
 3772 095d 11260000 		.long	0x2611
 3773 0961 50       		.byte	0x50
 3774 0962 04       		.uleb128 0x4
 3775 0963 52756E74 		.ascii "RuntimeServices\0"
 3775      696D6553 
 3775      65727669 
 3775      63657300 
 3776 0973 08       		.byte	0x8
 3777 0974 0104     		.word	0x401
 3778 0976 26       		.byte	0x26
 3779 0977 16260000 		.long	0x2616
 3780 097b 58       		.byte	0x58
 3781 097c 04       		.uleb128 0x4
 3782 097d 426F6F74 		.ascii "BootServices\0"
 3782      53657276 
 3782      69636573 
 3782      00
 3783 098a 08       		.byte	0x8
 3784 098b 0204     		.word	0x402
 3785 098d 26       		.byte	0x26
 3786 098e 1B260000 		.long	0x261b
 3787 0992 60       		.byte	0x60
 3788 0993 04       		.uleb128 0x4
 3789 0994 4E756D62 		.ascii "NumberOfTableEntries\0"
 3789      65724F66 
 3789      5461626C 
 3789      65456E74 
 3789      72696573 
 3790 09a9 08       		.byte	0x8
 3791 09aa 0404     		.word	0x404
 3792 09ac 25       		.byte	0x25
 3793 09ad 02030000 		.long	0x302
 3794 09b1 68       		.byte	0x68
 3795 09b2 04       		.uleb128 0x4
 3796 09b3 436F6E66 		.ascii "ConfigurationTable\0"
 3796      69677572 
 3796      6174696F 
 3796      6E546162 
 3796      6C6500
 3797 09c6 08       		.byte	0x8
 3798 09c7 0504     		.word	0x405
 3799 09c9 26       		.byte	0x26
 3800 09ca 20260000 		.long	0x2620
 3801 09ce 70       		.byte	0x70
 3802 09cf 00       		.byte	0
 3803 09d0 05       		.uleb128 0x5
 3804 09d1 4546495F 		.ascii "EFI_TEXT_RESET\0"
 3804      54455854 
 3804      5F524553 
 3804      455400
 3805 09e0 09       		.byte	0x9
 3806 09e1 22       		.byte	0x22
 3807 09e2 0A       		.byte	0xa
 3808 09e3 E7090000 		.long	0x9e7
 3809 09e7 03       		.uleb128 0x3
 3810 09e8 EC090000 		.long	0x9ec
 3811 09ec 06       		.uleb128 0x6
 3812 09ed 2E030000 		.long	0x32e
 3813 09f1 000A0000 		.long	0xa00
 3814 09f5 01       		.uleb128 0x1
 3815 09f6 000A0000 		.long	0xa00
 3816 09fa 01       		.uleb128 0x1
 3817 09fb 15030000 		.long	0x315
 3818 09ff 00       		.byte	0
 3819 0a00 03       		.uleb128 0x3
 3820 0a01 050A0000 		.long	0xa05
 3821 0a05 2E       		.uleb128 0x2e
 3822 0a06 5F53494D 		.ascii "_SIMPLE_TEXT_OUTPUT_INTERFACE\0"
 3822      504C455F 
 3822      54455854 
 3822      5F4F5554 
 3822      5055545F 
 3823 0a24 50       		.byte	0x50
 3824 0a25 09       		.byte	0x9
 3825 0a26 89       		.byte	0x89
 3826 0a27 F30A0000 		.long	0xaf3
 3827 0a2b 09       		.uleb128 0x9
 3828 0a2c 52657365 		.ascii "Reset\0"
 3828      7400
 3829 0a32 09       		.byte	0x9
 3830 0a33 8A       		.byte	0x8a
 3831 0a34 25       		.byte	0x25
 3832 0a35 D0090000 		.long	0x9d0
 3833 0a39 00       		.byte	0
 3834 0a3a 09       		.uleb128 0x9
 3835 0a3b 4F757470 		.ascii "OutputString\0"
 3835      75745374 
 3835      72696E67 
 3835      00
 3836 0a48 09       		.byte	0x9
 3837 0a49 8C       		.byte	0x8c
 3838 0a4a 25       		.byte	0x25
 3839 0a4b F30A0000 		.long	0xaf3
 3840 0a4f 08       		.byte	0x8
 3841 0a50 09       		.uleb128 0x9
 3842 0a51 54657374 		.ascii "TestString\0"
 3842      53747269 
 3842      6E6700
 3843 0a5c 09       		.byte	0x9
 3844 0a5d 8D       		.byte	0x8d
 3845 0a5e 25       		.byte	0x25
 3846 0a5f 2B0B0000 		.long	0xb2b
 3847 0a63 10       		.byte	0x10
 3848 0a64 09       		.uleb128 0x9
 3849 0a65 51756572 		.ascii "QueryMode\0"
 3849      794D6F64 
 3849      6500
 3850 0a6f 09       		.byte	0x9
 3851 0a70 8F       		.byte	0x8f
 3852 0a71 25       		.byte	0x25
 3853 0a72 480B0000 		.long	0xb48
 3854 0a76 18       		.byte	0x18
 3855 0a77 09       		.uleb128 0x9
 3856 0a78 5365744D 		.ascii "SetMode\0"
 3856      6F646500 
 3857 0a80 09       		.byte	0x9
 3858 0a81 90       		.byte	0x90
 3859 0a82 25       		.byte	0x25
 3860 0a83 870B0000 		.long	0xb87
 3861 0a87 20       		.byte	0x20
 3862 0a88 09       		.uleb128 0x9
 3863 0a89 53657441 		.ascii "SetAttribute\0"
 3863      74747269 
 3863      62757465 
 3863      00
 3864 0a96 09       		.byte	0x9
 3865 0a97 91       		.byte	0x91
 3866 0a98 25       		.byte	0x25
 3867 0a99 BA0B0000 		.long	0xbba
 3868 0a9d 28       		.byte	0x28
 3869 0a9e 09       		.uleb128 0x9
 3870 0a9f 436C6561 		.ascii "ClearScreen\0"
 3870      72536372 
 3870      65656E00 
 3871 0aab 09       		.byte	0x9
 3872 0aac 93       		.byte	0x93
 3873 0aad 25       		.byte	0x25
 3874 0aae D90B0000 		.long	0xbd9
 3875 0ab2 30       		.byte	0x30
 3876 0ab3 09       		.uleb128 0x9
 3877 0ab4 53657443 		.ascii "SetCursorPosition\0"
 3877      7572736F 
 3877      72506F73 
 3877      6974696F 
 3877      6E00
 3878 0ac6 09       		.byte	0x9
 3879 0ac7 94       		.byte	0x94
 3880 0ac8 25       		.byte	0x25
 3881 0ac9 0B0C0000 		.long	0xc0b
 3882 0acd 38       		.byte	0x38
 3883 0ace 09       		.uleb128 0x9
 3884 0acf 456E6162 		.ascii "EnableCursor\0"
 3884      6C654375 
 3884      72736F72 
 3884      00
 3885 0adc 09       		.byte	0x9
 3886 0add 95       		.byte	0x95
 3887 0ade 25       		.byte	0x25
 3888 0adf 4E0C0000 		.long	0xc4e
 3889 0ae3 40       		.byte	0x40
 3890 0ae4 09       		.uleb128 0x9
 3891 0ae5 4D6F6465 		.ascii "Mode\0"
 3891      00
 3892 0aea 09       		.byte	0x9
 3893 0aeb 98       		.byte	0x98
 3894 0aec 26       		.byte	0x26
 3895 0aed 010D0000 		.long	0xd01
 3896 0af1 48       		.byte	0x48
 3897 0af2 00       		.byte	0
 3898 0af3 05       		.uleb128 0x5
 3899 0af4 4546495F 		.ascii "EFI_TEXT_OUTPUT_STRING\0"
 3899      54455854 
 3899      5F4F5554 
 3899      5055545F 
 3899      53545249 
 3900 0b0b 09       		.byte	0x9
 3901 0b0c 29       		.byte	0x29
 3902 0b0d 0A       		.byte	0xa
 3903 0b0e 120B0000 		.long	0xb12
 3904 0b12 03       		.uleb128 0x3
 3905 0b13 170B0000 		.long	0xb17
 3906 0b17 06       		.uleb128 0x6
 3907 0b18 2E030000 		.long	0x32e
 3908 0b1c 2B0B0000 		.long	0xb2b
 3909 0b20 01       		.uleb128 0x1
 3910 0b21 000A0000 		.long	0xa00
 3911 0b25 01       		.uleb128 0x1
 3912 0b26 15080000 		.long	0x815
 3913 0b2a 00       		.byte	0
 3914 0b2b 05       		.uleb128 0x5
 3915 0b2c 4546495F 		.ascii "EFI_TEXT_TEST_STRING\0"
 3915      54455854 
 3915      5F544553 
 3915      545F5354 
 3915      52494E47 
 3916 0b41 09       		.byte	0x9
 3917 0b42 30       		.byte	0x30
 3918 0b43 0A       		.byte	0xa
 3919 0b44 120B0000 		.long	0xb12
 3920 0b48 05       		.uleb128 0x5
 3921 0b49 4546495F 		.ascii "EFI_TEXT_QUERY_MODE\0"
 3921      54455854 
 3921      5F515545 
 3921      52595F4D 
 3921      4F444500 
 3922 0b5d 09       		.byte	0x9
 3923 0b5e 37       		.byte	0x37
 3924 0b5f 0A       		.byte	0xa
 3925 0b60 640B0000 		.long	0xb64
 3926 0b64 03       		.uleb128 0x3
 3927 0b65 690B0000 		.long	0xb69
 3928 0b69 06       		.uleb128 0x6
 3929 0b6a 2E030000 		.long	0x32e
 3930 0b6e 870B0000 		.long	0xb87
 3931 0b72 01       		.uleb128 0x1
 3932 0b73 000A0000 		.long	0xa00
 3933 0b77 01       		.uleb128 0x1
 3934 0b78 02030000 		.long	0x302
 3935 0b7c 01       		.uleb128 0x1
 3936 0b7d 1F080000 		.long	0x81f
 3937 0b81 01       		.uleb128 0x1
 3938 0b82 1F080000 		.long	0x81f
 3939 0b86 00       		.byte	0
 3940 0b87 05       		.uleb128 0x5
 3941 0b88 4546495F 		.ascii "EFI_TEXT_SET_MODE\0"
 3941      54455854 
 3941      5F534554 
 3941      5F4D4F44 
 3941      4500
 3942 0b9a 09       		.byte	0x9
 3943 0b9b 40       		.byte	0x40
 3944 0b9c 0A       		.byte	0xa
 3945 0b9d A10B0000 		.long	0xba1
 3946 0ba1 03       		.uleb128 0x3
 3947 0ba2 A60B0000 		.long	0xba6
 3948 0ba6 06       		.uleb128 0x6
 3949 0ba7 2E030000 		.long	0x32e
 3950 0bab BA0B0000 		.long	0xbba
 3951 0baf 01       		.uleb128 0x1
 3952 0bb0 000A0000 		.long	0xa00
 3953 0bb4 01       		.uleb128 0x1
 3954 0bb5 02030000 		.long	0x302
 3955 0bb9 00       		.byte	0
 3956 0bba 05       		.uleb128 0x5
 3957 0bbb 4546495F 		.ascii "EFI_TEXT_SET_ATTRIBUTE\0"
 3957      54455854 
 3957      5F534554 
 3957      5F415454 
 3957      52494255 
 3958 0bd2 09       		.byte	0x9
 3959 0bd3 47       		.byte	0x47
 3960 0bd4 0A       		.byte	0xa
 3961 0bd5 A10B0000 		.long	0xba1
 3962 0bd9 05       		.uleb128 0x5
 3963 0bda 4546495F 		.ascii "EFI_TEXT_CLEAR_SCREEN\0"
 3963      54455854 
 3963      5F434C45 
 3963      41525F53 
 3963      43524545 
 3964 0bf0 09       		.byte	0x9
 3965 0bf1 6C       		.byte	0x6c
 3966 0bf2 0A       		.byte	0xa
 3967 0bf3 F70B0000 		.long	0xbf7
 3968 0bf7 03       		.uleb128 0x3
 3969 0bf8 FC0B0000 		.long	0xbfc
 3970 0bfc 06       		.uleb128 0x6
 3971 0bfd 2E030000 		.long	0x32e
 3972 0c01 0B0C0000 		.long	0xc0b
 3973 0c05 01       		.uleb128 0x1
 3974 0c06 000A0000 		.long	0xa00
 3975 0c0a 00       		.byte	0
 3976 0c0b 05       		.uleb128 0x5
 3977 0c0c 4546495F 		.ascii "EFI_TEXT_SET_CURSOR_POSITION\0"
 3977      54455854 
 3977      5F534554 
 3977      5F435552 
 3977      534F525F 
 3978 0c29 09       		.byte	0x9
 3979 0c2a 72       		.byte	0x72
 3980 0c2b 0A       		.byte	0xa
 3981 0c2c 300C0000 		.long	0xc30
 3982 0c30 03       		.uleb128 0x3
 3983 0c31 350C0000 		.long	0xc35
 3984 0c35 06       		.uleb128 0x6
 3985 0c36 2E030000 		.long	0x32e
 3986 0c3a 4E0C0000 		.long	0xc4e
 3987 0c3e 01       		.uleb128 0x1
 3988 0c3f 000A0000 		.long	0xa00
 3989 0c43 01       		.uleb128 0x1
 3990 0c44 02030000 		.long	0x302
 3991 0c48 01       		.uleb128 0x1
 3992 0c49 02030000 		.long	0x302
 3993 0c4d 00       		.byte	0
 3994 0c4e 05       		.uleb128 0x5
 3995 0c4f 4546495F 		.ascii "EFI_TEXT_ENABLE_CURSOR\0"
 3995      54455854 
 3995      5F454E41 
 3995      424C455F 
 3995      43555253 
 3996 0c66 09       		.byte	0x9
 3997 0c67 7A       		.byte	0x7a
 3998 0c68 0A       		.byte	0xa
 3999 0c69 E7090000 		.long	0x9e7
 4000 0c6d 1B       		.uleb128 0x1b
 4001 0c6e 18       		.byte	0x18
 4002 0c6f 09       		.byte	0x9
 4003 0c70 7F       		.byte	0x7f
 4004 0c71 E10C0000 		.long	0xce1
 4005 0c75 09       		.uleb128 0x9
 4006 0c76 4D61784D 		.ascii "MaxMode\0"
 4006      6F646500 
 4007 0c7e 09       		.byte	0x9
 4008 0c7f 80       		.byte	0x80
 4009 0c80 25       		.byte	0x25
 4010 0c81 AE020000 		.long	0x2ae
 4011 0c85 00       		.byte	0
 4012 0c86 09       		.uleb128 0x9
 4013 0c87 4D6F6465 		.ascii "Mode\0"
 4013      00
 4014 0c8c 09       		.byte	0x9
 4015 0c8d 82       		.byte	0x82
 4016 0c8e 25       		.byte	0x25
 4017 0c8f AE020000 		.long	0x2ae
 4018 0c93 04       		.byte	0x4
 4019 0c94 2D       		.uleb128 0x2d
 4020 0c95 08000000 		.secrel32	.LASF2
 4021 0c99 09       		.byte	0x9
 4022 0c9a 83       		.byte	0x83
 4023 0c9b AE020000 		.long	0x2ae
 4024 0c9f 08       		.byte	0x8
 4025 0ca0 09       		.uleb128 0x9
 4026 0ca1 43757273 		.ascii "CursorColumn\0"
 4026      6F72436F 
 4026      6C756D6E 
 4026      00
 4027 0cae 09       		.byte	0x9
 4028 0caf 84       		.byte	0x84
 4029 0cb0 25       		.byte	0x25
 4030 0cb1 AE020000 		.long	0x2ae
 4031 0cb5 0C       		.byte	0xc
 4032 0cb6 09       		.uleb128 0x9
 4033 0cb7 43757273 		.ascii "CursorRow\0"
 4033      6F72526F 
 4033      7700
 4034 0cc1 09       		.byte	0x9
 4035 0cc2 85       		.byte	0x85
 4036 0cc3 25       		.byte	0x25
 4037 0cc4 AE020000 		.long	0x2ae
 4038 0cc8 10       		.byte	0x10
 4039 0cc9 09       		.uleb128 0x9
 4040 0cca 43757273 		.ascii "CursorVisible\0"
 4040      6F725669 
 4040      7369626C 
 4040      6500
 4041 0cd8 09       		.byte	0x9
 4042 0cd9 86       		.byte	0x86
 4043 0cda 25       		.byte	0x25
 4044 0cdb 15030000 		.long	0x315
 4045 0cdf 14       		.byte	0x14
 4046 0ce0 00       		.byte	0
 4047 0ce1 05       		.uleb128 0x5
 4048 0ce2 53494D50 		.ascii "SIMPLE_TEXT_OUTPUT_MODE\0"
 4048      4C455F54 
 4048      4558545F 
 4048      4F555450 
 4048      55545F4D 
 4049 0cfa 09       		.byte	0x9
 4050 0cfb 87       		.byte	0x87
 4051 0cfc 03       		.byte	0x3
 4052 0cfd 6D0C0000 		.long	0xc6d
 4053 0d01 03       		.uleb128 0x3
 4054 0d02 E10C0000 		.long	0xce1
 4055 0d06 05       		.uleb128 0x5
 4056 0d07 53494D50 		.ascii "SIMPLE_TEXT_OUTPUT_INTERFACE\0"
 4056      4C455F54 
 4056      4558545F 
 4056      4F555450 
 4056      55545F49 
 4057 0d24 09       		.byte	0x9
 4058 0d25 99       		.byte	0x99
 4059 0d26 03       		.byte	0x3
 4060 0d27 050A0000 		.long	0xa05
 4061 0d2b 05       		.uleb128 0x5
 4062 0d2c 4546495F 		.ascii "EFI_SIMPLE_TEXT_OUT_PROTOCOL\0"
 4062      53494D50 
 4062      4C455F54 
 4062      4558545F 
 4062      4F55545F 
 4063 0d49 09       		.byte	0x9
 4064 0d4a 99       		.byte	0x99
 4065 0d4b 21       		.byte	0x21
 4066 0d4c 050A0000 		.long	0xa05
 4067 0d50 1B       		.uleb128 0x1b
 4068 0d51 04       		.byte	0x4
 4069 0d52 09       		.byte	0x9
 4070 0d53 F1       		.byte	0xf1
 4071 0d54 800D0000 		.long	0xd80
 4072 0d58 09       		.uleb128 0x9
 4073 0d59 5363616E 		.ascii "ScanCode\0"
 4073      436F6465 
 4073      00
 4074 0d62 09       		.byte	0x9
 4075 0d63 F2       		.byte	0xf2
 4076 0d64 29       		.byte	0x29
 4077 0d65 BC020000 		.long	0x2bc
 4078 0d69 00       		.byte	0
 4079 0d6a 09       		.uleb128 0x9
 4080 0d6b 556E6963 		.ascii "UnicodeChar\0"
 4080      6F646543 
 4080      68617200 
 4081 0d77 09       		.byte	0x9
 4082 0d78 F3       		.byte	0xf3
 4083 0d79 29       		.byte	0x29
 4084 0d7a 7C020000 		.long	0x27c
 4085 0d7e 02       		.byte	0x2
 4086 0d7f 00       		.byte	0
 4087 0d80 05       		.uleb128 0x5
 4088 0d81 4546495F 		.ascii "EFI_INPUT_KEY\0"
 4088      494E5055 
 4088      545F4B45 
 4088      5900
 4089 0d8f 09       		.byte	0x9
 4090 0d90 F4       		.byte	0xf4
 4091 0d91 03       		.byte	0x3
 4092 0d92 500D0000 		.long	0xd50
 4093 0d96 07       		.uleb128 0x7
 4094 0d97 4546495F 		.ascii "EFI_INPUT_RESET\0"
 4094      494E5055 
 4094      545F5245 
 4094      53455400 
 4095 0da7 09       		.byte	0x9
 4096 0da8 1F01     		.word	0x11f
 4097 0daa 0A       		.byte	0xa
 4098 0dab AF0D0000 		.long	0xdaf
 4099 0daf 03       		.uleb128 0x3
 4100 0db0 B40D0000 		.long	0xdb4
 4101 0db4 06       		.uleb128 0x6
 4102 0db5 2E030000 		.long	0x32e
 4103 0db9 C80D0000 		.long	0xdc8
 4104 0dbd 01       		.uleb128 0x1
 4105 0dbe C80D0000 		.long	0xdc8
 4106 0dc2 01       		.uleb128 0x1
 4107 0dc3 15030000 		.long	0x315
 4108 0dc7 00       		.byte	0
 4109 0dc8 03       		.uleb128 0x3
 4110 0dc9 CD0D0000 		.long	0xdcd
 4111 0dcd 1F       		.uleb128 0x1f
 4112 0dce 5F53494D 		.ascii "_SIMPLE_INPUT_INTERFACE\0"
 4112      504C455F 
 4112      494E5055 
 4112      545F494E 
 4112      54455246 
 4113 0de6 18       		.byte	0x18
 4114 0de7 09       		.byte	0x9
 4115 0de8 2B01     		.word	0x12b
 4116 0dea 2C0E0000 		.long	0xe2c
 4117 0dee 04       		.uleb128 0x4
 4118 0def 52657365 		.ascii "Reset\0"
 4118      7400
 4119 0df5 09       		.byte	0x9
 4120 0df6 2C01     		.word	0x12c
 4121 0df8 29       		.byte	0x29
 4122 0df9 960D0000 		.long	0xd96
 4123 0dfd 00       		.byte	0
 4124 0dfe 04       		.uleb128 0x4
 4125 0dff 52656164 		.ascii "ReadKeyStroke\0"
 4125      4B657953 
 4125      74726F6B 
 4125      6500
 4126 0e0d 09       		.byte	0x9
 4127 0e0e 2D01     		.word	0x12d
 4128 0e10 29       		.byte	0x29
 4129 0e11 2C0E0000 		.long	0xe2c
 4130 0e15 08       		.byte	0x8
 4131 0e16 04       		.uleb128 0x4
 4132 0e17 57616974 		.ascii "WaitForKey\0"
 4132      466F724B 
 4132      657900
 4133 0e22 09       		.byte	0x9
 4134 0e23 2E01     		.word	0x12e
 4135 0e25 29       		.byte	0x29
 4136 0e26 69030000 		.long	0x369
 4137 0e2a 10       		.byte	0x10
 4138 0e2b 00       		.byte	0
 4139 0e2c 07       		.uleb128 0x7
 4140 0e2d 4546495F 		.ascii "EFI_INPUT_READ_KEY\0"
 4140      494E5055 
 4140      545F5245 
 4140      41445F4B 
 4140      455900
 4141 0e40 09       		.byte	0x9
 4142 0e41 2601     		.word	0x126
 4143 0e43 0A       		.byte	0xa
 4144 0e44 480E0000 		.long	0xe48
 4145 0e48 03       		.uleb128 0x3
 4146 0e49 4D0E0000 		.long	0xe4d
 4147 0e4d 06       		.uleb128 0x6
 4148 0e4e 2E030000 		.long	0x32e
 4149 0e52 610E0000 		.long	0xe61
 4150 0e56 01       		.uleb128 0x1
 4151 0e57 C80D0000 		.long	0xdc8
 4152 0e5b 01       		.uleb128 0x1
 4153 0e5c 610E0000 		.long	0xe61
 4154 0e60 00       		.byte	0
 4155 0e61 03       		.uleb128 0x3
 4156 0e62 800D0000 		.long	0xd80
 4157 0e66 07       		.uleb128 0x7
 4158 0e67 53494D50 		.ascii "SIMPLE_INPUT_INTERFACE\0"
 4158      4C455F49 
 4158      4E505554 
 4158      5F494E54 
 4158      45524641 
 4159 0e7e 09       		.byte	0x9
 4160 0e7f 2F01     		.word	0x12f
 4161 0e81 03       		.byte	0x3
 4162 0e82 CD0D0000 		.long	0xdcd
 4163 0e86 03       		.uleb128 0x3
 4164 0e87 15030000 		.long	0x315
 4165 0e8b 05       		.uleb128 0x5
 4166 0e8c 4546495F 		.ascii "EFI_ALLOCATE_PAGES\0"
 4166      414C4C4F 
 4166      43415445 
 4166      5F504147 
 4166      455300
 4167 0e9f 08       		.byte	0x8
 4168 0ea0 2C       		.byte	0x2c
 4169 0ea1 0A       		.byte	0xa
 4170 0ea2 A60E0000 		.long	0xea6
 4171 0ea6 03       		.uleb128 0x3
 4172 0ea7 AB0E0000 		.long	0xeab
 4173 0eab 06       		.uleb128 0x6
 4174 0eac 2E030000 		.long	0x32e
 4175 0eb0 C90E0000 		.long	0xec9
 4176 0eb4 01       		.uleb128 0x1
 4177 0eb5 3D050000 		.long	0x53d
 4178 0eb9 01       		.uleb128 0x1
 4179 0eba D0060000 		.long	0x6d0
 4180 0ebe 01       		.uleb128 0x1
 4181 0ebf 02030000 		.long	0x302
 4182 0ec3 01       		.uleb128 0x1
 4183 0ec4 2E080000 		.long	0x82e
 4184 0ec8 00       		.byte	0
 4185 0ec9 05       		.uleb128 0x5
 4186 0eca 4546495F 		.ascii "EFI_FREE_PAGES\0"
 4186      46524545 
 4186      5F504147 
 4186      455300
 4187 0ed9 08       		.byte	0x8
 4188 0eda 35       		.byte	0x35
 4189 0edb 0A       		.byte	0xa
 4190 0edc E00E0000 		.long	0xee0
 4191 0ee0 03       		.uleb128 0x3
 4192 0ee1 E50E0000 		.long	0xee5
 4193 0ee5 06       		.uleb128 0x6
 4194 0ee6 2E030000 		.long	0x32e
 4195 0eea F90E0000 		.long	0xef9
 4196 0eee 01       		.uleb128 0x1
 4197 0eef AC040000 		.long	0x4ac
 4198 0ef3 01       		.uleb128 0x1
 4199 0ef4 02030000 		.long	0x302
 4200 0ef8 00       		.byte	0
 4201 0ef9 05       		.uleb128 0x5
 4202 0efa 4546495F 		.ascii "EFI_GET_MEMORY_MAP\0"
 4202      4745545F 
 4202      4D454D4F 
 4202      52595F4D 
 4202      415000
 4203 0f0d 08       		.byte	0x8
 4204 0f0e 3C       		.byte	0x3c
 4205 0f0f 0A       		.byte	0xa
 4206 0f10 140F0000 		.long	0xf14
 4207 0f14 03       		.uleb128 0x3
 4208 0f15 190F0000 		.long	0xf19
 4209 0f19 06       		.uleb128 0x6
 4210 0f1a 2E030000 		.long	0x32e
 4211 0f1e 3C0F0000 		.long	0xf3c
 4212 0f22 01       		.uleb128 0x1
 4213 0f23 1F080000 		.long	0x81f
 4214 0f27 01       		.uleb128 0x1
 4215 0f28 3C0F0000 		.long	0xf3c
 4216 0f2c 01       		.uleb128 0x1
 4217 0f2d 1F080000 		.long	0x81f
 4218 0f31 01       		.uleb128 0x1
 4219 0f32 1F080000 		.long	0x81f
 4220 0f36 01       		.uleb128 0x1
 4221 0f37 4C080000 		.long	0x84c
 4222 0f3b 00       		.byte	0
 4223 0f3c 03       		.uleb128 0x3
 4224 0f3d 5C070000 		.long	0x75c
 4225 0f41 05       		.uleb128 0x5
 4226 0f42 4546495F 		.ascii "EFI_ALLOCATE_POOL\0"
 4226      414C4C4F 
 4226      43415445 
 4226      5F504F4F 
 4226      4C00
 4227 0f54 08       		.byte	0x8
 4228 0f55 49       		.byte	0x49
 4229 0f56 0A       		.byte	0xa
 4230 0f57 5B0F0000 		.long	0xf5b
 4231 0f5b 03       		.uleb128 0x3
 4232 0f5c 600F0000 		.long	0xf60
 4233 0f60 06       		.uleb128 0x6
 4234 0f61 2E030000 		.long	0x32e
 4235 0f65 790F0000 		.long	0xf79
 4236 0f69 01       		.uleb128 0x1
 4237 0f6a D0060000 		.long	0x6d0
 4238 0f6e 01       		.uleb128 0x1
 4239 0f6f 02030000 		.long	0x302
 4240 0f73 01       		.uleb128 0x1
 4241 0f74 29080000 		.long	0x829
 4242 0f78 00       		.byte	0
 4243 0f79 05       		.uleb128 0x5
 4244 0f7a 4546495F 		.ascii "EFI_FREE_POOL\0"
 4244      46524545 
 4244      5F504F4F 
 4244      4C00
 4245 0f88 08       		.byte	0x8
 4246 0f89 51       		.byte	0x51
 4247 0f8a 0A       		.byte	0xa
 4248 0f8b 8F0F0000 		.long	0xf8f
 4249 0f8f 03       		.uleb128 0x3
 4250 0f90 940F0000 		.long	0xf94
 4251 0f94 06       		.uleb128 0x6
 4252 0f95 2E030000 		.long	0x32e
 4253 0f99 A30F0000 		.long	0xfa3
 4254 0f9d 01       		.uleb128 0x1
 4255 0f9e 64030000 		.long	0x364
 4256 0fa2 00       		.byte	0
 4257 0fa3 05       		.uleb128 0x5
 4258 0fa4 4546495F 		.ascii "EFI_SET_VIRTUAL_ADDRESS_MAP\0"
 4258      5345545F 
 4258      56495254 
 4258      55414C5F 
 4258      41444452 
 4259 0fc0 08       		.byte	0x8
 4260 0fc1 57       		.byte	0x57
 4261 0fc2 0A       		.byte	0xa
 4262 0fc3 C70F0000 		.long	0xfc7
 4263 0fc7 03       		.uleb128 0x3
 4264 0fc8 CC0F0000 		.long	0xfcc
 4265 0fcc 06       		.uleb128 0x6
 4266 0fcd 2E030000 		.long	0x32e
 4267 0fd1 EA0F0000 		.long	0xfea
 4268 0fd5 01       		.uleb128 0x1
 4269 0fd6 02030000 		.long	0x302
 4270 0fda 01       		.uleb128 0x1
 4271 0fdb 02030000 		.long	0x302
 4272 0fdf 01       		.uleb128 0x1
 4273 0fe0 9F020000 		.long	0x29f
 4274 0fe4 01       		.uleb128 0x1
 4275 0fe5 3C0F0000 		.long	0xf3c
 4276 0fe9 00       		.byte	0
 4277 0fea 05       		.uleb128 0x5
 4278 0feb 4546495F 		.ascii "EFI_CONVERT_POINTER\0"
 4278      434F4E56 
 4278      4552545F 
 4278      504F494E 
 4278      54455200 
 4279 0fff 08       		.byte	0x8
 4280 1000 66       		.byte	0x66
 4281 1001 0A       		.byte	0xa
 4282 1002 06100000 		.long	0x1006
 4283 1006 03       		.uleb128 0x3
 4284 1007 0B100000 		.long	0x100b
 4285 100b 06       		.uleb128 0x6
 4286 100c 2E030000 		.long	0x32e
 4287 1010 1F100000 		.long	0x101f
 4288 1014 01       		.uleb128 0x1
 4289 1015 02030000 		.long	0x302
 4290 1019 01       		.uleb128 0x1
 4291 101a 29080000 		.long	0x829
 4292 101e 00       		.byte	0
 4293 101f 05       		.uleb128 0x5
 4294 1020 4546495F 		.ascii "EFI_EVENT_NOTIFY\0"
 4294      4556454E 
 4294      545F4E4F 
 4294      54494659 
 4294      00
 4295 1031 08       		.byte	0x8
 4296 1032 8A       		.byte	0x8a
 4297 1033 0A       		.byte	0xa
 4298 1034 38100000 		.long	0x1038
 4299 1038 03       		.uleb128 0x3
 4300 1039 3D100000 		.long	0x103d
 4301 103d 20       		.uleb128 0x20
 4302 103e 4D100000 		.long	0x104d
 4303 1042 01       		.uleb128 0x1
 4304 1043 69030000 		.long	0x369
 4305 1047 01       		.uleb128 0x1
 4306 1048 64030000 		.long	0x364
 4307 104c 00       		.byte	0
 4308 104d 05       		.uleb128 0x5
 4309 104e 4546495F 		.ascii "EFI_CREATE_EVENT\0"
 4309      43524541 
 4309      54455F45 
 4309      56454E54 
 4309      00
 4310 105f 08       		.byte	0x8
 4311 1060 91       		.byte	0x91
 4312 1061 0A       		.byte	0xa
 4313 1062 66100000 		.long	0x1066
 4314 1066 03       		.uleb128 0x3
 4315 1067 6B100000 		.long	0x106b
 4316 106b 06       		.uleb128 0x6
 4317 106c 2E030000 		.long	0x32e
 4318 1070 8E100000 		.long	0x108e
 4319 1074 01       		.uleb128 0x1
 4320 1075 9F020000 		.long	0x29f
 4321 1079 01       		.uleb128 0x1
 4322 107a 41030000 		.long	0x341
 4323 107e 01       		.uleb128 0x1
 4324 107f 1F100000 		.long	0x101f
 4325 1083 01       		.uleb128 0x1
 4326 1084 64030000 		.long	0x364
 4327 1088 01       		.uleb128 0x1
 4328 1089 8E100000 		.long	0x108e
 4329 108d 00       		.byte	0
 4330 108e 03       		.uleb128 0x3
 4331 108f 69030000 		.long	0x369
 4332 1093 26       		.uleb128 0x26
 4333 1094 13020000 		.long	0x213
 4334 1098 08       		.byte	0x8
 4335 1099 99       		.byte	0x99
 4336 109a DC100000 		.long	0x10dc
 4337 109e 0A       		.uleb128 0xa
 4338 109f 54696D65 		.ascii "TimerCancel\0"
 4338      7243616E 
 4338      63656C00 
 4339 10ab 00       		.byte	0
 4340 10ac 0A       		.uleb128 0xa
 4341 10ad 54696D65 		.ascii "TimerPeriodic\0"
 4341      72506572 
 4341      696F6469 
 4341      6300
 4342 10bb 01       		.byte	0x1
 4343 10bc 0A       		.uleb128 0xa
 4344 10bd 54696D65 		.ascii "TimerRelative\0"
 4344      7252656C 
 4344      61746976 
 4344      6500
 4345 10cb 02       		.byte	0x2
 4346 10cc 0A       		.uleb128 0xa
 4347 10cd 54696D65 		.ascii "TimerTypeMax\0"
 4347      72547970 
 4347      654D6178 
 4347      00
 4348 10da 03       		.byte	0x3
 4349 10db 00       		.byte	0
 4350 10dc 05       		.uleb128 0x5
 4351 10dd 4546495F 		.ascii "EFI_TIMER_DELAY\0"
 4351      54494D45 
 4351      525F4445 
 4351      4C415900 
 4352 10ed 08       		.byte	0x8
 4353 10ee 9E       		.byte	0x9e
 4354 10ef 03       		.byte	0x3
 4355 10f0 93100000 		.long	0x1093
 4356 10f4 05       		.uleb128 0x5
 4357 10f5 4546495F 		.ascii "EFI_SET_TIMER\0"
 4357      5345545F 
 4357      54494D45 
 4357      5200
 4358 1103 08       		.byte	0x8
 4359 1104 A2       		.byte	0xa2
 4360 1105 0A       		.byte	0xa
 4361 1106 0A110000 		.long	0x110a
 4362 110a 03       		.uleb128 0x3
 4363 110b 0F110000 		.long	0x110f
 4364 110f 06       		.uleb128 0x6
 4365 1110 2E030000 		.long	0x32e
 4366 1114 28110000 		.long	0x1128
 4367 1118 01       		.uleb128 0x1
 4368 1119 69030000 		.long	0x369
 4369 111d 01       		.uleb128 0x1
 4370 111e DC100000 		.long	0x10dc
 4371 1122 01       		.uleb128 0x1
 4372 1123 90020000 		.long	0x290
 4373 1127 00       		.byte	0
 4374 1128 05       		.uleb128 0x5
 4375 1129 4546495F 		.ascii "EFI_SIGNAL_EVENT\0"
 4375      5349474E 
 4375      414C5F45 
 4375      56454E54 
 4375      00
 4376 113a 08       		.byte	0x8
 4377 113b AA       		.byte	0xaa
 4378 113c 0A       		.byte	0xa
 4379 113d 41110000 		.long	0x1141
 4380 1141 03       		.uleb128 0x3
 4381 1142 46110000 		.long	0x1146
 4382 1146 06       		.uleb128 0x6
 4383 1147 2E030000 		.long	0x32e
 4384 114b 55110000 		.long	0x1155
 4385 114f 01       		.uleb128 0x1
 4386 1150 69030000 		.long	0x369
 4387 1154 00       		.byte	0
 4388 1155 05       		.uleb128 0x5
 4389 1156 4546495F 		.ascii "EFI_WAIT_FOR_EVENT\0"
 4389      57414954 
 4389      5F464F52 
 4389      5F455645 
 4389      4E5400
 4390 1169 08       		.byte	0x8
 4391 116a B0       		.byte	0xb0
 4392 116b 0A       		.byte	0xa
 4393 116c 70110000 		.long	0x1170
 4394 1170 03       		.uleb128 0x3
 4395 1171 75110000 		.long	0x1175
 4396 1175 06       		.uleb128 0x6
 4397 1176 2E030000 		.long	0x32e
 4398 117a 8E110000 		.long	0x118e
 4399 117e 01       		.uleb128 0x1
 4400 117f 02030000 		.long	0x302
 4401 1183 01       		.uleb128 0x1
 4402 1184 8E100000 		.long	0x108e
 4403 1188 01       		.uleb128 0x1
 4404 1189 1F080000 		.long	0x81f
 4405 118d 00       		.byte	0
 4406 118e 05       		.uleb128 0x5
 4407 118f 4546495F 		.ascii "EFI_CLOSE_EVENT\0"
 4407      434C4F53 
 4407      455F4556 
 4407      454E5400 
 4408 119f 08       		.byte	0x8
 4409 11a0 B8       		.byte	0xb8
 4410 11a1 0A       		.byte	0xa
 4411 11a2 41110000 		.long	0x1141
 4412 11a6 05       		.uleb128 0x5
 4413 11a7 4546495F 		.ascii "EFI_CHECK_EVENT\0"
 4413      43484543 
 4413      4B5F4556 
 4413      454E5400 
 4414 11b7 08       		.byte	0x8
 4415 11b8 BE       		.byte	0xbe
 4416 11b9 0A       		.byte	0xa
 4417 11ba 41110000 		.long	0x1141
 4418 11be 05       		.uleb128 0x5
 4419 11bf 4546495F 		.ascii "EFI_RAISE_TPL\0"
 4419      52414953 
 4419      455F5450 
 4419      4C00
 4420 11cd 08       		.byte	0x8
 4421 11ce D0       		.byte	0xd0
 4422 11cf 0A       		.byte	0xa
 4423 11d0 D4110000 		.long	0x11d4
 4424 11d4 03       		.uleb128 0x3
 4425 11d5 D9110000 		.long	0x11d9
 4426 11d9 06       		.uleb128 0x6
 4427 11da 41030000 		.long	0x341
 4428 11de E8110000 		.long	0x11e8
 4429 11e2 01       		.uleb128 0x1
 4430 11e3 41030000 		.long	0x341
 4431 11e7 00       		.byte	0
 4432 11e8 05       		.uleb128 0x5
 4433 11e9 4546495F 		.ascii "EFI_RESTORE_TPL\0"
 4433      52455354 
 4433      4F52455F 
 4433      54504C00 
 4434 11f9 08       		.byte	0x8
 4435 11fa D6       		.byte	0xd6
 4436 11fb 0A       		.byte	0xa
 4437 11fc 00120000 		.long	0x1200
 4438 1200 03       		.uleb128 0x3
 4439 1201 05120000 		.long	0x1205
 4440 1205 20       		.uleb128 0x20
 4441 1206 10120000 		.long	0x1210
 4442 120a 01       		.uleb128 0x1
 4443 120b 41030000 		.long	0x341
 4444 120f 00       		.byte	0
 4445 1210 05       		.uleb128 0x5
 4446 1211 4546495F 		.ascii "EFI_GET_VARIABLE\0"
 4446      4745545F 
 4446      56415249 
 4446      41424C45 
 4446      00
 4447 1222 08       		.byte	0x8
 4448 1223 F1       		.byte	0xf1
 4449 1224 0A       		.byte	0xa
 4450 1225 29120000 		.long	0x1229
 4451 1229 03       		.uleb128 0x3
 4452 122a 2E120000 		.long	0x122e
 4453 122e 06       		.uleb128 0x6
 4454 122f 2E030000 		.long	0x32e
 4455 1233 51120000 		.long	0x1251
 4456 1237 01       		.uleb128 0x1
 4457 1238 15080000 		.long	0x815
 4458 123c 01       		.uleb128 0x1
 4459 123d 33080000 		.long	0x833
 4460 1241 01       		.uleb128 0x1
 4461 1242 4C080000 		.long	0x84c
 4462 1246 01       		.uleb128 0x1
 4463 1247 1F080000 		.long	0x81f
 4464 124b 01       		.uleb128 0x1
 4465 124c 64030000 		.long	0x364
 4466 1250 00       		.byte	0
 4467 1251 05       		.uleb128 0x5
 4468 1252 4546495F 		.ascii "EFI_GET_NEXT_VARIABLE_NAME\0"
 4468      4745545F 
 4468      4E455854 
 4468      5F564152 
 4468      4941424C 
 4469 126d 08       		.byte	0x8
 4470 126e FB       		.byte	0xfb
 4471 126f 0A       		.byte	0xa
 4472 1270 74120000 		.long	0x1274
 4473 1274 03       		.uleb128 0x3
 4474 1275 79120000 		.long	0x1279
 4475 1279 06       		.uleb128 0x6
 4476 127a 2E030000 		.long	0x32e
 4477 127e 92120000 		.long	0x1292
 4478 1282 01       		.uleb128 0x1
 4479 1283 1F080000 		.long	0x81f
 4480 1287 01       		.uleb128 0x1
 4481 1288 15080000 		.long	0x815
 4482 128c 01       		.uleb128 0x1
 4483 128d 33080000 		.long	0x833
 4484 1291 00       		.byte	0
 4485 1292 07       		.uleb128 0x7
 4486 1293 4546495F 		.ascii "EFI_SET_VARIABLE\0"
 4486      5345545F 
 4486      56415249 
 4486      41424C45 
 4486      00
 4487 12a4 08       		.byte	0x8
 4488 12a5 0401     		.word	0x104
 4489 12a7 0A       		.byte	0xa
 4490 12a8 AC120000 		.long	0x12ac
 4491 12ac 03       		.uleb128 0x3
 4492 12ad B1120000 		.long	0x12b1
 4493 12b1 06       		.uleb128 0x6
 4494 12b2 2E030000 		.long	0x32e
 4495 12b6 D4120000 		.long	0x12d4
 4496 12ba 01       		.uleb128 0x1
 4497 12bb 15080000 		.long	0x815
 4498 12bf 01       		.uleb128 0x1
 4499 12c0 33080000 		.long	0x833
 4500 12c4 01       		.uleb128 0x1
 4501 12c5 9F020000 		.long	0x29f
 4502 12c9 01       		.uleb128 0x1
 4503 12ca 02030000 		.long	0x302
 4504 12ce 01       		.uleb128 0x1
 4505 12cf 64030000 		.long	0x364
 4506 12d3 00       		.byte	0
 4507 12d4 21       		.uleb128 0x21
 4508 12d5 0C       		.byte	0xc
 4509 12d6 1101     		.word	0x111
 4510 12d8 1A130000 		.long	0x131a
 4511 12dc 04       		.uleb128 0x4
 4512 12dd 5265736F 		.ascii "Resolution\0"
 4512      6C757469 
 4512      6F6E00
 4513 12e8 08       		.byte	0x8
 4514 12e9 1201     		.word	0x112
 4515 12eb 25       		.byte	0x25
 4516 12ec 9F020000 		.long	0x29f
 4517 12f0 00       		.byte	0
 4518 12f1 04       		.uleb128 0x4
 4519 12f2 41636375 		.ascii "Accuracy\0"
 4519      72616379 
 4519      00
 4520 12fb 08       		.byte	0x8
 4521 12fc 1301     		.word	0x113
 4522 12fe 25       		.byte	0x25
 4523 12ff 9F020000 		.long	0x29f
 4524 1303 04       		.byte	0x4
 4525 1304 04       		.uleb128 0x4
 4526 1305 53657473 		.ascii "SetsToZero\0"
 4526      546F5A65 
 4526      726F00
 4527 1310 08       		.byte	0x8
 4528 1311 1401     		.word	0x114
 4529 1313 25       		.byte	0x25
 4530 1314 15030000 		.long	0x315
 4531 1318 08       		.byte	0x8
 4532 1319 00       		.byte	0
 4533 131a 07       		.uleb128 0x7
 4534 131b 4546495F 		.ascii "EFI_TIME_CAPABILITIES\0"
 4534      54494D45 
 4534      5F434150 
 4534      4142494C 
 4534      49544945 
 4535 1331 08       		.byte	0x8
 4536 1332 1501     		.word	0x115
 4537 1334 03       		.byte	0x3
 4538 1335 D4120000 		.long	0x12d4
 4539 1339 07       		.uleb128 0x7
 4540 133a 4546495F 		.ascii "EFI_GET_TIME\0"
 4540      4745545F 
 4540      54494D45 
 4540      00
 4541 1347 08       		.byte	0x8
 4542 1348 1A01     		.word	0x11a
 4543 134a 0A       		.byte	0xa
 4544 134b 4F130000 		.long	0x134f
 4545 134f 03       		.uleb128 0x3
 4546 1350 54130000 		.long	0x1354
 4547 1354 06       		.uleb128 0x6
 4548 1355 2E030000 		.long	0x32e
 4549 1359 68130000 		.long	0x1368
 4550 135d 01       		.uleb128 0x1
 4551 135e 68130000 		.long	0x1368
 4552 1362 01       		.uleb128 0x1
 4553 1363 6D130000 		.long	0x136d
 4554 1367 00       		.byte	0
 4555 1368 03       		.uleb128 0x3
 4556 1369 9B040000 		.long	0x49b
 4557 136d 03       		.uleb128 0x3
 4558 136e 1A130000 		.long	0x131a
 4559 1372 07       		.uleb128 0x7
 4560 1373 4546495F 		.ascii "EFI_SET_TIME\0"
 4560      5345545F 
 4560      54494D45 
 4560      00
 4561 1380 08       		.byte	0x8
 4562 1381 2101     		.word	0x121
 4563 1383 0A       		.byte	0xa
 4564 1384 88130000 		.long	0x1388
 4565 1388 03       		.uleb128 0x3
 4566 1389 8D130000 		.long	0x138d
 4567 138d 06       		.uleb128 0x6
 4568 138e 2E030000 		.long	0x32e
 4569 1392 9C130000 		.long	0x139c
 4570 1396 01       		.uleb128 0x1
 4571 1397 68130000 		.long	0x1368
 4572 139b 00       		.byte	0
 4573 139c 07       		.uleb128 0x7
 4574 139d 4546495F 		.ascii "EFI_GET_WAKEUP_TIME\0"
 4574      4745545F 
 4574      57414B45 
 4574      55505F54 
 4574      494D4500 
 4575 13b1 08       		.byte	0x8
 4576 13b2 2701     		.word	0x127
 4577 13b4 0A       		.byte	0xa
 4578 13b5 B9130000 		.long	0x13b9
 4579 13b9 03       		.uleb128 0x3
 4580 13ba BE130000 		.long	0x13be
 4581 13be 06       		.uleb128 0x6
 4582 13bf 2E030000 		.long	0x32e
 4583 13c3 D7130000 		.long	0x13d7
 4584 13c7 01       		.uleb128 0x1
 4585 13c8 860E0000 		.long	0xe86
 4586 13cc 01       		.uleb128 0x1
 4587 13cd 860E0000 		.long	0xe86
 4588 13d1 01       		.uleb128 0x1
 4589 13d2 68130000 		.long	0x1368
 4590 13d6 00       		.byte	0
 4591 13d7 07       		.uleb128 0x7
 4592 13d8 4546495F 		.ascii "EFI_SET_WAKEUP_TIME\0"
 4592      5345545F 
 4592      57414B45 
 4592      55505F54 
 4592      494D4500 
 4593 13ec 08       		.byte	0x8
 4594 13ed 2F01     		.word	0x12f
 4595 13ef 0A       		.byte	0xa
 4596 13f0 F4130000 		.long	0x13f4
 4597 13f4 03       		.uleb128 0x3
 4598 13f5 F9130000 		.long	0x13f9
 4599 13f9 06       		.uleb128 0x6
 4600 13fa 2E030000 		.long	0x32e
 4601 13fe 0D140000 		.long	0x140d
 4602 1402 01       		.uleb128 0x1
 4603 1403 15030000 		.long	0x315
 4604 1407 01       		.uleb128 0x1
 4605 1408 68130000 		.long	0x1368
 4606 140c 00       		.byte	0
 4607 140d 07       		.uleb128 0x7
 4608 140e 4546495F 		.ascii "EFI_IMAGE_LOAD\0"
 4608      494D4147 
 4608      455F4C4F 
 4608      414400
 4609 141d 08       		.byte	0x8
 4610 141e 7B01     		.word	0x17b
 4611 1420 0A       		.byte	0xa
 4612 1421 25140000 		.long	0x1425
 4613 1425 03       		.uleb128 0x3
 4614 1426 2A140000 		.long	0x142a
 4615 142a 06       		.uleb128 0x6
 4616 142b 2E030000 		.long	0x32e
 4617 142f 52140000 		.long	0x1452
 4618 1433 01       		.uleb128 0x1
 4619 1434 15030000 		.long	0x315
 4620 1438 01       		.uleb128 0x1
 4621 1439 51030000 		.long	0x351
 4622 143d 01       		.uleb128 0x1
 4623 143e 38080000 		.long	0x838
 4624 1442 01       		.uleb128 0x1
 4625 1443 64030000 		.long	0x364
 4626 1447 01       		.uleb128 0x1
 4627 1448 02030000 		.long	0x302
 4628 144c 01       		.uleb128 0x1
 4629 144d 47080000 		.long	0x847
 4630 1451 00       		.byte	0
 4631 1452 07       		.uleb128 0x7
 4632 1453 4546495F 		.ascii "EFI_IMAGE_START\0"
 4632      494D4147 
 4632      455F5354 
 4632      41525400 
 4633 1463 08       		.byte	0x8
 4634 1464 8601     		.word	0x186
 4635 1466 0A       		.byte	0xa
 4636 1467 6B140000 		.long	0x146b
 4637 146b 03       		.uleb128 0x3
 4638 146c 70140000 		.long	0x1470
 4639 1470 06       		.uleb128 0x6
 4640 1471 2E030000 		.long	0x32e
 4641 1475 89140000 		.long	0x1489
 4642 1479 01       		.uleb128 0x1
 4643 147a 51030000 		.long	0x351
 4644 147e 01       		.uleb128 0x1
 4645 147f 1F080000 		.long	0x81f
 4646 1483 01       		.uleb128 0x1
 4647 1484 51080000 		.long	0x851
 4648 1488 00       		.byte	0
 4649 1489 07       		.uleb128 0x7
 4650 148a 4546495F 		.ascii "EFI_EXIT\0"
 4650      45584954 
 4650      00
 4651 1493 08       		.byte	0x8
 4652 1494 8E01     		.word	0x18e
 4653 1496 0A       		.byte	0xa
 4654 1497 9B140000 		.long	0x149b
 4655 149b 03       		.uleb128 0x3
 4656 149c A0140000 		.long	0x14a0
 4657 14a0 06       		.uleb128 0x6
 4658 14a1 2E030000 		.long	0x32e
 4659 14a5 BE140000 		.long	0x14be
 4660 14a9 01       		.uleb128 0x1
 4661 14aa 51030000 		.long	0x351
 4662 14ae 01       		.uleb128 0x1
 4663 14af 2E030000 		.long	0x32e
 4664 14b3 01       		.uleb128 0x1
 4665 14b4 02030000 		.long	0x302
 4666 14b8 01       		.uleb128 0x1
 4667 14b9 15080000 		.long	0x815
 4668 14bd 00       		.byte	0
 4669 14be 07       		.uleb128 0x7
 4670 14bf 4546495F 		.ascii "EFI_EXIT_BOOT_SERVICES\0"
 4670      45584954 
 4670      5F424F4F 
 4670      545F5345 
 4670      52564943 
 4671 14d6 08       		.byte	0x8
 4672 14d7 B701     		.word	0x1b7
 4673 14d9 0A       		.byte	0xa
 4674 14da DE140000 		.long	0x14de
 4675 14de 03       		.uleb128 0x3
 4676 14df E3140000 		.long	0x14e3
 4677 14e3 06       		.uleb128 0x6
 4678 14e4 2E030000 		.long	0x32e
 4679 14e8 F7140000 		.long	0x14f7
 4680 14ec 01       		.uleb128 0x1
 4681 14ed 51030000 		.long	0x351
 4682 14f1 01       		.uleb128 0x1
 4683 14f2 02030000 		.long	0x302
 4684 14f6 00       		.byte	0
 4685 14f7 07       		.uleb128 0x7
 4686 14f8 4546495F 		.ascii "EFI_STALL\0"
 4686      5354414C 
 4686      4C00
 4687 1502 08       		.byte	0x8
 4688 1503 C301     		.word	0x1c3
 4689 1505 0A       		.byte	0xa
 4690 1506 0A150000 		.long	0x150a
 4691 150a 03       		.uleb128 0x3
 4692 150b 0F150000 		.long	0x150f
 4693 150f 06       		.uleb128 0x6
 4694 1510 2E030000 		.long	0x32e
 4695 1514 1E150000 		.long	0x151e
 4696 1518 01       		.uleb128 0x1
 4697 1519 02030000 		.long	0x302
 4698 151d 00       		.byte	0
 4699 151e 07       		.uleb128 0x7
 4700 151f 4546495F 		.ascii "EFI_SET_WATCHDOG_TIMER\0"
 4700      5345545F 
 4700      57415443 
 4700      48444F47 
 4700      5F54494D 
 4701 1536 08       		.byte	0x8
 4702 1537 C901     		.word	0x1c9
 4703 1539 0A       		.byte	0xa
 4704 153a 3E150000 		.long	0x153e
 4705 153e 03       		.uleb128 0x3
 4706 153f 43150000 		.long	0x1543
 4707 1543 06       		.uleb128 0x6
 4708 1544 2E030000 		.long	0x32e
 4709 1548 61150000 		.long	0x1561
 4710 154c 01       		.uleb128 0x1
 4711 154d 02030000 		.long	0x302
 4712 1551 01       		.uleb128 0x1
 4713 1552 90020000 		.long	0x290
 4714 1556 01       		.uleb128 0x1
 4715 1557 02030000 		.long	0x302
 4716 155b 01       		.uleb128 0x1
 4717 155c 15080000 		.long	0x815
 4718 1560 00       		.byte	0
 4719 1561 07       		.uleb128 0x7
 4720 1562 4546495F 		.ascii "EFI_CONNECT_CONTROLLER\0"
 4720      434F4E4E 
 4720      4543545F 
 4720      434F4E54 
 4720      524F4C4C 
 4721 1579 08       		.byte	0x8
 4722 157a D201     		.word	0x1d2
 4723 157c 0A       		.byte	0xa
 4724 157d 81150000 		.long	0x1581
 4725 1581 03       		.uleb128 0x3
 4726 1582 86150000 		.long	0x1586
 4727 1586 06       		.uleb128 0x6
 4728 1587 2E030000 		.long	0x32e
 4729 158b A4150000 		.long	0x15a4
 4730 158f 01       		.uleb128 0x1
 4731 1590 51030000 		.long	0x351
 4732 1594 01       		.uleb128 0x1
 4733 1595 47080000 		.long	0x847
 4734 1599 01       		.uleb128 0x1
 4735 159a 38080000 		.long	0x838
 4736 159e 01       		.uleb128 0x1
 4737 159f 15030000 		.long	0x315
 4738 15a3 00       		.byte	0
 4739 15a4 07       		.uleb128 0x7
 4740 15a5 4546495F 		.ascii "EFI_DISCONNECT_CONTROLLER\0"
 4740      44495343 
 4740      4F4E4E45 
 4740      43545F43 
 4740      4F4E5452 
 4741 15bf 08       		.byte	0x8
 4742 15c0 DB01     		.word	0x1db
 4743 15c2 0A       		.byte	0xa
 4744 15c3 C7150000 		.long	0x15c7
 4745 15c7 03       		.uleb128 0x3
 4746 15c8 CC150000 		.long	0x15cc
 4747 15cc 06       		.uleb128 0x6
 4748 15cd 2E030000 		.long	0x32e
 4749 15d1 E5150000 		.long	0x15e5
 4750 15d5 01       		.uleb128 0x1
 4751 15d6 51030000 		.long	0x351
 4752 15da 01       		.uleb128 0x1
 4753 15db 51030000 		.long	0x351
 4754 15df 01       		.uleb128 0x1
 4755 15e0 51030000 		.long	0x351
 4756 15e4 00       		.byte	0
 4757 15e5 07       		.uleb128 0x7
 4758 15e6 4546495F 		.ascii "EFI_OPEN_PROTOCOL\0"
 4758      4F50454E 
 4758      5F50524F 
 4758      544F434F 
 4758      4C00
 4759 15f8 08       		.byte	0x8
 4760 15f9 EA01     		.word	0x1ea
 4761 15fb 0A       		.byte	0xa
 4762 15fc 00160000 		.long	0x1600
 4763 1600 03       		.uleb128 0x3
 4764 1601 05160000 		.long	0x1605
 4765 1605 06       		.uleb128 0x6
 4766 1606 2E030000 		.long	0x32e
 4767 160a 2D160000 		.long	0x162d
 4768 160e 01       		.uleb128 0x1
 4769 160f 51030000 		.long	0x351
 4770 1613 01       		.uleb128 0x1
 4771 1614 33080000 		.long	0x833
 4772 1618 01       		.uleb128 0x1
 4773 1619 29080000 		.long	0x829
 4774 161d 01       		.uleb128 0x1
 4775 161e 51030000 		.long	0x351
 4776 1622 01       		.uleb128 0x1
 4777 1623 51030000 		.long	0x351
 4778 1627 01       		.uleb128 0x1
 4779 1628 9F020000 		.long	0x29f
 4780 162c 00       		.byte	0
 4781 162d 07       		.uleb128 0x7
 4782 162e 4546495F 		.ascii "EFI_CLOSE_PROTOCOL\0"
 4782      434C4F53 
 4782      455F5052 
 4782      4F544F43 
 4782      4F4C00
 4783 1641 08       		.byte	0x8
 4784 1642 F501     		.word	0x1f5
 4785 1644 0A       		.byte	0xa
 4786 1645 49160000 		.long	0x1649
 4787 1649 03       		.uleb128 0x3
 4788 164a 4E160000 		.long	0x164e
 4789 164e 06       		.uleb128 0x6
 4790 164f 2E030000 		.long	0x32e
 4791 1653 6C160000 		.long	0x166c
 4792 1657 01       		.uleb128 0x1
 4793 1658 51030000 		.long	0x351
 4794 165c 01       		.uleb128 0x1
 4795 165d 33080000 		.long	0x833
 4796 1661 01       		.uleb128 0x1
 4797 1662 51030000 		.long	0x351
 4798 1666 01       		.uleb128 0x1
 4799 1667 51030000 		.long	0x351
 4800 166b 00       		.byte	0
 4801 166c 21       		.uleb128 0x21
 4802 166d 18       		.byte	0x18
 4803 166e FC01     		.word	0x1fc
 4804 1670 CF160000 		.long	0x16cf
 4805 1674 04       		.uleb128 0x4
 4806 1675 4167656E 		.ascii "AgentHandle\0"
 4806      7448616E 
 4806      646C6500 
 4807 1681 08       		.byte	0x8
 4808 1682 FD01     		.word	0x1fd
 4809 1684 21       		.byte	0x21
 4810 1685 51030000 		.long	0x351
 4811 1689 00       		.byte	0
 4812 168a 04       		.uleb128 0x4
 4813 168b 436F6E74 		.ascii "ControllerHandle\0"
 4813      726F6C6C 
 4813      65724861 
 4813      6E646C65 
 4813      00
 4814 169c 08       		.byte	0x8
 4815 169d FE01     		.word	0x1fe
 4816 169f 21       		.byte	0x21
 4817 16a0 51030000 		.long	0x351
 4818 16a4 08       		.byte	0x8
 4819 16a5 04       		.uleb128 0x4
 4820 16a6 41747472 		.ascii "Attributes\0"
 4820      69627574 
 4820      657300
 4821 16b1 08       		.byte	0x8
 4822 16b2 FF01     		.word	0x1ff
 4823 16b4 21       		.byte	0x21
 4824 16b5 9F020000 		.long	0x29f
 4825 16b9 10       		.byte	0x10
 4826 16ba 04       		.uleb128 0x4
 4827 16bb 4F70656E 		.ascii "OpenCount\0"
 4827      436F756E 
 4827      7400
 4828 16c5 08       		.byte	0x8
 4829 16c6 0002     		.word	0x200
 4830 16c8 21       		.byte	0x21
 4831 16c9 9F020000 		.long	0x29f
 4832 16cd 14       		.byte	0x14
 4833 16ce 00       		.byte	0
 4834 16cf 07       		.uleb128 0x7
 4835 16d0 4546495F 		.ascii "EFI_OPEN_PROTOCOL_INFORMATION_ENTRY\0"
 4835      4F50454E 
 4835      5F50524F 
 4835      544F434F 
 4835      4C5F494E 
 4836 16f4 08       		.byte	0x8
 4837 16f5 0102     		.word	0x201
 4838 16f7 03       		.byte	0x3
 4839 16f8 6C160000 		.long	0x166c
 4840 16fc 07       		.uleb128 0x7
 4841 16fd 4546495F 		.ascii "EFI_OPEN_PROTOCOL_INFORMATION\0"
 4841      4F50454E 
 4841      5F50524F 
 4841      544F434F 
 4841      4C5F494E 
 4842 171b 08       		.byte	0x8
 4843 171c 0502     		.word	0x205
 4844 171e 0A       		.byte	0xa
 4845 171f 23170000 		.long	0x1723
 4846 1723 03       		.uleb128 0x3
 4847 1724 28170000 		.long	0x1728
 4848 1728 06       		.uleb128 0x6
 4849 1729 2E030000 		.long	0x32e
 4850 172d 46170000 		.long	0x1746
 4851 1731 01       		.uleb128 0x1
 4852 1732 51030000 		.long	0x351
 4853 1736 01       		.uleb128 0x1
 4854 1737 33080000 		.long	0x833
 4855 173b 01       		.uleb128 0x1
 4856 173c 46170000 		.long	0x1746
 4857 1740 01       		.uleb128 0x1
 4858 1741 1F080000 		.long	0x81f
 4859 1745 00       		.byte	0
 4860 1746 03       		.uleb128 0x3
 4861 1747 4B170000 		.long	0x174b
 4862 174b 03       		.uleb128 0x3
 4863 174c CF160000 		.long	0x16cf
 4864 1750 07       		.uleb128 0x7
 4865 1751 4546495F 		.ascii "EFI_PROTOCOLS_PER_HANDLE\0"
 4865      50524F54 
 4865      4F434F4C 
 4865      535F5045 
 4865      525F4841 
 4866 176a 08       		.byte	0x8
 4867 176b 0E02     		.word	0x20e
 4868 176d 0A       		.byte	0xa
 4869 176e 72170000 		.long	0x1772
 4870 1772 03       		.uleb128 0x3
 4871 1773 77170000 		.long	0x1777
 4872 1777 06       		.uleb128 0x6
 4873 1778 2E030000 		.long	0x32e
 4874 177c 90170000 		.long	0x1790
 4875 1780 01       		.uleb128 0x1
 4876 1781 51030000 		.long	0x351
 4877 1785 01       		.uleb128 0x1
 4878 1786 90170000 		.long	0x1790
 4879 178a 01       		.uleb128 0x1
 4880 178b 1F080000 		.long	0x81f
 4881 178f 00       		.byte	0
 4882 1790 03       		.uleb128 0x3
 4883 1791 95170000 		.long	0x1795
 4884 1795 03       		.uleb128 0x3
 4885 1796 33080000 		.long	0x833
 4886 179a 28       		.uleb128 0x28
 4887 179b 13020000 		.long	0x213
 4888 179f 1402     		.word	0x214
 4889 17a1 D3170000 		.long	0x17d3
 4890 17a5 0A       		.uleb128 0xa
 4891 17a6 416C6C48 		.ascii "AllHandles\0"
 4891      616E646C 
 4891      657300
 4892 17b1 00       		.byte	0
 4893 17b2 0A       		.uleb128 0xa
 4894 17b3 42795265 		.ascii "ByRegisterNotify\0"
 4894      67697374 
 4894      65724E6F 
 4894      74696679 
 4894      00
 4895 17c4 01       		.byte	0x1
 4896 17c5 0A       		.uleb128 0xa
 4897 17c6 42795072 		.ascii "ByProtocol\0"
 4897      6F746F63 
 4897      6F6C00
 4898 17d1 02       		.byte	0x2
 4899 17d2 00       		.byte	0
 4900 17d3 07       		.uleb128 0x7
 4901 17d4 4546495F 		.ascii "EFI_LOCATE_SEARCH_TYPE\0"
 4901      4C4F4341 
 4901      54455F53 
 4901      45415243 
 4901      485F5459 
 4902 17eb 08       		.byte	0x8
 4903 17ec 1802     		.word	0x218
 4904 17ee 03       		.byte	0x3
 4905 17ef 9A170000 		.long	0x179a
 4906 17f3 07       		.uleb128 0x7
 4907 17f4 4546495F 		.ascii "EFI_LOCATE_HANDLE_BUFFER\0"
 4907      4C4F4341 
 4907      54455F48 
 4907      414E444C 
 4907      455F4255 
 4908 180d 08       		.byte	0x8
 4909 180e 1C02     		.word	0x21c
 4910 1810 0A       		.byte	0xa
 4911 1811 15180000 		.long	0x1815
 4912 1815 03       		.uleb128 0x3
 4913 1816 1A180000 		.long	0x181a
 4914 181a 06       		.uleb128 0x6
 4915 181b 2E030000 		.long	0x32e
 4916 181f 3D180000 		.long	0x183d
 4917 1823 01       		.uleb128 0x1
 4918 1824 D3170000 		.long	0x17d3
 4919 1828 01       		.uleb128 0x1
 4920 1829 33080000 		.long	0x833
 4921 182d 01       		.uleb128 0x1
 4922 182e 64030000 		.long	0x364
 4923 1832 01       		.uleb128 0x1
 4924 1833 1F080000 		.long	0x81f
 4925 1837 01       		.uleb128 0x1
 4926 1838 3D180000 		.long	0x183d
 4927 183c 00       		.byte	0
 4928 183d 03       		.uleb128 0x3
 4929 183e 47080000 		.long	0x847
 4930 1842 07       		.uleb128 0x7
 4931 1843 4546495F 		.ascii "EFI_LOCATE_PROTOCOL\0"
 4931      4C4F4341 
 4931      54455F50 
 4931      524F544F 
 4931      434F4C00 
 4932 1857 08       		.byte	0x8
 4933 1858 2602     		.word	0x226
 4934 185a 0A       		.byte	0xa
 4935 185b 5F180000 		.long	0x185f
 4936 185f 03       		.uleb128 0x3
 4937 1860 64180000 		.long	0x1864
 4938 1864 06       		.uleb128 0x6
 4939 1865 2E030000 		.long	0x32e
 4940 1869 7D180000 		.long	0x187d
 4941 186d 01       		.uleb128 0x1
 4942 186e 33080000 		.long	0x833
 4943 1872 01       		.uleb128 0x1
 4944 1873 64030000 		.long	0x364
 4945 1877 01       		.uleb128 0x1
 4946 1878 29080000 		.long	0x829
 4947 187c 00       		.byte	0
 4948 187d 07       		.uleb128 0x7
 4949 187e 4546495F 		.ascii "EFI_INSTALL_MULTIPLE_PROTOCOL_INTERFACES\0"
 4949      494E5354 
 4949      414C4C5F 
 4949      4D554C54 
 4949      49504C45 
 4950 18a7 08       		.byte	0x8
 4951 18a8 2E02     		.word	0x22e
 4952 18aa 0A       		.byte	0xa
 4953 18ab AF180000 		.long	0x18af
 4954 18af 03       		.uleb128 0x3
 4955 18b0 B4180000 		.long	0x18b4
 4956 18b4 06       		.uleb128 0x6
 4957 18b5 2E030000 		.long	0x32e
 4958 18b9 C4180000 		.long	0x18c4
 4959 18bd 01       		.uleb128 0x1
 4960 18be 47080000 		.long	0x847
 4961 18c2 29       		.uleb128 0x29
 4962 18c3 00       		.byte	0
 4963 18c4 07       		.uleb128 0x7
 4964 18c5 4546495F 		.ascii "EFI_UNINSTALL_MULTIPLE_PROTOCOL_INTERFACES\0"
 4964      554E494E 
 4964      5354414C 
 4964      4C5F4D55 
 4964      4C544950 
 4965 18f0 08       		.byte	0x8
 4966 18f1 3502     		.word	0x235
 4967 18f3 0A       		.byte	0xa
 4968 18f4 F8180000 		.long	0x18f8
 4969 18f8 03       		.uleb128 0x3
 4970 18f9 FD180000 		.long	0x18fd
 4971 18fd 06       		.uleb128 0x6
 4972 18fe 2E030000 		.long	0x32e
 4973 1902 0D190000 		.long	0x190d
 4974 1906 01       		.uleb128 0x1
 4975 1907 51030000 		.long	0x351
 4976 190b 29       		.uleb128 0x29
 4977 190c 00       		.byte	0
 4978 190d 07       		.uleb128 0x7
 4979 190e 4546495F 		.ascii "EFI_CALCULATE_CRC32\0"
 4979      43414C43 
 4979      554C4154 
 4979      455F4352 
 4979      43333200 
 4980 1922 08       		.byte	0x8
 4981 1923 3C02     		.word	0x23c
 4982 1925 0A       		.byte	0xa
 4983 1926 2A190000 		.long	0x192a
 4984 192a 03       		.uleb128 0x3
 4985 192b 2F190000 		.long	0x192f
 4986 192f 06       		.uleb128 0x6
 4987 1930 2E030000 		.long	0x32e
 4988 1934 48190000 		.long	0x1948
 4989 1938 01       		.uleb128 0x1
 4990 1939 64030000 		.long	0x364
 4991 193d 01       		.uleb128 0x1
 4992 193e 02030000 		.long	0x302
 4993 1942 01       		.uleb128 0x1
 4994 1943 4C080000 		.long	0x84c
 4995 1947 00       		.byte	0
 4996 1948 07       		.uleb128 0x7
 4997 1949 4546495F 		.ascii "EFI_COPY_MEM\0"
 4997      434F5059 
 4997      5F4D454D 
 4997      00
 4998 1956 08       		.byte	0x8
 4999 1957 4402     		.word	0x244
 5000 1959 0A       		.byte	0xa
 5001 195a 5E190000 		.long	0x195e
 5002 195e 03       		.uleb128 0x3
 5003 195f 63190000 		.long	0x1963
 5004 1963 20       		.uleb128 0x20
 5005 1964 78190000 		.long	0x1978
 5006 1968 01       		.uleb128 0x1
 5007 1969 64030000 		.long	0x364
 5008 196d 01       		.uleb128 0x1
 5009 196e 64030000 		.long	0x364
 5010 1972 01       		.uleb128 0x1
 5011 1973 02030000 		.long	0x302
 5012 1977 00       		.byte	0
 5013 1978 07       		.uleb128 0x7
 5014 1979 4546495F 		.ascii "EFI_SET_MEM\0"
 5014      5345545F 
 5014      4D454D00 
 5015 1985 08       		.byte	0x8
 5016 1986 4C02     		.word	0x24c
 5017 1988 0A       		.byte	0xa
 5018 1989 8D190000 		.long	0x198d
 5019 198d 03       		.uleb128 0x3
 5020 198e 92190000 		.long	0x1992
 5021 1992 20       		.uleb128 0x20
 5022 1993 A7190000 		.long	0x19a7
 5023 1997 01       		.uleb128 0x1
 5024 1998 64030000 		.long	0x364
 5025 199c 01       		.uleb128 0x1
 5026 199d 02030000 		.long	0x302
 5027 19a1 01       		.uleb128 0x1
 5028 19a2 D9020000 		.long	0x2d9
 5029 19a6 00       		.byte	0
 5030 19a7 07       		.uleb128 0x7
 5031 19a8 4546495F 		.ascii "EFI_CREATE_EVENT_EX\0"
 5031      43524541 
 5031      54455F45 
 5031      56454E54 
 5031      5F455800 
 5032 19bc 08       		.byte	0x8
 5033 19bd 5502     		.word	0x255
 5034 19bf 0A       		.byte	0xa
 5035 19c0 C4190000 		.long	0x19c4
 5036 19c4 03       		.uleb128 0x3
 5037 19c5 C9190000 		.long	0x19c9
 5038 19c9 06       		.uleb128 0x6
 5039 19ca 2E030000 		.long	0x32e
 5040 19ce F1190000 		.long	0x19f1
 5041 19d2 01       		.uleb128 0x1
 5042 19d3 9F020000 		.long	0x29f
 5043 19d7 01       		.uleb128 0x1
 5044 19d8 41030000 		.long	0x341
 5045 19dc 01       		.uleb128 0x1
 5046 19dd 1F100000 		.long	0x101f
 5047 19e1 01       		.uleb128 0x1
 5048 19e2 F1190000 		.long	0x19f1
 5049 19e6 01       		.uleb128 0x1
 5050 19e7 42080000 		.long	0x842
 5051 19eb 01       		.uleb128 0x1
 5052 19ec 8E100000 		.long	0x108e
 5053 19f0 00       		.byte	0
 5054 19f1 03       		.uleb128 0x3
 5055 19f2 F0020000 		.long	0x2f0
 5056 19f6 28       		.uleb128 0x28
 5057 19f7 13020000 		.long	0x213
 5058 19fb 5E02     		.word	0x25e
 5059 19fd 331A0000 		.long	0x1a33
 5060 1a01 0A       		.uleb128 0xa
 5061 1a02 45666952 		.ascii "EfiResetCold\0"
 5061      65736574 
 5061      436F6C64 
 5061      00
 5062 1a0f 00       		.byte	0
 5063 1a10 0A       		.uleb128 0xa
 5064 1a11 45666952 		.ascii "EfiResetWarm\0"
 5064      65736574 
 5064      5761726D 
 5064      00
 5065 1a1e 01       		.byte	0x1
 5066 1a1f 0A       		.uleb128 0xa
 5067 1a20 45666952 		.ascii "EfiResetShutdown\0"
 5067      65736574 
 5067      53687574 
 5067      646F776E 
 5067      00
 5068 1a31 02       		.byte	0x2
 5069 1a32 00       		.byte	0
 5070 1a33 07       		.uleb128 0x7
 5071 1a34 4546495F 		.ascii "EFI_RESET_TYPE\0"
 5071      52455345 
 5071      545F5459 
 5071      504500
 5072 1a43 08       		.byte	0x8
 5073 1a44 6202     		.word	0x262
 5074 1a46 03       		.byte	0x3
 5075 1a47 F6190000 		.long	0x19f6
 5076 1a4b 07       		.uleb128 0x7
 5077 1a4c 4546495F 		.ascii "EFI_RESET_SYSTEM\0"
 5077      52455345 
 5077      545F5359 
 5077      5354454D 
 5077      00
 5078 1a5d 08       		.byte	0x8
 5079 1a5e 6602     		.word	0x266
 5080 1a60 0A       		.byte	0xa
 5081 1a61 651A0000 		.long	0x1a65
 5082 1a65 03       		.uleb128 0x3
 5083 1a66 6A1A0000 		.long	0x1a6a
 5084 1a6a 06       		.uleb128 0x6
 5085 1a6b 2E030000 		.long	0x32e
 5086 1a6f 881A0000 		.long	0x1a88
 5087 1a73 01       		.uleb128 0x1
 5088 1a74 331A0000 		.long	0x1a33
 5089 1a78 01       		.uleb128 0x1
 5090 1a79 2E030000 		.long	0x32e
 5091 1a7d 01       		.uleb128 0x1
 5092 1a7e 02030000 		.long	0x302
 5093 1a82 01       		.uleb128 0x1
 5094 1a83 15080000 		.long	0x815
 5095 1a87 00       		.byte	0
 5096 1a88 07       		.uleb128 0x7
 5097 1a89 4546495F 		.ascii "EFI_GET_NEXT_MONOTONIC_COUNT\0"
 5097      4745545F 
 5097      4E455854 
 5097      5F4D4F4E 
 5097      4F544F4E 
 5098 1aa6 08       		.byte	0x8
 5099 1aa7 6F02     		.word	0x26f
 5100 1aa9 0A       		.byte	0xa
 5101 1aaa AE1A0000 		.long	0x1aae
 5102 1aae 03       		.uleb128 0x3
 5103 1aaf B31A0000 		.long	0x1ab3
 5104 1ab3 06       		.uleb128 0x6
 5105 1ab4 2E030000 		.long	0x32e
 5106 1ab8 C21A0000 		.long	0x1ac2
 5107 1abc 01       		.uleb128 0x1
 5108 1abd 24080000 		.long	0x824
 5109 1ac1 00       		.byte	0
 5110 1ac2 07       		.uleb128 0x7
 5111 1ac3 4546495F 		.ascii "EFI_GET_NEXT_HIGH_MONO_COUNT\0"
 5111      4745545F 
 5111      4E455854 
 5111      5F484947 
 5111      485F4D4F 
 5112 1ae0 08       		.byte	0x8
 5113 1ae1 7502     		.word	0x275
 5114 1ae3 0A       		.byte	0xa
 5115 1ae4 E81A0000 		.long	0x1ae8
 5116 1ae8 03       		.uleb128 0x3
 5117 1ae9 ED1A0000 		.long	0x1aed
 5118 1aed 06       		.uleb128 0x6
 5119 1aee 2E030000 		.long	0x32e
 5120 1af2 FC1A0000 		.long	0x1afc
 5121 1af6 01       		.uleb128 0x1
 5122 1af7 4C080000 		.long	0x84c
 5123 1afb 00       		.byte	0
 5124 1afc 21       		.uleb128 0x21
 5125 1afd 1C       		.byte	0x1c
 5126 1afe 8102     		.word	0x281
 5127 1b00 531B0000 		.long	0x1b53
 5128 1b04 04       		.uleb128 0x4
 5129 1b05 43617073 		.ascii "CapsuleGuid\0"
 5129      756C6547 
 5129      75696400 
 5130 1b11 08       		.byte	0x8
 5131 1b12 8202     		.word	0x282
 5132 1b14 21       		.byte	0x21
 5133 1b15 D0030000 		.long	0x3d0
 5134 1b19 00       		.byte	0
 5135 1b1a 27       		.uleb128 0x27
 5136 1b1b 6F000000 		.secrel32	.LASF4
 5137 1b1f 8302     		.word	0x283
 5138 1b21 21       		.byte	0x21
 5139 1b22 9F020000 		.long	0x29f
 5140 1b26 10       		.byte	0x10
 5141 1b27 04       		.uleb128 0x4
 5142 1b28 466C6167 		.ascii "Flags\0"
 5142      7300
 5143 1b2e 08       		.byte	0x8
 5144 1b2f 8402     		.word	0x284
 5145 1b31 21       		.byte	0x21
 5146 1b32 9F020000 		.long	0x29f
 5147 1b36 14       		.byte	0x14
 5148 1b37 04       		.uleb128 0x4
 5149 1b38 43617073 		.ascii "CapsuleImageSize\0"
 5149      756C6549 
 5149      6D616765 
 5149      53697A65 
 5149      00
 5150 1b49 08       		.byte	0x8
 5151 1b4a 8502     		.word	0x285
 5152 1b4c 21       		.byte	0x21
 5153 1b4d 9F020000 		.long	0x29f
 5154 1b51 18       		.byte	0x18
 5155 1b52 00       		.byte	0
 5156 1b53 07       		.uleb128 0x7
 5157 1b54 4546495F 		.ascii "EFI_CAPSULE_HEADER\0"
 5157      43415053 
 5157      554C455F 
 5157      48454144 
 5157      455200
 5158 1b67 08       		.byte	0x8
 5159 1b68 8602     		.word	0x286
 5160 1b6a 03       		.byte	0x3
 5161 1b6b FC1A0000 		.long	0x1afc
 5162 1b6f 07       		.uleb128 0x7
 5163 1b70 4546495F 		.ascii "EFI_UPDATE_CAPSULE\0"
 5163      55504441 
 5163      54455F43 
 5163      41505355 
 5163      4C4500
 5164 1b83 08       		.byte	0x8
 5165 1b84 8E02     		.word	0x28e
 5166 1b86 0A       		.byte	0xa
 5167 1b87 8B1B0000 		.long	0x1b8b
 5168 1b8b 03       		.uleb128 0x3
 5169 1b8c 901B0000 		.long	0x1b90
 5170 1b90 06       		.uleb128 0x6
 5171 1b91 2E030000 		.long	0x32e
 5172 1b95 A91B0000 		.long	0x1ba9
 5173 1b99 01       		.uleb128 0x1
 5174 1b9a A91B0000 		.long	0x1ba9
 5175 1b9e 01       		.uleb128 0x1
 5176 1b9f 02030000 		.long	0x302
 5177 1ba3 01       		.uleb128 0x1
 5178 1ba4 AC040000 		.long	0x4ac
 5179 1ba8 00       		.byte	0
 5180 1ba9 03       		.uleb128 0x3
 5181 1baa AE1B0000 		.long	0x1bae
 5182 1bae 03       		.uleb128 0x3
 5183 1baf 531B0000 		.long	0x1b53
 5184 1bb3 07       		.uleb128 0x7
 5185 1bb4 4546495F 		.ascii "EFI_QUERY_CAPSULE_CAPABILITIES\0"
 5185      51554552 
 5185      595F4341 
 5185      5053554C 
 5185      455F4341 
 5186 1bd3 08       		.byte	0x8
 5187 1bd4 9602     		.word	0x296
 5188 1bd6 0A       		.byte	0xa
 5189 1bd7 DB1B0000 		.long	0x1bdb
 5190 1bdb 03       		.uleb128 0x3
 5191 1bdc E01B0000 		.long	0x1be0
 5192 1be0 06       		.uleb128 0x6
 5193 1be1 2E030000 		.long	0x32e
 5194 1be5 FE1B0000 		.long	0x1bfe
 5195 1be9 01       		.uleb128 0x1
 5196 1bea A91B0000 		.long	0x1ba9
 5197 1bee 01       		.uleb128 0x1
 5198 1bef 02030000 		.long	0x302
 5199 1bf3 01       		.uleb128 0x1
 5200 1bf4 24080000 		.long	0x824
 5201 1bf8 01       		.uleb128 0x1
 5202 1bf9 FE1B0000 		.long	0x1bfe
 5203 1bfd 00       		.byte	0
 5204 1bfe 03       		.uleb128 0x3
 5205 1bff 331A0000 		.long	0x1a33
 5206 1c03 07       		.uleb128 0x7
 5207 1c04 4546495F 		.ascii "EFI_QUERY_VARIABLE_INFO\0"
 5207      51554552 
 5207      595F5641 
 5207      52494142 
 5207      4C455F49 
 5208 1c1c 08       		.byte	0x8
 5209 1c1d 9F02     		.word	0x29f
 5210 1c1f 0A       		.byte	0xa
 5211 1c20 241C0000 		.long	0x1c24
 5212 1c24 03       		.uleb128 0x3
 5213 1c25 291C0000 		.long	0x1c29
 5214 1c29 06       		.uleb128 0x6
 5215 1c2a 2E030000 		.long	0x32e
 5216 1c2e 471C0000 		.long	0x1c47
 5217 1c32 01       		.uleb128 0x1
 5218 1c33 9F020000 		.long	0x29f
 5219 1c37 01       		.uleb128 0x1
 5220 1c38 24080000 		.long	0x824
 5221 1c3c 01       		.uleb128 0x1
 5222 1c3d 24080000 		.long	0x824
 5223 1c41 01       		.uleb128 0x1
 5224 1c42 24080000 		.long	0x824
 5225 1c46 00       		.byte	0
 5226 1c47 28       		.uleb128 0x28
 5227 1c48 13020000 		.long	0x213
 5228 1c4c AA02     		.word	0x2aa
 5229 1c4e 801C0000 		.long	0x1c80
 5230 1c52 0A       		.uleb128 0xa
 5231 1c53 4546495F 		.ascii "EFI_NATIVE_INTERFACE\0"
 5231      4E415449 
 5231      56455F49 
 5231      4E544552 
 5231      46414345 
 5232 1c68 00       		.byte	0
 5233 1c69 0A       		.uleb128 0xa
 5234 1c6a 4546495F 		.ascii "EFI_PCODE_INTERFACE\0"
 5234      50434F44 
 5234      455F494E 
 5234      54455246 
 5234      41434500 
 5235 1c7e 01       		.byte	0x1
 5236 1c7f 00       		.byte	0
 5237 1c80 07       		.uleb128 0x7
 5238 1c81 4546495F 		.ascii "EFI_INTERFACE_TYPE\0"
 5238      494E5445 
 5238      52464143 
 5238      455F5459 
 5238      504500
 5239 1c94 08       		.byte	0x8
 5240 1c95 AD02     		.word	0x2ad
 5241 1c97 03       		.byte	0x3
 5242 1c98 471C0000 		.long	0x1c47
 5243 1c9c 07       		.uleb128 0x7
 5244 1c9d 4546495F 		.ascii "EFI_INSTALL_PROTOCOL_INTERFACE\0"
 5244      494E5354 
 5244      414C4C5F 
 5244      50524F54 
 5244      4F434F4C 
 5245 1cbc 08       		.byte	0x8
 5246 1cbd B102     		.word	0x2b1
 5247 1cbf 0A       		.byte	0xa
 5248 1cc0 C41C0000 		.long	0x1cc4
 5249 1cc4 03       		.uleb128 0x3
 5250 1cc5 C91C0000 		.long	0x1cc9
 5251 1cc9 06       		.uleb128 0x6
 5252 1cca 2E030000 		.long	0x32e
 5253 1cce E71C0000 		.long	0x1ce7
 5254 1cd2 01       		.uleb128 0x1
 5255 1cd3 47080000 		.long	0x847
 5256 1cd7 01       		.uleb128 0x1
 5257 1cd8 33080000 		.long	0x833
 5258 1cdc 01       		.uleb128 0x1
 5259 1cdd 801C0000 		.long	0x1c80
 5260 1ce1 01       		.uleb128 0x1
 5261 1ce2 64030000 		.long	0x364
 5262 1ce6 00       		.byte	0
 5263 1ce7 07       		.uleb128 0x7
 5264 1ce8 4546495F 		.ascii "EFI_REINSTALL_PROTOCOL_INTERFACE\0"
 5264      5245494E 
 5264      5354414C 
 5264      4C5F5052 
 5264      4F544F43 
 5265 1d09 08       		.byte	0x8
 5266 1d0a BA02     		.word	0x2ba
 5267 1d0c 0A       		.byte	0xa
 5268 1d0d 111D0000 		.long	0x1d11
 5269 1d11 03       		.uleb128 0x3
 5270 1d12 161D0000 		.long	0x1d16
 5271 1d16 06       		.uleb128 0x6
 5272 1d17 2E030000 		.long	0x32e
 5273 1d1b 341D0000 		.long	0x1d34
 5274 1d1f 01       		.uleb128 0x1
 5275 1d20 51030000 		.long	0x351
 5276 1d24 01       		.uleb128 0x1
 5277 1d25 33080000 		.long	0x833
 5278 1d29 01       		.uleb128 0x1
 5279 1d2a 64030000 		.long	0x364
 5280 1d2e 01       		.uleb128 0x1
 5281 1d2f 64030000 		.long	0x364
 5282 1d33 00       		.byte	0
 5283 1d34 07       		.uleb128 0x7
 5284 1d35 4546495F 		.ascii "EFI_UNINSTALL_PROTOCOL_INTERFACE\0"
 5284      554E494E 
 5284      5354414C 
 5284      4C5F5052 
 5284      4F544F43 
 5285 1d56 08       		.byte	0x8
 5286 1d57 C302     		.word	0x2c3
 5287 1d59 0A       		.byte	0xa
 5288 1d5a 5E1D0000 		.long	0x1d5e
 5289 1d5e 03       		.uleb128 0x3
 5290 1d5f 631D0000 		.long	0x1d63
 5291 1d63 06       		.uleb128 0x6
 5292 1d64 2E030000 		.long	0x32e
 5293 1d68 7C1D0000 		.long	0x1d7c
 5294 1d6c 01       		.uleb128 0x1
 5295 1d6d 51030000 		.long	0x351
 5296 1d71 01       		.uleb128 0x1
 5297 1d72 33080000 		.long	0x833
 5298 1d76 01       		.uleb128 0x1
 5299 1d77 64030000 		.long	0x364
 5300 1d7b 00       		.byte	0
 5301 1d7c 07       		.uleb128 0x7
 5302 1d7d 4546495F 		.ascii "EFI_HANDLE_PROTOCOL\0"
 5302      48414E44 
 5302      4C455F50 
 5302      524F544F 
 5302      434F4C00 
 5303 1d91 08       		.byte	0x8
 5304 1d92 CB02     		.word	0x2cb
 5305 1d94 0A       		.byte	0xa
 5306 1d95 991D0000 		.long	0x1d99
 5307 1d99 03       		.uleb128 0x3
 5308 1d9a 9E1D0000 		.long	0x1d9e
 5309 1d9e 06       		.uleb128 0x6
 5310 1d9f 2E030000 		.long	0x32e
 5311 1da3 B71D0000 		.long	0x1db7
 5312 1da7 01       		.uleb128 0x1
 5313 1da8 51030000 		.long	0x351
 5314 1dac 01       		.uleb128 0x1
 5315 1dad 33080000 		.long	0x833
 5316 1db1 01       		.uleb128 0x1
 5317 1db2 29080000 		.long	0x829
 5318 1db6 00       		.byte	0
 5319 1db7 07       		.uleb128 0x7
 5320 1db8 4546495F 		.ascii "EFI_REGISTER_PROTOCOL_NOTIFY\0"
 5320      52454749 
 5320      53544552 
 5320      5F50524F 
 5320      544F434F 
 5321 1dd5 08       		.byte	0x8
 5322 1dd6 D302     		.word	0x2d3
 5323 1dd8 0A       		.byte	0xa
 5324 1dd9 DD1D0000 		.long	0x1ddd
 5325 1ddd 03       		.uleb128 0x3
 5326 1dde E21D0000 		.long	0x1de2
 5327 1de2 06       		.uleb128 0x6
 5328 1de3 2E030000 		.long	0x32e
 5329 1de7 FB1D0000 		.long	0x1dfb
 5330 1deb 01       		.uleb128 0x1
 5331 1dec 33080000 		.long	0x833
 5332 1df0 01       		.uleb128 0x1
 5333 1df1 69030000 		.long	0x369
 5334 1df5 01       		.uleb128 0x1
 5335 1df6 29080000 		.long	0x829
 5336 1dfa 00       		.byte	0
 5337 1dfb 07       		.uleb128 0x7
 5338 1dfc 4546495F 		.ascii "EFI_LOCATE_HANDLE\0"
 5338      4C4F4341 
 5338      54455F48 
 5338      414E444C 
 5338      4500
 5339 1e0e 08       		.byte	0x8
 5340 1e0f DB02     		.word	0x2db
 5341 1e11 0A       		.byte	0xa
 5342 1e12 161E0000 		.long	0x1e16
 5343 1e16 03       		.uleb128 0x3
 5344 1e17 1B1E0000 		.long	0x1e1b
 5345 1e1b 06       		.uleb128 0x6
 5346 1e1c 2E030000 		.long	0x32e
 5347 1e20 3E1E0000 		.long	0x1e3e
 5348 1e24 01       		.uleb128 0x1
 5349 1e25 D3170000 		.long	0x17d3
 5350 1e29 01       		.uleb128 0x1
 5351 1e2a 33080000 		.long	0x833
 5352 1e2e 01       		.uleb128 0x1
 5353 1e2f 64030000 		.long	0x364
 5354 1e33 01       		.uleb128 0x1
 5355 1e34 1F080000 		.long	0x81f
 5356 1e38 01       		.uleb128 0x1
 5357 1e39 47080000 		.long	0x847
 5358 1e3d 00       		.byte	0
 5359 1e3e 07       		.uleb128 0x7
 5360 1e3f 4546495F 		.ascii "EFI_LOCATE_DEVICE_PATH\0"
 5360      4C4F4341 
 5360      54455F44 
 5360      45564943 
 5360      455F5041 
 5361 1e56 08       		.byte	0x8
 5362 1e57 E502     		.word	0x2e5
 5363 1e59 0A       		.byte	0xa
 5364 1e5a 5E1E0000 		.long	0x1e5e
 5365 1e5e 03       		.uleb128 0x3
 5366 1e5f 631E0000 		.long	0x1e63
 5367 1e63 06       		.uleb128 0x6
 5368 1e64 2E030000 		.long	0x32e
 5369 1e68 7C1E0000 		.long	0x1e7c
 5370 1e6c 01       		.uleb128 0x1
 5371 1e6d 33080000 		.long	0x833
 5372 1e71 01       		.uleb128 0x1
 5373 1e72 3D080000 		.long	0x83d
 5374 1e76 01       		.uleb128 0x1
 5375 1e77 47080000 		.long	0x847
 5376 1e7b 00       		.byte	0
 5377 1e7c 07       		.uleb128 0x7
 5378 1e7d 4546495F 		.ascii "EFI_INSTALL_CONFIGURATION_TABLE\0"
 5378      494E5354 
 5378      414C4C5F 
 5378      434F4E46 
 5378      49475552 
 5379 1e9d 08       		.byte	0x8
 5380 1e9e ED02     		.word	0x2ed
 5381 1ea0 0A       		.byte	0xa
 5382 1ea1 A51E0000 		.long	0x1ea5
 5383 1ea5 03       		.uleb128 0x3
 5384 1ea6 AA1E0000 		.long	0x1eaa
 5385 1eaa 06       		.uleb128 0x6
 5386 1eab 2E030000 		.long	0x32e
 5387 1eaf BE1E0000 		.long	0x1ebe
 5388 1eb3 01       		.uleb128 0x1
 5389 1eb4 33080000 		.long	0x833
 5390 1eb8 01       		.uleb128 0x1
 5391 1eb9 64030000 		.long	0x364
 5392 1ebd 00       		.byte	0
 5393 1ebe 1F       		.uleb128 0x1f
 5394 1ebf 5F454649 		.ascii "_EFI_TABLE_HEADER\0"
 5394      5F544142 
 5394      4C455F48 
 5394      45414445 
 5394      5200
 5395 1ed1 18       		.byte	0x18
 5396 1ed2 08       		.byte	0x8
 5397 1ed3 FB02     		.word	0x2fb
 5398 1ed5 311F0000 		.long	0x1f31
 5399 1ed9 04       		.uleb128 0x4
 5400 1eda 5369676E 		.ascii "Signature\0"
 5400      61747572 
 5400      6500
 5401 1ee4 08       		.byte	0x8
 5402 1ee5 FC02     		.word	0x2fc
 5403 1ee7 21       		.byte	0x21
 5404 1ee8 90020000 		.long	0x290
 5405 1eec 00       		.byte	0
 5406 1eed 04       		.uleb128 0x4
 5407 1eee 52657669 		.ascii "Revision\0"
 5407      73696F6E 
 5407      00
 5408 1ef7 08       		.byte	0x8
 5409 1ef8 FD02     		.word	0x2fd
 5410 1efa 21       		.byte	0x21
 5411 1efb 9F020000 		.long	0x29f
 5412 1eff 08       		.byte	0x8
 5413 1f00 27       		.uleb128 0x27
 5414 1f01 6F000000 		.secrel32	.LASF4
 5415 1f05 FE02     		.word	0x2fe
 5416 1f07 21       		.byte	0x21
 5417 1f08 9F020000 		.long	0x29f
 5418 1f0c 0C       		.byte	0xc
 5419 1f0d 04       		.uleb128 0x4
 5420 1f0e 43524333 		.ascii "CRC32\0"
 5420      3200
 5421 1f14 08       		.byte	0x8
 5422 1f15 FF02     		.word	0x2ff
 5423 1f17 21       		.byte	0x21
 5424 1f18 9F020000 		.long	0x29f
 5425 1f1c 10       		.byte	0x10
 5426 1f1d 04       		.uleb128 0x4
 5427 1f1e 52657365 		.ascii "Reserved\0"
 5427      72766564 
 5427      00
 5428 1f27 08       		.byte	0x8
 5429 1f28 0003     		.word	0x300
 5430 1f2a 21       		.byte	0x21
 5431 1f2b 9F020000 		.long	0x29f
 5432 1f2f 14       		.byte	0x14
 5433 1f30 00       		.byte	0
 5434 1f31 07       		.uleb128 0x7
 5435 1f32 4546495F 		.ascii "EFI_TABLE_HEADER\0"
 5435      5441424C 
 5435      455F4845 
 5435      41444552 
 5435      00
 5436 1f43 08       		.byte	0x8
 5437 1f44 0103     		.word	0x301
 5438 1f46 03       		.byte	0x3
 5439 1f47 BE1E0000 		.long	0x1ebe
 5440 1f4b 21       		.uleb128 0x21
 5441 1f4c 88       		.byte	0x88
 5442 1f4d 1903     		.word	0x319
 5443 1f4f C9200000 		.long	0x20c9
 5444 1f53 04       		.uleb128 0x4
 5445 1f54 48647200 		.ascii "Hdr\0"
 5446 1f58 08       		.byte	0x8
 5447 1f59 1A03     		.word	0x31a
 5448 1f5b 25       		.byte	0x25
 5449 1f5c 311F0000 		.long	0x1f31
 5450 1f60 00       		.byte	0
 5451 1f61 04       		.uleb128 0x4
 5452 1f62 47657454 		.ascii "GetTime\0"
 5452      696D6500 
 5453 1f6a 08       		.byte	0x8
 5454 1f6b 2003     		.word	0x320
 5455 1f6d 25       		.byte	0x25
 5456 1f6e 39130000 		.long	0x1339
 5457 1f72 18       		.byte	0x18
 5458 1f73 04       		.uleb128 0x4
 5459 1f74 53657454 		.ascii "SetTime\0"
 5459      696D6500 
 5460 1f7c 08       		.byte	0x8
 5461 1f7d 2103     		.word	0x321
 5462 1f7f 25       		.byte	0x25
 5463 1f80 72130000 		.long	0x1372
 5464 1f84 20       		.byte	0x20
 5465 1f85 04       		.uleb128 0x4
 5466 1f86 47657457 		.ascii "GetWakeupTime\0"
 5466      616B6575 
 5466      7054696D 
 5466      6500
 5467 1f94 08       		.byte	0x8
 5468 1f95 2203     		.word	0x322
 5469 1f97 25       		.byte	0x25
 5470 1f98 9C130000 		.long	0x139c
 5471 1f9c 28       		.byte	0x28
 5472 1f9d 04       		.uleb128 0x4
 5473 1f9e 53657457 		.ascii "SetWakeupTime\0"
 5473      616B6575 
 5473      7054696D 
 5473      6500
 5474 1fac 08       		.byte	0x8
 5475 1fad 2303     		.word	0x323
 5476 1faf 25       		.byte	0x25
 5477 1fb0 D7130000 		.long	0x13d7
 5478 1fb4 30       		.byte	0x30
 5479 1fb5 04       		.uleb128 0x4
 5480 1fb6 53657456 		.ascii "SetVirtualAddressMap\0"
 5480      69727475 
 5480      616C4164 
 5480      64726573 
 5480      734D6170 
 5481 1fcb 08       		.byte	0x8
 5482 1fcc 2903     		.word	0x329
 5483 1fce 25       		.byte	0x25
 5484 1fcf A30F0000 		.long	0xfa3
 5485 1fd3 38       		.byte	0x38
 5486 1fd4 04       		.uleb128 0x4
 5487 1fd5 436F6E76 		.ascii "ConvertPointer\0"
 5487      65727450 
 5487      6F696E74 
 5487      657200
 5488 1fe4 08       		.byte	0x8
 5489 1fe5 2A03     		.word	0x32a
 5490 1fe7 25       		.byte	0x25
 5491 1fe8 EA0F0000 		.long	0xfea
 5492 1fec 40       		.byte	0x40
 5493 1fed 04       		.uleb128 0x4
 5494 1fee 47657456 		.ascii "GetVariable\0"
 5494      61726961 
 5494      626C6500 
 5495 1ffa 08       		.byte	0x8
 5496 1ffb 3003     		.word	0x330
 5497 1ffd 25       		.byte	0x25
 5498 1ffe 10120000 		.long	0x1210
 5499 2002 48       		.byte	0x48
 5500 2003 04       		.uleb128 0x4
 5501 2004 4765744E 		.ascii "GetNextVariableName\0"
 5501      65787456 
 5501      61726961 
 5501      626C654E 
 5501      616D6500 
 5502 2018 08       		.byte	0x8
 5503 2019 3103     		.word	0x331
 5504 201b 25       		.byte	0x25
 5505 201c 51120000 		.long	0x1251
 5506 2020 50       		.byte	0x50
 5507 2021 04       		.uleb128 0x4
 5508 2022 53657456 		.ascii "SetVariable\0"
 5508      61726961 
 5508      626C6500 
 5509 202e 08       		.byte	0x8
 5510 202f 3203     		.word	0x332
 5511 2031 25       		.byte	0x25
 5512 2032 92120000 		.long	0x1292
 5513 2036 58       		.byte	0x58
 5514 2037 04       		.uleb128 0x4
 5515 2038 4765744E 		.ascii "GetNextHighMonotonicCount\0"
 5515      65787448 
 5515      6967684D 
 5515      6F6E6F74 
 5515      6F6E6963 
 5516 2052 08       		.byte	0x8
 5517 2053 3803     		.word	0x338
 5518 2055 25       		.byte	0x25
 5519 2056 C21A0000 		.long	0x1ac2
 5520 205a 60       		.byte	0x60
 5521 205b 04       		.uleb128 0x4
 5522 205c 52657365 		.ascii "ResetSystem\0"
 5522      74537973 
 5522      74656D00 
 5523 2068 08       		.byte	0x8
 5524 2069 3903     		.word	0x339
 5525 206b 25       		.byte	0x25
 5526 206c 4B1A0000 		.long	0x1a4b
 5527 2070 68       		.byte	0x68
 5528 2071 04       		.uleb128 0x4
 5529 2072 55706461 		.ascii "UpdateCapsule\0"
 5529      74654361 
 5529      7073756C 
 5529      6500
 5530 2080 08       		.byte	0x8
 5531 2081 3B03     		.word	0x33b
 5532 2083 25       		.byte	0x25
 5533 2084 6F1B0000 		.long	0x1b6f
 5534 2088 70       		.byte	0x70
 5535 2089 04       		.uleb128 0x4
 5536 208a 51756572 		.ascii "QueryCapsuleCapabilities\0"
 5536      79436170 
 5536      73756C65 
 5536      43617061 
 5536      62696C69 
 5537 20a3 08       		.byte	0x8
 5538 20a4 3C03     		.word	0x33c
 5539 20a6 25       		.byte	0x25
 5540 20a7 B31B0000 		.long	0x1bb3
 5541 20ab 78       		.byte	0x78
 5542 20ac 04       		.uleb128 0x4
 5543 20ad 51756572 		.ascii "QueryVariableInfo\0"
 5543      79566172 
 5543      6961626C 
 5543      65496E66 
 5543      6F00
 5544 20bf 08       		.byte	0x8
 5545 20c0 3D03     		.word	0x33d
 5546 20c2 25       		.byte	0x25
 5547 20c3 031C0000 		.long	0x1c03
 5548 20c7 80       		.byte	0x80
 5549 20c8 00       		.byte	0
 5550 20c9 07       		.uleb128 0x7
 5551 20ca 4546495F 		.ascii "EFI_RUNTIME_SERVICES\0"
 5551      52554E54 
 5551      494D455F 
 5551      53455256 
 5551      49434553 
 5552 20df 08       		.byte	0x8
 5553 20e0 3E03     		.word	0x33e
 5554 20e2 03       		.byte	0x3
 5555 20e3 4B1F0000 		.long	0x1f4b
 5556 20e7 39       		.uleb128 0x39
 5557 20e8 5F454649 		.ascii "_EFI_BOOT_SERVICES\0"
 5557      5F424F4F 
 5557      545F5345 
 5557      52564943 
 5557      455300
 5558 20fb 7801     		.word	0x178
 5559 20fd 08       		.byte	0x8
 5560 20fe 5603     		.word	0x356
 5561 2100 10       		.byte	0x10
 5562 2101 82250000 		.long	0x2582
 5563 2105 04       		.uleb128 0x4
 5564 2106 48647200 		.ascii "Hdr\0"
 5565 210a 08       		.byte	0x8
 5566 210b 5803     		.word	0x358
 5567 210d 25       		.byte	0x25
 5568 210e 311F0000 		.long	0x1f31
 5569 2112 00       		.byte	0
 5570 2113 04       		.uleb128 0x4
 5571 2114 52616973 		.ascii "RaiseTPL\0"
 5571      6554504C 
 5571      00
 5572 211d 08       		.byte	0x8
 5573 211e 5E03     		.word	0x35e
 5574 2120 25       		.byte	0x25
 5575 2121 BE110000 		.long	0x11be
 5576 2125 18       		.byte	0x18
 5577 2126 04       		.uleb128 0x4
 5578 2127 52657374 		.ascii "RestoreTPL\0"
 5578      6F726554 
 5578      504C00
 5579 2132 08       		.byte	0x8
 5580 2133 5F03     		.word	0x35f
 5581 2135 25       		.byte	0x25
 5582 2136 E8110000 		.long	0x11e8
 5583 213a 20       		.byte	0x20
 5584 213b 04       		.uleb128 0x4
 5585 213c 416C6C6F 		.ascii "AllocatePages\0"
 5585      63617465 
 5585      50616765 
 5585      7300
 5586 214a 08       		.byte	0x8
 5587 214b 6503     		.word	0x365
 5588 214d 25       		.byte	0x25
 5589 214e 8B0E0000 		.long	0xe8b
 5590 2152 28       		.byte	0x28
 5591 2153 04       		.uleb128 0x4
 5592 2154 46726565 		.ascii "FreePages\0"
 5592      50616765 
 5592      7300
 5593 215e 08       		.byte	0x8
 5594 215f 6603     		.word	0x366
 5595 2161 25       		.byte	0x25
 5596 2162 C90E0000 		.long	0xec9
 5597 2166 30       		.byte	0x30
 5598 2167 04       		.uleb128 0x4
 5599 2168 4765744D 		.ascii "GetMemoryMap\0"
 5599      656D6F72 
 5599      794D6170 
 5599      00
 5600 2175 08       		.byte	0x8
 5601 2176 6703     		.word	0x367
 5602 2178 25       		.byte	0x25
 5603 2179 F90E0000 		.long	0xef9
 5604 217d 38       		.byte	0x38
 5605 217e 04       		.uleb128 0x4
 5606 217f 416C6C6F 		.ascii "AllocatePool\0"
 5606      63617465 
 5606      506F6F6C 
 5606      00
 5607 218c 08       		.byte	0x8
 5608 218d 6803     		.word	0x368
 5609 218f 25       		.byte	0x25
 5610 2190 410F0000 		.long	0xf41
 5611 2194 40       		.byte	0x40
 5612 2195 04       		.uleb128 0x4
 5613 2196 46726565 		.ascii "FreePool\0"
 5613      506F6F6C 
 5613      00
 5614 219f 08       		.byte	0x8
 5615 21a0 6903     		.word	0x369
 5616 21a2 25       		.byte	0x25
 5617 21a3 790F0000 		.long	0xf79
 5618 21a7 48       		.byte	0x48
 5619 21a8 04       		.uleb128 0x4
 5620 21a9 43726561 		.ascii "CreateEvent\0"
 5620      74654576 
 5620      656E7400 
 5621 21b5 08       		.byte	0x8
 5622 21b6 6F03     		.word	0x36f
 5623 21b8 25       		.byte	0x25
 5624 21b9 4D100000 		.long	0x104d
 5625 21bd 50       		.byte	0x50
 5626 21be 04       		.uleb128 0x4
 5627 21bf 53657454 		.ascii "SetTimer\0"
 5627      696D6572 
 5627      00
 5628 21c8 08       		.byte	0x8
 5629 21c9 7003     		.word	0x370
 5630 21cb 25       		.byte	0x25
 5631 21cc F4100000 		.long	0x10f4
 5632 21d0 58       		.byte	0x58
 5633 21d1 04       		.uleb128 0x4
 5634 21d2 57616974 		.ascii "WaitForEvent\0"
 5634      466F7245 
 5634      76656E74 
 5634      00
 5635 21df 08       		.byte	0x8
 5636 21e0 7103     		.word	0x371
 5637 21e2 25       		.byte	0x25
 5638 21e3 55110000 		.long	0x1155
 5639 21e7 60       		.byte	0x60
 5640 21e8 04       		.uleb128 0x4
 5641 21e9 5369676E 		.ascii "SignalEvent\0"
 5641      616C4576 
 5641      656E7400 
 5642 21f5 08       		.byte	0x8
 5643 21f6 7203     		.word	0x372
 5644 21f8 25       		.byte	0x25
 5645 21f9 28110000 		.long	0x1128
 5646 21fd 68       		.byte	0x68
 5647 21fe 04       		.uleb128 0x4
 5648 21ff 436C6F73 		.ascii "CloseEvent\0"
 5648      65457665 
 5648      6E7400
 5649 220a 08       		.byte	0x8
 5650 220b 7303     		.word	0x373
 5651 220d 25       		.byte	0x25
 5652 220e 8E110000 		.long	0x118e
 5653 2212 70       		.byte	0x70
 5654 2213 04       		.uleb128 0x4
 5655 2214 43686563 		.ascii "CheckEvent\0"
 5655      6B457665 
 5655      6E7400
 5656 221f 08       		.byte	0x8
 5657 2220 7403     		.word	0x374
 5658 2222 25       		.byte	0x25
 5659 2223 A6110000 		.long	0x11a6
 5660 2227 78       		.byte	0x78
 5661 2228 04       		.uleb128 0x4
 5662 2229 496E7374 		.ascii "InstallProtocolInterface\0"
 5662      616C6C50 
 5662      726F746F 
 5662      636F6C49 
 5662      6E746572 
 5663 2242 08       		.byte	0x8
 5664 2243 7A03     		.word	0x37a
 5665 2245 25       		.byte	0x25
 5666 2246 9C1C0000 		.long	0x1c9c
 5667 224a 80       		.byte	0x80
 5668 224b 04       		.uleb128 0x4
 5669 224c 5265696E 		.ascii "ReinstallProtocolInterface\0"
 5669      7374616C 
 5669      6C50726F 
 5669      746F636F 
 5669      6C496E74 
 5670 2267 08       		.byte	0x8
 5671 2268 7B03     		.word	0x37b
 5672 226a 26       		.byte	0x26
 5673 226b E71C0000 		.long	0x1ce7
 5674 226f 88       		.byte	0x88
 5675 2270 04       		.uleb128 0x4
 5676 2271 556E696E 		.ascii "UninstallProtocolInterface\0"
 5676      7374616C 
 5676      6C50726F 
 5676      746F636F 
 5676      6C496E74 
 5677 228c 08       		.byte	0x8
 5678 228d 7C03     		.word	0x37c
 5679 228f 26       		.byte	0x26
 5680 2290 341D0000 		.long	0x1d34
 5681 2294 90       		.byte	0x90
 5682 2295 04       		.uleb128 0x4
 5683 2296 48616E64 		.ascii "HandleProtocol\0"
 5683      6C655072 
 5683      6F746F63 
 5683      6F6C00
 5684 22a5 08       		.byte	0x8
 5685 22a6 7D03     		.word	0x37d
 5686 22a8 25       		.byte	0x25
 5687 22a9 7C1D0000 		.long	0x1d7c
 5688 22ad 98       		.byte	0x98
 5689 22ae 04       		.uleb128 0x4
 5690 22af 50434861 		.ascii "PCHandleProtocol\0"
 5690      6E646C65 
 5690      50726F74 
 5690      6F636F6C 
 5690      00
 5691 22c0 08       		.byte	0x8
 5692 22c1 7E03     		.word	0x37e
 5693 22c3 25       		.byte	0x25
 5694 22c4 7C1D0000 		.long	0x1d7c
 5695 22c8 A0       		.byte	0xa0
 5696 22c9 04       		.uleb128 0x4
 5697 22ca 52656769 		.ascii "RegisterProtocolNotify\0"
 5697      73746572 
 5697      50726F74 
 5697      6F636F6C 
 5697      4E6F7469 
 5698 22e1 08       		.byte	0x8
 5699 22e2 7F03     		.word	0x37f
 5700 22e4 25       		.byte	0x25
 5701 22e5 B71D0000 		.long	0x1db7
 5702 22e9 A8       		.byte	0xa8
 5703 22ea 04       		.uleb128 0x4
 5704 22eb 4C6F6361 		.ascii "LocateHandle\0"
 5704      74654861 
 5704      6E646C65 
 5704      00
 5705 22f8 08       		.byte	0x8
 5706 22f9 8003     		.word	0x380
 5707 22fb 25       		.byte	0x25
 5708 22fc FB1D0000 		.long	0x1dfb
 5709 2300 B0       		.byte	0xb0
 5710 2301 04       		.uleb128 0x4
 5711 2302 4C6F6361 		.ascii "LocateDevicePath\0"
 5711      74654465 
 5711      76696365 
 5711      50617468 
 5711      00
 5712 2313 08       		.byte	0x8
 5713 2314 8103     		.word	0x381
 5714 2316 25       		.byte	0x25
 5715 2317 3E1E0000 		.long	0x1e3e
 5716 231b B8       		.byte	0xb8
 5717 231c 04       		.uleb128 0x4
 5718 231d 496E7374 		.ascii "InstallConfigurationTable\0"
 5718      616C6C43 
 5718      6F6E6669 
 5718      67757261 
 5718      74696F6E 
 5719 2337 08       		.byte	0x8
 5720 2338 8203     		.word	0x382
 5721 233a 25       		.byte	0x25
 5722 233b 7C1E0000 		.long	0x1e7c
 5723 233f C0       		.byte	0xc0
 5724 2340 04       		.uleb128 0x4
 5725 2341 4C6F6164 		.ascii "LoadImage\0"
 5725      496D6167 
 5725      6500
 5726 234b 08       		.byte	0x8
 5727 234c 8803     		.word	0x388
 5728 234e 25       		.byte	0x25
 5729 234f 0D140000 		.long	0x140d
 5730 2353 C8       		.byte	0xc8
 5731 2354 04       		.uleb128 0x4
 5732 2355 53746172 		.ascii "StartImage\0"
 5732      74496D61 
 5732      676500
 5733 2360 08       		.byte	0x8
 5734 2361 8903     		.word	0x389
 5735 2363 25       		.byte	0x25
 5736 2364 52140000 		.long	0x1452
 5737 2368 D0       		.byte	0xd0
 5738 2369 04       		.uleb128 0x4
 5739 236a 45786974 		.ascii "Exit\0"
 5739      00
 5740 236f 08       		.byte	0x8
 5741 2370 8A03     		.word	0x38a
 5742 2372 25       		.byte	0x25
 5743 2373 89140000 		.long	0x1489
 5744 2377 D8       		.byte	0xd8
 5745 2378 04       		.uleb128 0x4
 5746 2379 556E6C6F 		.ascii "UnloadImage\0"
 5746      6164496D 
 5746      61676500 
 5747 2385 08       		.byte	0x8
 5748 2386 8B03     		.word	0x38b
 5749 2388 25       		.byte	0x25
 5750 2389 56080000 		.long	0x856
 5751 238d E0       		.byte	0xe0
 5752 238e 04       		.uleb128 0x4
 5753 238f 45786974 		.ascii "ExitBootServices\0"
 5753      426F6F74 
 5753      53657276 
 5753      69636573 
 5753      00
 5754 23a0 08       		.byte	0x8
 5755 23a1 8C03     		.word	0x38c
 5756 23a3 25       		.byte	0x25
 5757 23a4 BE140000 		.long	0x14be
 5758 23a8 E8       		.byte	0xe8
 5759 23a9 04       		.uleb128 0x4
 5760 23aa 4765744E 		.ascii "GetNextMonotonicCount\0"
 5760      6578744D 
 5760      6F6E6F74 
 5760      6F6E6963 
 5760      436F756E 
 5761 23c0 08       		.byte	0x8
 5762 23c1 9203     		.word	0x392
 5763 23c3 25       		.byte	0x25
 5764 23c4 881A0000 		.long	0x1a88
 5765 23c8 F0       		.byte	0xf0
 5766 23c9 04       		.uleb128 0x4
 5767 23ca 5374616C 		.ascii "Stall\0"
 5767      6C00
 5768 23d0 08       		.byte	0x8
 5769 23d1 9303     		.word	0x393
 5770 23d3 25       		.byte	0x25
 5771 23d4 F7140000 		.long	0x14f7
 5772 23d8 F8       		.byte	0xf8
 5773 23d9 13       		.uleb128 0x13
 5774 23da 53657457 		.ascii "SetWatchdogTimer\0"
 5774      61746368 
 5774      646F6754 
 5774      696D6572 
 5774      00
 5775 23eb 9403     		.word	0x394
 5776 23ed 25       		.byte	0x25
 5777 23ee 1E150000 		.long	0x151e
 5778 23f2 0001     		.word	0x100
 5779 23f4 13       		.uleb128 0x13
 5780 23f5 436F6E6E 		.ascii "ConnectController\0"
 5780      65637443 
 5780      6F6E7472 
 5780      6F6C6C65 
 5780      7200
 5781 2407 9A03     		.word	0x39a
 5782 2409 25       		.byte	0x25
 5783 240a 61150000 		.long	0x1561
 5784 240e 0801     		.word	0x108
 5785 2410 13       		.uleb128 0x13
 5786 2411 44697363 		.ascii "DisconnectController\0"
 5786      6F6E6E65 
 5786      6374436F 
 5786      6E74726F 
 5786      6C6C6572 
 5787 2426 9B03     		.word	0x39b
 5788 2428 25       		.byte	0x25
 5789 2429 A4150000 		.long	0x15a4
 5790 242d 1001     		.word	0x110
 5791 242f 13       		.uleb128 0x13
 5792 2430 4F70656E 		.ascii "OpenProtocol\0"
 5792      50726F74 
 5792      6F636F6C 
 5792      00
 5793 243d A003     		.word	0x3a0
 5794 243f 25       		.byte	0x25
 5795 2440 E5150000 		.long	0x15e5
 5796 2444 1801     		.word	0x118
 5797 2446 13       		.uleb128 0x13
 5798 2447 436C6F73 		.ascii "CloseProtocol\0"
 5798      6550726F 
 5798      746F636F 
 5798      6C00
 5799 2455 A103     		.word	0x3a1
 5800 2457 25       		.byte	0x25
 5801 2458 2D160000 		.long	0x162d
 5802 245c 2001     		.word	0x120
 5803 245e 13       		.uleb128 0x13
 5804 245f 4F70656E 		.ascii "OpenProtocolInformation\0"
 5804      50726F74 
 5804      6F636F6C 
 5804      496E666F 
 5804      726D6174 
 5805 2477 A203     		.word	0x3a2
 5806 2479 25       		.byte	0x25
 5807 247a FC160000 		.long	0x16fc
 5808 247e 2801     		.word	0x128
 5809 2480 13       		.uleb128 0x13
 5810 2481 50726F74 		.ascii "ProtocolsPerHandle\0"
 5810      6F636F6C 
 5810      73506572 
 5810      48616E64 
 5810      6C6500
 5811 2494 A703     		.word	0x3a7
 5812 2496 25       		.byte	0x25
 5813 2497 50170000 		.long	0x1750
 5814 249b 3001     		.word	0x130
 5815 249d 13       		.uleb128 0x13
 5816 249e 4C6F6361 		.ascii "LocateHandleBuffer\0"
 5816      74654861 
 5816      6E646C65 
 5816      42756666 
 5816      657200
 5817 24b1 A803     		.word	0x3a8
 5818 24b3 25       		.byte	0x25
 5819 24b4 F3170000 		.long	0x17f3
 5820 24b8 3801     		.word	0x138
 5821 24ba 13       		.uleb128 0x13
 5822 24bb 4C6F6361 		.ascii "LocateProtocol\0"
 5822      74655072 
 5822      6F746F63 
 5822      6F6C00
 5823 24ca A903     		.word	0x3a9
 5824 24cc 25       		.byte	0x25
 5825 24cd 42180000 		.long	0x1842
 5826 24d1 4001     		.word	0x140
 5827 24d3 13       		.uleb128 0x13
 5828 24d4 496E7374 		.ascii "InstallMultipleProtocolInterfaces\0"
 5828      616C6C4D 
 5828      756C7469 
 5828      706C6550 
 5828      726F746F 
 5829 24f6 AA03     		.word	0x3aa
 5830 24f8 2E       		.byte	0x2e
 5831 24f9 7D180000 		.long	0x187d
 5832 24fd 4801     		.word	0x148
 5833 24ff 13       		.uleb128 0x13
 5834 2500 556E696E 		.ascii "UninstallMultipleProtocolInterfaces\0"
 5834      7374616C 
 5834      6C4D756C 
 5834      7469706C 
 5834      6550726F 
 5835 2524 AB03     		.word	0x3ab
 5836 2526 30       		.byte	0x30
 5837 2527 C4180000 		.long	0x18c4
 5838 252b 5001     		.word	0x150
 5839 252d 13       		.uleb128 0x13
 5840 252e 43616C63 		.ascii "CalculateCrc32\0"
 5840      756C6174 
 5840      65437263 
 5840      333200
 5841 253d B003     		.word	0x3b0
 5842 253f 25       		.byte	0x25
 5843 2540 0D190000 		.long	0x190d
 5844 2544 5801     		.word	0x158
 5845 2546 13       		.uleb128 0x13
 5846 2547 436F7079 		.ascii "CopyMem\0"
 5846      4D656D00 
 5847 254f B503     		.word	0x3b5
 5848 2551 25       		.byte	0x25
 5849 2552 48190000 		.long	0x1948
 5850 2556 6001     		.word	0x160
 5851 2558 13       		.uleb128 0x13
 5852 2559 5365744D 		.ascii "SetMem\0"
 5852      656D00
 5853 2560 B603     		.word	0x3b6
 5854 2562 25       		.byte	0x25
 5855 2563 78190000 		.long	0x1978
 5856 2567 6801     		.word	0x168
 5857 2569 13       		.uleb128 0x13
 5858 256a 43726561 		.ascii "CreateEventEx\0"
 5858      74654576 
 5858      656E7445 
 5858      7800
 5859 2578 B703     		.word	0x3b7
 5860 257a 25       		.byte	0x25
 5861 257b A7190000 		.long	0x19a7
 5862 257f 7001     		.word	0x170
 5863 2581 00       		.byte	0
 5864 2582 07       		.uleb128 0x7
 5865 2583 4546495F 		.ascii "EFI_BOOT_SERVICES\0"
 5865      424F4F54 
 5865      5F534552 
 5865      56494345 
 5865      5300
 5866 2595 08       		.byte	0x8
 5867 2596 B803     		.word	0x3b8
 5868 2598 03       		.byte	0x3
 5869 2599 E7200000 		.long	0x20e7
 5870 259d 1F       		.uleb128 0x1f
 5871 259e 5F454649 		.ascii "_EFI_CONFIGURATION_TABLE\0"
 5871      5F434F4E 
 5871      46494755 
 5871      52415449 
 5871      4F4E5F54 
 5872 25b7 18       		.byte	0x18
 5873 25b8 08       		.byte	0x8
 5874 25b9 D403     		.word	0x3d4
 5875 25bb EB250000 		.long	0x25eb
 5876 25bf 04       		.uleb128 0x4
 5877 25c0 56656E64 		.ascii "VendorGuid\0"
 5877      6F724775 
 5877      696400
 5878 25cb 08       		.byte	0x8
 5879 25cc D503     		.word	0x3d5
 5880 25ce 1D       		.byte	0x1d
 5881 25cf D0030000 		.long	0x3d0
 5882 25d3 00       		.byte	0
 5883 25d4 04       		.uleb128 0x4
 5884 25d5 56656E64 		.ascii "VendorTable\0"
 5884      6F725461 
 5884      626C6500 
 5885 25e1 08       		.byte	0x8
 5886 25e2 D603     		.word	0x3d6
 5887 25e4 1E       		.byte	0x1e
 5888 25e5 64030000 		.long	0x364
 5889 25e9 10       		.byte	0x10
 5890 25ea 00       		.byte	0
 5891 25eb 07       		.uleb128 0x7
 5892 25ec 4546495F 		.ascii "EFI_CONFIGURATION_TABLE\0"
 5892      434F4E46 
 5892      49475552 
 5892      4154494F 
 5892      4E5F5441 
 5893 2604 08       		.byte	0x8
 5894 2605 D703     		.word	0x3d7
 5895 2607 03       		.byte	0x3
 5896 2608 9D250000 		.long	0x259d
 5897 260c 03       		.uleb128 0x3
 5898 260d 660E0000 		.long	0xe66
 5899 2611 03       		.uleb128 0x3
 5900 2612 060D0000 		.long	0xd06
 5901 2616 03       		.uleb128 0x3
 5902 2617 C9200000 		.long	0x20c9
 5903 261b 03       		.uleb128 0x3
 5904 261c 82250000 		.long	0x2582
 5905 2620 03       		.uleb128 0x3
 5906 2621 EB250000 		.long	0x25eb
 5907 2625 07       		.uleb128 0x7
 5908 2626 4546495F 		.ascii "EFI_SYSTEM_TABLE\0"
 5908      53595354 
 5908      454D5F54 
 5908      41424C45 
 5908      00
 5909 2637 08       		.byte	0x8
 5910 2638 0704     		.word	0x407
 5911 263a 03       		.byte	0x3
 5912 263b 84080000 		.long	0x884
 5913 263f 03       		.uleb128 0x3
 5914 2640 25260000 		.long	0x2625
 5915 2644 22       		.uleb128 0x22
 5916 2645 73656564 		.ascii "seed\0"
 5916      00
 5917 264a 3C       		.byte	0x3c
 5918 264b 16       		.byte	0x16
 5919 264c 58020000 		.long	0x258
 5920 2650 09       		.uleb128 0x9
 5921 2651 03       		.byte	0x3
 5922 2652 00000000 		.quad	seed
 5922      00000000 
 5923 265a 3A       		.uleb128 0x3a
 5924 265b 496E6974 		.ascii "InitializeLib\0"
 5924      69616C69 
 5924      7A654C69 
 5924      6200
 5925 2669 0A       		.byte	0xa
 5926 266a E2       		.byte	0xe2
 5927 266b 01       		.byte	0x1
 5928 266c 7B260000 		.long	0x267b
 5929 2670 01       		.uleb128 0x1
 5930 2671 51030000 		.long	0x351
 5931 2675 01       		.uleb128 0x1
 5932 2676 3F260000 		.long	0x263f
 5933 267a 00       		.byte	0
 5934 267b 2F       		.uleb128 0x2f
 5935 267c 5374724C 		.ascii "StrLen\0"
 5935      656E00
 5936 2683 7C01     		.word	0x17c
 5937 2685 02030000 		.long	0x302
 5938 2689 93260000 		.long	0x2693
 5939 268d 01       		.uleb128 0x1
 5940 268e 1A080000 		.long	0x81a
 5941 2692 00       		.byte	0
 5942 2693 2F       		.uleb128 0x2f
 5943 2694 5072696E 		.ascii "Print\0"
 5943      7400
 5944 269a 1502     		.word	0x215
 5945 269c 02030000 		.long	0x302
 5946 26a0 AB260000 		.long	0x26ab
 5947 26a4 01       		.uleb128 0x1
 5948 26a5 1A080000 		.long	0x81a
 5949 26a9 29       		.uleb128 0x29
 5950 26aa 00       		.byte	0
 5951 26ab 3B       		.uleb128 0x3b
 5952 26ac 6566695F 		.ascii "efi_main\0"
 5952      6D61696E 
 5952      00
 5953 26b5 01       		.byte	0x1
 5954 26b6 8D01     		.word	0x18d
 5955 26b8 13       		.byte	0x13
 5956 26b9 2E030000 		.long	0x32e
 5957 26bd 4E0D0000 		.quad	.LFB23
 5957      00000000 
 5958 26c5 64020000 		.quad	.LFE23-.LFB23
 5958      00000000 
 5959 26cd 01       		.uleb128 0x1
 5960 26ce 9C       		.byte	0x9c
 5961 26cf 922A0000 		.long	0x2a92
 5962 26d3 30       		.uleb128 0x30
 5963 26d4 496D6167 		.ascii "ImageHandle\0"
 5963      6548616E 
 5963      646C6500 
 5964 26e0 8D01     		.word	0x18d
 5965 26e2 27       		.byte	0x27
 5966 26e3 51030000 		.long	0x351
 5967 26e7 10000000 		.secrel32	.LLST142
 5968 26eb 0C000000 		.secrel32	.LVUS142
 5969 26ef 10       		.uleb128 0x10
 5970 26f0 4D000000 		.secrel32	.LASF5
 5971 26f4 8D01     		.word	0x18d
 5972 26f6 46       		.byte	0x46
 5973 26f7 3F260000 		.long	0x263f
 5974 26fb 2A000000 		.secrel32	.LLST143
 5975 26ff 22000000 		.secrel32	.LVUS143
 5976 2703 31       		.uleb128 0x31
 5977 2704 59000000 		.secrel32	.LASF6
 5978 2708 0B       		.byte	0xb
 5979 2709 02030000 		.long	0x302
 5980 270d 02       		.uleb128 0x2
 5981 270e 91       		.byte	0x91
 5982 270f 58       		.sleb128 -40
 5983 2710 31       		.uleb128 0x31
 5984 2711 61000000 		.secrel32	.LASF7
 5985 2715 14       		.byte	0x14
 5986 2716 02030000 		.long	0x302
 5987 271a 02       		.uleb128 0x2
 5988 271b 91       		.byte	0x91
 5989 271c 50       		.sleb128 -48
 5990 271d 17       		.uleb128 0x17
 5991 271e 30000000 		.secrel32	.LASF8
 5992 2722 9201     		.word	0x192
 5993 2724 10       		.byte	0x10
 5994 2725 2E030000 		.long	0x32e
 5995 2729 52000000 		.secrel32	.LLST144
 5996 272d 4A000000 		.secrel32	.LVUS144
 5997 2731 17       		.uleb128 0x17
 5998 2732 37000000 		.secrel32	.LASF9
 5999 2736 9901     		.word	0x199
 6000 2738 0B       		.byte	0xb
 6001 2739 02030000 		.long	0x302
 6002 273d 71000000 		.secrel32	.LLST145
 6003 2741 6F000000 		.secrel32	.LVUS145
 6004 2745 08       		.uleb128 0x8
 6005 2746 5C0D0000 		.quad	.LVL326
 6005      00000000 
 6006 274e 5A260000 		.long	0x265a
 6007 2752 64270000 		.long	0x2764
 6008 2756 02       		.uleb128 0x2
 6009 2757 01       		.uleb128 0x1
 6010 2758 52       		.byte	0x52
 6011 2759 03       		.uleb128 0x3
 6012 275a A3       		.byte	0xa3
 6013 275b 01       		.uleb128 0x1
 6014 275c 52       		.byte	0x52
 6015 275d 02       		.uleb128 0x2
 6016 275e 01       		.uleb128 0x1
 6017 275f 51       		.byte	0x51
 6018 2760 02       		.uleb128 0x2
 6019 2761 73       		.byte	0x73
 6020 2762 00       		.sleb128 0
 6021 2763 00       		.byte	0
 6022 2764 0B       		.uleb128 0xb
 6023 2765 780D0000 		.quad	.LVL327
 6023      00000000 
 6024 276d 7E270000 		.long	0x277e
 6025 2771 02       		.uleb128 0x2
 6026 2772 01       		.uleb128 0x1
 6027 2773 58       		.byte	0x58
 6028 2774 02       		.uleb128 0x2
 6029 2775 91       		.byte	0x91
 6030 2776 58       		.sleb128 -40
 6031 2777 02       		.uleb128 0x2
 6032 2778 01       		.uleb128 0x1
 6033 2779 59       		.byte	0x59
 6034 277a 02       		.uleb128 0x2
 6035 277b 91       		.byte	0x91
 6036 277c 50       		.sleb128 -48
 6037 277d 00       		.byte	0
 6038 277e 08       		.uleb128 0x8
 6039 277f 8C0D0000 		.quad	.LVL330
 6039      00000000 
 6040 2787 4B3F0000 		.long	0x3f4b
 6041 278b 96270000 		.long	0x2796
 6042 278f 02       		.uleb128 0x2
 6043 2790 01       		.uleb128 0x1
 6044 2791 52       		.byte	0x52
 6045 2792 02       		.uleb128 0x2
 6046 2793 73       		.byte	0x73
 6047 2794 00       		.sleb128 0
 6048 2795 00       		.byte	0
 6049 2796 08       		.uleb128 0x8
 6050 2797 A40D0000 		.quad	.LVL331
 6050      00000000 
 6051 279f 922A0000 		.long	0x2a92
 6052 27a3 B7270000 		.long	0x27b7
 6053 27a7 02       		.uleb128 0x2
 6054 27a8 01       		.uleb128 0x1
 6055 27a9 52       		.byte	0x52
 6056 27aa 02       		.uleb128 0x2
 6057 27ab 73       		.byte	0x73
 6058 27ac 00       		.sleb128 0
 6059 27ad 02       		.uleb128 0x2
 6060 27ae 01       		.uleb128 0x1
 6061 27af 59       		.byte	0x59
 6062 27b0 05       		.uleb128 0x5
 6063 27b1 0C       		.byte	0xc
 6064 27b2 80969800 		.long	0x989680
 6065 27b6 00       		.byte	0
 6066 27b7 08       		.uleb128 0x8
 6067 27b8 C20D0000 		.quad	.LVL333
 6067      00000000 
 6068 27c0 223D0000 		.long	0x3d22
 6069 27c4 DF270000 		.long	0x27df
 6070 27c8 02       		.uleb128 0x2
 6071 27c9 01       		.uleb128 0x1
 6072 27ca 52       		.byte	0x52
 6073 27cb 02       		.uleb128 0x2
 6074 27cc 73       		.byte	0x73
 6075 27cd 00       		.sleb128 0
 6076 27ce 02       		.uleb128 0x2
 6077 27cf 01       		.uleb128 0x1
 6078 27d0 51       		.byte	0x51
 6079 27d1 02       		.uleb128 0x2
 6080 27d2 74       		.byte	0x74
 6081 27d3 00       		.sleb128 0
 6082 27d4 02       		.uleb128 0x2
 6083 27d5 01       		.uleb128 0x1
 6084 27d6 58       		.byte	0x58
 6085 27d7 01       		.uleb128 0x1
 6086 27d8 3A       		.byte	0x3a
 6087 27d9 02       		.uleb128 0x2
 6088 27da 01       		.uleb128 0x1
 6089 27db 59       		.byte	0x59
 6090 27dc 01       		.uleb128 0x1
 6091 27dd 3A       		.byte	0x3a
 6092 27de 00       		.byte	0
 6093 27df 08       		.uleb128 0x8
 6094 27e0 DA0D0000 		.quad	.LVL334
 6094      00000000 
 6095 27e8 922A0000 		.long	0x2a92
 6096 27ec 00280000 		.long	0x2800
 6097 27f0 02       		.uleb128 0x2
 6098 27f1 01       		.uleb128 0x1
 6099 27f2 52       		.byte	0x52
 6100 27f3 02       		.uleb128 0x2
 6101 27f4 73       		.byte	0x73
 6102 27f5 00       		.sleb128 0
 6103 27f6 02       		.uleb128 0x2
 6104 27f7 01       		.uleb128 0x1
 6105 27f8 59       		.byte	0x59
 6106 27f9 05       		.uleb128 0x5
 6107 27fa 0C       		.byte	0xc
 6108 27fb 80969800 		.long	0x989680
 6109 27ff 00       		.byte	0
 6110 2800 08       		.uleb128 0x8
 6111 2801 EC0D0000 		.quad	.LVL335
 6111      00000000 
 6112 2809 E03B0000 		.long	0x3be0
 6113 280d 18280000 		.long	0x2818
 6114 2811 02       		.uleb128 0x2
 6115 2812 01       		.uleb128 0x1
 6116 2813 52       		.byte	0x52
 6117 2814 02       		.uleb128 0x2
 6118 2815 73       		.byte	0x73
 6119 2816 00       		.sleb128 0
 6120 2817 00       		.byte	0
 6121 2818 08       		.uleb128 0x8
 6122 2819 040E0000 		.quad	.LVL336
 6122      00000000 
 6123 2821 922A0000 		.long	0x2a92
 6124 2825 39280000 		.long	0x2839
 6125 2829 02       		.uleb128 0x2
 6126 282a 01       		.uleb128 0x1
 6127 282b 52       		.byte	0x52
 6128 282c 02       		.uleb128 0x2
 6129 282d 73       		.byte	0x73
 6130 282e 00       		.sleb128 0
 6131 282f 02       		.uleb128 0x2
 6132 2830 01       		.uleb128 0x1
 6133 2831 59       		.byte	0x59
 6134 2832 05       		.uleb128 0x5
 6135 2833 0C       		.byte	0xc
 6136 2834 80969800 		.long	0x989680
 6137 2838 00       		.byte	0
 6138 2839 08       		.uleb128 0x8
 6139 283a 240E0000 		.quad	.LVL337
 6139      00000000 
 6140 2842 503A0000 		.long	0x3a50
 6141 2846 67280000 		.long	0x2867
 6142 284a 02       		.uleb128 0x2
 6143 284b 01       		.uleb128 0x1
 6144 284c 52       		.byte	0x52
 6145 284d 02       		.uleb128 0x2
 6146 284e 73       		.byte	0x73
 6147 284f 00       		.sleb128 0
 6148 2850 02       		.uleb128 0x2
 6149 2851 01       		.uleb128 0x1
 6150 2852 51       		.byte	0x51
 6151 2853 02       		.uleb128 0x2
 6152 2854 74       		.byte	0x74
 6153 2855 00       		.sleb128 0
 6154 2856 02       		.uleb128 0x2
 6155 2857 01       		.uleb128 0x1
 6156 2858 58       		.byte	0x58
 6157 2859 01       		.uleb128 0x1
 6158 285a 30       		.byte	0x30
 6159 285b 02       		.uleb128 0x2
 6160 285c 01       		.uleb128 0x1
 6161 285d 59       		.byte	0x59
 6162 285e 01       		.uleb128 0x1
 6163 285f 3A       		.byte	0x3a
 6164 2860 02       		.uleb128 0x2
 6165 2861 02       		.uleb128 0x2
 6166 2862 77       		.byte	0x77
 6167 2863 20       		.sleb128 32
 6168 2864 01       		.uleb128 0x1
 6169 2865 32       		.byte	0x32
 6170 2866 00       		.byte	0
 6171 2867 08       		.uleb128 0x8
 6172 2868 3C0E0000 		.quad	.LVL338
 6172      00000000 
 6173 2870 922A0000 		.long	0x2a92
 6174 2874 88280000 		.long	0x2888
 6175 2878 02       		.uleb128 0x2
 6176 2879 01       		.uleb128 0x1
 6177 287a 52       		.byte	0x52
 6178 287b 02       		.uleb128 0x2
 6179 287c 73       		.byte	0x73
 6180 287d 00       		.sleb128 0
 6181 287e 02       		.uleb128 0x2
 6182 287f 01       		.uleb128 0x1
 6183 2880 59       		.byte	0x59
 6184 2881 05       		.uleb128 0x5
 6185 2882 0C       		.byte	0xc
 6186 2883 80969800 		.long	0x989680
 6187 2887 00       		.byte	0
 6188 2888 08       		.uleb128 0x8
 6189 2889 570E0000 		.quad	.LVL339
 6189      00000000 
 6190 2891 FE380000 		.long	0x38fe
 6191 2895 A6280000 		.long	0x28a6
 6192 2899 02       		.uleb128 0x2
 6193 289a 01       		.uleb128 0x1
 6194 289b 52       		.byte	0x52
 6195 289c 02       		.uleb128 0x2
 6196 289d 73       		.byte	0x73
 6197 289e 00       		.sleb128 0
 6198 289f 02       		.uleb128 0x2
 6199 28a0 01       		.uleb128 0x1
 6200 28a1 51       		.byte	0x51
 6201 28a2 02       		.uleb128 0x2
 6202 28a3 74       		.byte	0x74
 6203 28a4 00       		.sleb128 0
 6204 28a5 00       		.byte	0
 6205 28a6 08       		.uleb128 0x8
 6206 28a7 6F0E0000 		.quad	.LVL340
 6206      00000000 
 6207 28af 922A0000 		.long	0x2a92
 6208 28b3 C7280000 		.long	0x28c7
 6209 28b7 02       		.uleb128 0x2
 6210 28b8 01       		.uleb128 0x1
 6211 28b9 52       		.byte	0x52
 6212 28ba 02       		.uleb128 0x2
 6213 28bb 73       		.byte	0x73
 6214 28bc 00       		.sleb128 0
 6215 28bd 02       		.uleb128 0x2
 6216 28be 01       		.uleb128 0x1
 6217 28bf 59       		.byte	0x59
 6218 28c0 05       		.uleb128 0x5
 6219 28c1 0C       		.byte	0xc
 6220 28c2 80969800 		.long	0x989680
 6221 28c6 00       		.byte	0
 6222 28c7 08       		.uleb128 0x8
 6223 28c8 860E0000 		.quad	.LVL341
 6223      00000000 
 6224 28d0 EF370000 		.long	0x37ef
 6225 28d4 EF280000 		.long	0x28ef
 6226 28d8 02       		.uleb128 0x2
 6227 28d9 01       		.uleb128 0x1
 6228 28da 52       		.byte	0x52
 6229 28db 02       		.uleb128 0x2
 6230 28dc 73       		.byte	0x73
 6231 28dd 00       		.sleb128 0
 6232 28de 02       		.uleb128 0x2
 6233 28df 01       		.uleb128 0x1
 6234 28e0 51       		.byte	0x51
 6235 28e1 02       		.uleb128 0x2
 6236 28e2 74       		.byte	0x74
 6237 28e3 00       		.sleb128 0
 6238 28e4 02       		.uleb128 0x2
 6239 28e5 01       		.uleb128 0x1
 6240 28e6 58       		.byte	0x58
 6241 28e7 01       		.uleb128 0x1
 6242 28e8 35       		.byte	0x35
 6243 28e9 02       		.uleb128 0x2
 6244 28ea 01       		.uleb128 0x1
 6245 28eb 59       		.byte	0x59
 6246 28ec 01       		.uleb128 0x1
 6247 28ed 35       		.byte	0x35
 6248 28ee 00       		.byte	0
 6249 28ef 08       		.uleb128 0x8
 6250 28f0 9E0E0000 		.quad	.LVL342
 6250      00000000 
 6251 28f8 922A0000 		.long	0x2a92
 6252 28fc 10290000 		.long	0x2910
 6253 2900 02       		.uleb128 0x2
 6254 2901 01       		.uleb128 0x1
 6255 2902 52       		.byte	0x52
 6256 2903 02       		.uleb128 0x2
 6257 2904 73       		.byte	0x73
 6258 2905 00       		.sleb128 0
 6259 2906 02       		.uleb128 0x2
 6260 2907 01       		.uleb128 0x1
 6261 2908 59       		.byte	0x59
 6262 2909 05       		.uleb128 0x5
 6263 290a 0C       		.byte	0xc
 6264 290b 80969800 		.long	0x989680
 6265 290f 00       		.byte	0
 6266 2910 08       		.uleb128 0x8
 6267 2911 B00E0000 		.quad	.LVL343
 6267      00000000 
 6268 2919 B7360000 		.long	0x36b7
 6269 291d 28290000 		.long	0x2928
 6270 2921 02       		.uleb128 0x2
 6271 2922 01       		.uleb128 0x1
 6272 2923 52       		.byte	0x52
 6273 2924 02       		.uleb128 0x2
 6274 2925 73       		.byte	0x73
 6275 2926 00       		.sleb128 0
 6276 2927 00       		.byte	0
 6277 2928 08       		.uleb128 0x8
 6278 2929 C80E0000 		.quad	.LVL344
 6278      00000000 
 6279 2931 922A0000 		.long	0x2a92
 6280 2935 49290000 		.long	0x2949
 6281 2939 02       		.uleb128 0x2
 6282 293a 01       		.uleb128 0x1
 6283 293b 52       		.byte	0x52
 6284 293c 02       		.uleb128 0x2
 6285 293d 73       		.byte	0x73
 6286 293e 00       		.sleb128 0
 6287 293f 02       		.uleb128 0x2
 6288 2940 01       		.uleb128 0x1
 6289 2941 59       		.byte	0x59
 6290 2942 05       		.uleb128 0x5
 6291 2943 0C       		.byte	0xc
 6292 2944 80969800 		.long	0x989680
 6293 2948 00       		.byte	0
 6294 2949 08       		.uleb128 0x8
 6295 294a DA0E0000 		.quad	.LVL345
 6295      00000000 
 6296 2952 33350000 		.long	0x3533
 6297 2956 61290000 		.long	0x2961
 6298 295a 02       		.uleb128 0x2
 6299 295b 01       		.uleb128 0x1
 6300 295c 52       		.byte	0x52
 6301 295d 02       		.uleb128 0x2
 6302 295e 73       		.byte	0x73
 6303 295f 00       		.sleb128 0
 6304 2960 00       		.byte	0
 6305 2961 08       		.uleb128 0x8
 6306 2962 F20E0000 		.quad	.LVL346
 6306      00000000 
 6307 296a 922A0000 		.long	0x2a92
 6308 296e 82290000 		.long	0x2982
 6309 2972 02       		.uleb128 0x2
 6310 2973 01       		.uleb128 0x1
 6311 2974 52       		.byte	0x52
 6312 2975 02       		.uleb128 0x2
 6313 2976 73       		.byte	0x73
 6314 2977 00       		.sleb128 0
 6315 2978 02       		.uleb128 0x2
 6316 2979 01       		.uleb128 0x1
 6317 297a 59       		.byte	0x59
 6318 297b 05       		.uleb128 0x5
 6319 297c 0C       		.byte	0xc
 6320 297d 80969800 		.long	0x989680
 6321 2981 00       		.byte	0
 6322 2982 08       		.uleb128 0x8
 6323 2983 FA0E0000 		.quad	.LVL347
 6323      00000000 
 6324 298b 51340000 		.long	0x3451
 6325 298f 9A290000 		.long	0x299a
 6326 2993 02       		.uleb128 0x2
 6327 2994 01       		.uleb128 0x1
 6328 2995 52       		.byte	0x52
 6329 2996 02       		.uleb128 0x2
 6330 2997 73       		.byte	0x73
 6331 2998 00       		.sleb128 0
 6332 2999 00       		.byte	0
 6333 299a 08       		.uleb128 0x8
 6334 299b 120F0000 		.quad	.LVL348
 6334      00000000 
 6335 29a3 922A0000 		.long	0x2a92
 6336 29a7 BB290000 		.long	0x29bb
 6337 29ab 02       		.uleb128 0x2
 6338 29ac 01       		.uleb128 0x1
 6339 29ad 52       		.byte	0x52
 6340 29ae 02       		.uleb128 0x2
 6341 29af 73       		.byte	0x73
 6342 29b0 00       		.sleb128 0
 6343 29b1 02       		.uleb128 0x2
 6344 29b2 01       		.uleb128 0x1
 6345 29b3 59       		.byte	0x59
 6346 29b4 05       		.uleb128 0x5
 6347 29b5 0C       		.byte	0xc
 6348 29b6 80969800 		.long	0x989680
 6349 29ba 00       		.byte	0
 6350 29bb 08       		.uleb128 0x8
 6351 29bc 290F0000 		.quad	.LVL349
 6351      00000000 
 6352 29c4 1C330000 		.long	0x331c
 6353 29c8 E3290000 		.long	0x29e3
 6354 29cc 02       		.uleb128 0x2
 6355 29cd 01       		.uleb128 0x1
 6356 29ce 52       		.byte	0x52
 6357 29cf 02       		.uleb128 0x2
 6358 29d0 73       		.byte	0x73
 6359 29d1 00       		.sleb128 0
 6360 29d2 02       		.uleb128 0x2
 6361 29d3 01       		.uleb128 0x1
 6362 29d4 51       		.byte	0x51
 6363 29d5 02       		.uleb128 0x2
 6364 29d6 74       		.byte	0x74
 6365 29d7 00       		.sleb128 0
 6366 29d8 02       		.uleb128 0x2
 6367 29d9 01       		.uleb128 0x1
 6368 29da 58       		.byte	0x58
 6369 29db 01       		.uleb128 0x1
 6370 29dc 44       		.byte	0x44
 6371 29dd 02       		.uleb128 0x2
 6372 29de 01       		.uleb128 0x1
 6373 29df 59       		.byte	0x59
 6374 29e0 01       		.uleb128 0x1
 6375 29e1 3A       		.byte	0x3a
 6376 29e2 00       		.byte	0
 6377 29e3 08       		.uleb128 0x8
 6378 29e4 410F0000 		.quad	.LVL350
 6378      00000000 
 6379 29ec 922A0000 		.long	0x2a92
 6380 29f0 042A0000 		.long	0x2a04
 6381 29f4 02       		.uleb128 0x2
 6382 29f5 01       		.uleb128 0x1
 6383 29f6 52       		.byte	0x52
 6384 29f7 02       		.uleb128 0x2
 6385 29f8 73       		.byte	0x73
 6386 29f9 00       		.sleb128 0
 6387 29fa 02       		.uleb128 0x2
 6388 29fb 01       		.uleb128 0x1
 6389 29fc 59       		.byte	0x59
 6390 29fd 05       		.uleb128 0x5
 6391 29fe 0C       		.byte	0xc
 6392 29ff 80969800 		.long	0x989680
 6393 2a03 00       		.byte	0
 6394 2a04 08       		.uleb128 0x8
 6395 2a05 530F0000 		.quad	.LVL351
 6395      00000000 
 6396 2a0d 49310000 		.long	0x3149
 6397 2a11 1C2A0000 		.long	0x2a1c
 6398 2a15 02       		.uleb128 0x2
 6399 2a16 01       		.uleb128 0x1
 6400 2a17 52       		.byte	0x52
 6401 2a18 02       		.uleb128 0x2
 6402 2a19 73       		.byte	0x73
 6403 2a1a 00       		.sleb128 0
 6404 2a1b 00       		.byte	0
 6405 2a1c 08       		.uleb128 0x8
 6406 2a1d 6B0F0000 		.quad	.LVL352
 6406      00000000 
 6407 2a25 922A0000 		.long	0x2a92
 6408 2a29 3D2A0000 		.long	0x2a3d
 6409 2a2d 02       		.uleb128 0x2
 6410 2a2e 01       		.uleb128 0x1
 6411 2a2f 52       		.byte	0x52
 6412 2a30 02       		.uleb128 0x2
 6413 2a31 73       		.byte	0x73
 6414 2a32 00       		.sleb128 0
 6415 2a33 02       		.uleb128 0x2
 6416 2a34 01       		.uleb128 0x1
 6417 2a35 59       		.byte	0x59
 6418 2a36 05       		.uleb128 0x5
 6419 2a37 0C       		.byte	0xc
 6420 2a38 80969800 		.long	0x989680
 6421 2a3c 00       		.byte	0
 6422 2a3d 08       		.uleb128 0x8
 6423 2a3e 7D0F0000 		.quad	.LVL353
 6423      00000000 
 6424 2a46 5D2F0000 		.long	0x2f5d
 6425 2a4a 552A0000 		.long	0x2a55
 6426 2a4e 02       		.uleb128 0x2
 6427 2a4f 01       		.uleb128 0x1
 6428 2a50 52       		.byte	0x52
 6429 2a51 02       		.uleb128 0x2
 6430 2a52 73       		.byte	0x73
 6431 2a53 00       		.sleb128 0
 6432 2a54 00       		.byte	0
 6433 2a55 08       		.uleb128 0x8
 6434 2a56 950F0000 		.quad	.LVL354
 6434      00000000 
 6435 2a5e 922A0000 		.long	0x2a92
 6436 2a62 762A0000 		.long	0x2a76
 6437 2a66 02       		.uleb128 0x2
 6438 2a67 01       		.uleb128 0x1
 6439 2a68 52       		.byte	0x52
 6440 2a69 02       		.uleb128 0x2
 6441 2a6a 73       		.byte	0x73
 6442 2a6b 00       		.sleb128 0
 6443 2a6c 02       		.uleb128 0x2
 6444 2a6d 01       		.uleb128 0x1
 6445 2a6e 59       		.byte	0x59
 6446 2a6f 05       		.uleb128 0x5
 6447 2a70 0C       		.byte	0xc
 6448 2a71 80969800 		.long	0x989680
 6449 2a75 00       		.byte	0
 6450 2a76 0F       		.uleb128 0xf
 6451 2a77 B00F0000 		.quad	.LVL358
 6451      00000000 
 6452 2a7f 93260000 		.long	0x2693
 6453 2a83 02       		.uleb128 0x2
 6454 2a84 01       		.uleb128 0x1
 6455 2a85 52       		.byte	0x52
 6456 2a86 09       		.uleb128 0x9
 6457 2a87 03       		.byte	0x3
 6458 2a88 E0000000 		.quad	.LC16
 6458      00000000 
 6459 2a90 00       		.byte	0
 6460 2a91 00       		.byte	0
 6461 2a92 2A       		.uleb128 0x2a
 6462 2a93 6472616D 		.ascii "dramatic_sound_effects\0"
 6462      61746963 
 6462      5F736F75 
 6462      6E645F65 
 6462      66666563 
 6463 2aaa 6901     		.word	0x169
 6464 2aac DD0B0000 		.quad	.LFB22
 6464      00000000 
 6465 2ab4 71010000 		.quad	.LFE22-.LFB22
 6465      00000000 
 6466 2abc 01       		.uleb128 0x1
 6467 2abd 9C       		.byte	0x9c
 6468 2abe 042D0000 		.long	0x2d04
 6469 2ac2 10       		.uleb128 0x10
 6470 2ac3 4D000000 		.secrel32	.LASF5
 6471 2ac7 6901     		.word	0x169
 6472 2ac9 2F       		.byte	0x2f
 6473 2aca 3F260000 		.long	0x263f
 6474 2ace 82000000 		.secrel32	.LLST133
 6475 2ad2 7E000000 		.secrel32	.LVUS133
 6476 2ad6 10       		.uleb128 0x10
 6477 2ad7 59000000 		.secrel32	.LASF6
 6478 2adb 6901     		.word	0x169
 6479 2add 42       		.byte	0x42
 6480 2ade 02030000 		.long	0x302
 6481 2ae2 9A000000 		.secrel32	.LLST134
 6482 2ae6 94000000 		.secrel32	.LVUS134
 6483 2aea 10       		.uleb128 0x10
 6484 2aeb 61000000 		.secrel32	.LASF7
 6485 2aef 6901     		.word	0x169
 6486 2af1 51       		.byte	0x51
 6487 2af2 02030000 		.long	0x302
 6488 2af6 B9000000 		.secrel32	.LLST135
 6489 2afa B3000000 		.secrel32	.LVUS135
 6490 2afe 10       		.uleb128 0x10
 6491 2aff 37000000 		.secrel32	.LASF9
 6492 2b03 6901     		.word	0x169
 6493 2b05 5D       		.byte	0x5d
 6494 2b06 02030000 		.long	0x302
 6495 2b0a D6000000 		.secrel32	.LLST136
 6496 2b0e D2000000 		.secrel32	.LVUS136
 6497 2b12 17       		.uleb128 0x17
 6498 2b13 46000000 		.secrel32	.LASF3
 6499 2b17 6A01     		.word	0x16a
 6500 2b19 23       		.byte	0x23
 6501 2b1a 042D0000 		.long	0x2d04
 6502 2b1e EA000000 		.secrel32	.LLST137
 6503 2b22 E8000000 		.secrel32	.LVUS137
 6504 2b26 11       		.uleb128 0x11
 6505 2b27 69746572 		.ascii "iterations\0"
 6505      6174696F 
 6505      6E7300
 6506 2b32 6B01     		.word	0x16b
 6507 2b34 0B       		.byte	0xb
 6508 2b35 02030000 		.long	0x302
 6509 2b39 F6000000 		.secrel32	.LLST138
 6510 2b3d F2000000 		.secrel32	.LVUS138
 6511 2b41 12       		.uleb128 0x12
 6512 2b42 0E0C0000 		.quad	.LBB79
 6512      00000000 
 6513 2b4a 2F010000 		.quad	.LBE79-.LBB79
 6513      00000000 
 6514 2b52 11       		.uleb128 0x11
 6515 2b53 6900     		.ascii "i\0"
 6516 2b55 6D01     		.word	0x16d
 6517 2b57 10       		.byte	0x10
 6518 2b58 02030000 		.long	0x302
 6519 2b5c 09010000 		.secrel32	.LLST139
 6520 2b60 05010000 		.secrel32	.LVUS139
 6521 2b64 19       		.uleb128 0x19
 6522 2b65 B1000000 		.secrel32	.LLRL140
 6523 2b69 17       		.uleb128 0x17
 6524 2b6a 2A000000 		.secrel32	.LASF10
 6525 2b6e 6F01     		.word	0x16f
 6526 2b70 0F       		.byte	0xf
 6527 2b71 02030000 		.long	0x302
 6528 2b75 1B010000 		.secrel32	.LLST141
 6529 2b79 19010000 		.secrel32	.LVUS141
 6530 2b7d 08       		.uleb128 0x8
 6531 2b7e 2D0C0000 		.quad	.LVL303
 6531      00000000 
 6532 2b86 78420000 		.long	0x4278
 6533 2b8a 982B0000 		.long	0x2b98
 6534 2b8e 02       		.uleb128 0x2
 6535 2b8f 01       		.uleb128 0x1
 6536 2b90 52       		.byte	0x52
 6537 2b91 05       		.uleb128 0x5
 6538 2b92 0C       		.byte	0xc
 6539 2b93 20A10700 		.long	0x7a120
 6540 2b97 00       		.byte	0
 6541 2b98 0B       		.uleb128 0xb
 6542 2b99 4E0C0000 		.quad	.LVL306
 6542      00000000 
 6543 2ba1 AC2B0000 		.long	0x2bac
 6544 2ba5 02       		.uleb128 0x2
 6545 2ba6 01       		.uleb128 0x1
 6546 2ba7 52       		.byte	0x52
 6547 2ba8 02       		.uleb128 0x2
 6548 2ba9 73       		.byte	0x73
 6549 2baa 00       		.sleb128 0
 6550 2bab 00       		.byte	0
 6551 2bac 0B       		.uleb128 0xb
 6552 2bad 540C0000 		.quad	.LVL307
 6552      00000000 
 6553 2bb5 C02B0000 		.long	0x2bc0
 6554 2bb9 02       		.uleb128 0x2
 6555 2bba 01       		.uleb128 0x1
 6556 2bbb 52       		.byte	0x52
 6557 2bbc 02       		.uleb128 0x2
 6558 2bbd 73       		.byte	0x73
 6559 2bbe 00       		.sleb128 0
 6560 2bbf 00       		.byte	0
 6561 2bc0 0B       		.uleb128 0xb
 6562 2bc1 700C0000 		.quad	.LVL308
 6562      00000000 
 6563 2bc9 E02B0000 		.long	0x2be0
 6564 2bcd 02       		.uleb128 0x2
 6565 2bce 01       		.uleb128 0x1
 6566 2bcf 52       		.byte	0x52
 6567 2bd0 02       		.uleb128 0x2
 6568 2bd1 73       		.byte	0x73
 6569 2bd2 00       		.sleb128 0
 6570 2bd3 02       		.uleb128 0x2
 6571 2bd4 01       		.uleb128 0x1
 6572 2bd5 51       		.byte	0x51
 6573 2bd6 02       		.uleb128 0x2
 6574 2bd7 75       		.byte	0x75
 6575 2bd8 00       		.sleb128 0
 6576 2bd9 02       		.uleb128 0x2
 6577 2bda 01       		.uleb128 0x1
 6578 2bdb 58       		.byte	0x58
 6579 2bdc 02       		.uleb128 0x2
 6580 2bdd 76       		.byte	0x76
 6581 2bde 00       		.sleb128 0
 6582 2bdf 00       		.byte	0
 6583 2be0 08       		.uleb128 0x8
 6584 2be1 7C0C0000 		.quad	.LVL309
 6584      00000000 
 6585 2be9 93260000 		.long	0x2693
 6586 2bed FF2B0000 		.long	0x2bff
 6587 2bf1 02       		.uleb128 0x2
 6588 2bf2 01       		.uleb128 0x1
 6589 2bf3 52       		.byte	0x52
 6590 2bf4 09       		.uleb128 0x9
 6591 2bf5 03       		.byte	0x3
 6592 2bf6 88000000 		.quad	.LC13
 6592      00000000 
 6593 2bfe 00       		.byte	0
 6594 2bff 08       		.uleb128 0x8
 6595 2c00 900C0000 		.quad	.LVL310
 6595      00000000 
 6596 2c08 092D0000 		.long	0x2d09
 6597 2c0c 182C0000 		.long	0x2c18
 6598 2c10 02       		.uleb128 0x2
 6599 2c11 01       		.uleb128 0x1
 6600 2c12 51       		.byte	0x51
 6601 2c13 03       		.uleb128 0x3
 6602 2c14 0A       		.byte	0xa
 6603 2c15 50C3     		.word	0xc350
 6604 2c17 00       		.byte	0
 6605 2c18 0B       		.uleb128 0xb
 6606 2c19 C00C0000 		.quad	.LVL311
 6606      00000000 
 6607 2c21 382C0000 		.long	0x2c38
 6608 2c25 02       		.uleb128 0x2
 6609 2c26 01       		.uleb128 0x1
 6610 2c27 52       		.byte	0x52
 6611 2c28 02       		.uleb128 0x2
 6612 2c29 73       		.byte	0x73
 6613 2c2a 00       		.sleb128 0
 6614 2c2b 02       		.uleb128 0x2
 6615 2c2c 01       		.uleb128 0x1
 6616 2c2d 51       		.byte	0x51
 6617 2c2e 02       		.uleb128 0x2
 6618 2c2f 75       		.byte	0x75
 6619 2c30 00       		.sleb128 0
 6620 2c31 02       		.uleb128 0x2
 6621 2c32 01       		.uleb128 0x1
 6622 2c33 58       		.byte	0x58
 6623 2c34 02       		.uleb128 0x2
 6624 2c35 76       		.byte	0x76
 6625 2c36 01       		.sleb128 1
 6626 2c37 00       		.byte	0
 6627 2c38 08       		.uleb128 0x8
 6628 2c39 CC0C0000 		.quad	.LVL312
 6628      00000000 
 6629 2c41 93260000 		.long	0x2693
 6630 2c45 572C0000 		.long	0x2c57
 6631 2c49 02       		.uleb128 0x2
 6632 2c4a 01       		.uleb128 0x1
 6633 2c4b 52       		.byte	0x52
 6634 2c4c 09       		.uleb128 0x9
 6635 2c4d 03       		.byte	0x3
 6636 2c4e B0000000 		.quad	.LC14
 6636      00000000 
 6637 2c56 00       		.byte	0
 6638 2c57 08       		.uleb128 0x8
 6639 2c58 DB0C0000 		.quad	.LVL313
 6639      00000000 
 6640 2c60 092D0000 		.long	0x2d09
 6641 2c64 792C0000 		.long	0x2c79
 6642 2c68 02       		.uleb128 0x2
 6643 2c69 01       		.uleb128 0x1
 6644 2c6a 52       		.byte	0x52
 6645 2c6b 03       		.uleb128 0x3
 6646 2c6c 0A       		.byte	0xa
 6647 2c6d DC05     		.word	0x5dc
 6648 2c6f 02       		.uleb128 0x2
 6649 2c70 01       		.uleb128 0x1
 6650 2c71 51       		.byte	0x51
 6651 2c72 05       		.uleb128 0x5
 6652 2c73 0C       		.byte	0xc
 6653 2c74 A0860100 		.long	0x186a0
 6654 2c78 00       		.byte	0
 6655 2c79 0B       		.uleb128 0xb
 6656 2c7a 0A0D0000 		.quad	.LVL314
 6656      00000000 
 6657 2c82 922C0000 		.long	0x2c92
 6658 2c86 02       		.uleb128 0x2
 6659 2c87 01       		.uleb128 0x1
 6660 2c88 52       		.byte	0x52
 6661 2c89 02       		.uleb128 0x2
 6662 2c8a 73       		.byte	0x73
 6663 2c8b 00       		.sleb128 0
 6664 2c8c 02       		.uleb128 0x2
 6665 2c8d 01       		.uleb128 0x1
 6666 2c8e 51       		.byte	0x51
 6667 2c8f 01       		.uleb128 0x1
 6668 2c90 32       		.byte	0x32
 6669 2c91 00       		.byte	0
 6670 2c92 0B       		.uleb128 0xb
 6671 2c93 100D0000 		.quad	.LVL315
 6671      00000000 
 6672 2c9b A62C0000 		.long	0x2ca6
 6673 2c9f 02       		.uleb128 0x2
 6674 2ca0 01       		.uleb128 0x1
 6675 2ca1 52       		.byte	0x52
 6676 2ca2 02       		.uleb128 0x2
 6677 2ca3 73       		.byte	0x73
 6678 2ca4 00       		.sleb128 0
 6679 2ca5 00       		.byte	0
 6680 2ca6 0B       		.uleb128 0xb
 6681 2ca7 1D0D0000 		.quad	.LVL316
 6681      00000000 
 6682 2caf C62C0000 		.long	0x2cc6
 6683 2cb3 02       		.uleb128 0x2
 6684 2cb4 01       		.uleb128 0x1
 6685 2cb5 52       		.byte	0x52
 6686 2cb6 02       		.uleb128 0x2
 6687 2cb7 73       		.byte	0x73
 6688 2cb8 00       		.sleb128 0
 6689 2cb9 02       		.uleb128 0x2
 6690 2cba 01       		.uleb128 0x1
 6691 2cbb 51       		.byte	0x51
 6692 2cbc 02       		.uleb128 0x2
 6693 2cbd 75       		.byte	0x75
 6694 2cbe 00       		.sleb128 0
 6695 2cbf 02       		.uleb128 0x2
 6696 2cc0 01       		.uleb128 0x1
 6697 2cc1 58       		.byte	0x58
 6698 2cc2 02       		.uleb128 0x2
 6699 2cc3 76       		.byte	0x76
 6700 2cc4 02       		.sleb128 2
 6701 2cc5 00       		.byte	0
 6702 2cc6 08       		.uleb128 0x8
 6703 2cc7 290D0000 		.quad	.LVL317
 6703      00000000 
 6704 2ccf 93260000 		.long	0x2693
 6705 2cd3 E52C0000 		.long	0x2ce5
 6706 2cd7 02       		.uleb128 0x2
 6707 2cd8 01       		.uleb128 0x1
 6708 2cd9 52       		.byte	0x52
 6709 2cda 09       		.uleb128 0x9
 6710 2cdb 03       		.byte	0x3
 6711 2cdc D8000000 		.quad	.LC15
 6711      00000000 
 6712 2ce4 00       		.byte	0
 6713 2ce5 0F       		.uleb128 0xf
 6714 2ce6 380D0000 		.quad	.LVL318
 6714      00000000 
 6715 2cee 092D0000 		.long	0x2d09
 6716 2cf2 02       		.uleb128 0x2
 6717 2cf3 01       		.uleb128 0x1
 6718 2cf4 52       		.byte	0x52
 6719 2cf5 03       		.uleb128 0x3
 6720 2cf6 0A       		.byte	0xa
 6721 2cf7 B80B     		.word	0xbb8
 6722 2cf9 02       		.uleb128 0x2
 6723 2cfa 01       		.uleb128 0x1
 6724 2cfb 51       		.byte	0x51
 6725 2cfc 03       		.uleb128 0x3
 6726 2cfd 0A       		.byte	0xa
 6727 2cfe 50C3     		.word	0xc350
 6728 2d00 00       		.byte	0
 6729 2d01 00       		.byte	0
 6730 2d02 00       		.byte	0
 6731 2d03 00       		.byte	0
 6732 2d04 03       		.uleb128 0x3
 6733 2d05 2B0D0000 		.long	0xd2b
 6734 2d09 2A       		.uleb128 0x2a
 6735 2d0a 706C6179 		.ascii "play_beep\0"
 6735      5F626565 
 6735      7000
 6736 2d14 5401     		.word	0x154
 6737 2d16 990B0000 		.quad	.LFB21
 6737      00000000 
 6738 2d1e 44000000 		.quad	.LFE21-.LFB21
 6738      00000000 
 6739 2d26 01       		.uleb128 0x1
 6740 2d27 9C       		.byte	0x9c
 6741 2d28 5D2F0000 		.long	0x2f5d
 6742 2d2c 30       		.uleb128 0x30
 6743 2d2d 66726571 		.ascii "frequency\0"
 6743      75656E63 
 6743      7900
 6744 2d37 5401     		.word	0x154
 6745 2d39 16       		.byte	0x16
 6746 2d3a 02030000 		.long	0x302
 6747 2d3e 29010000 		.secrel32	.LLST115
 6748 2d42 23010000 		.secrel32	.LVUS115
 6749 2d46 10       		.uleb128 0x10
 6750 2d47 66000000 		.secrel32	.LASF11
 6751 2d4b 5401     		.word	0x154
 6752 2d4d 27       		.byte	0x27
 6753 2d4e 02030000 		.long	0x302
 6754 2d52 48010000 		.secrel32	.LLST116
 6755 2d56 42010000 		.secrel32	.LVUS116
 6756 2d5a 11       		.uleb128 0x11
 6757 2d5b 64697669 		.ascii "divisor\0"
 6757      736F7200 
 6758 2d63 5501     		.word	0x155
 6759 2d65 0B       		.byte	0xb
 6760 2d66 02030000 		.long	0x302
 6761 2d6a 67010000 		.secrel32	.LLST117
 6762 2d6e 61010000 		.secrel32	.LVUS117
 6763 2d72 11       		.uleb128 0x11
 6764 2d73 74656D70 		.ascii "temp\0"
 6764      00
 6765 2d78 5D01     		.word	0x15d
 6766 2d7a 0B       		.byte	0xb
 6767 2d7b D9020000 		.long	0x2d9
 6768 2d7f 92010000 		.secrel32	.LLST118
 6769 2d83 8E010000 		.secrel32	.LVUS118
 6770 2d87 1A       		.uleb128 0x1a
 6771 2d88 96430000 		.long	0x4396
 6772 2d8c B40B0000 		.quad	.LBI65
 6772      00000000 
 6773 2d94 01       		.byte	.LVU504
 6774 2d95 B40B0000 		.quad	.LBB65
 6774      00000000 
 6775 2d9d 07000000 		.quad	.LBE65-.LBB65
 6775      00000000 
 6776 2da5 5801     		.word	0x158
 6777 2da7 05       		.byte	0x5
 6778 2da8 C72D0000 		.long	0x2dc7
 6779 2dac 15       		.uleb128 0x15
 6780 2dad A4430000 		.long	0x43a4
 6781 2db1 A3010000 		.secrel32	.LLST119
 6782 2db5 A1010000 		.secrel32	.LVUS119
 6783 2db9 15       		.uleb128 0x15
 6784 2dba B0430000 		.long	0x43b0
 6785 2dbe AF010000 		.secrel32	.LLST120
 6786 2dc2 AD010000 		.secrel32	.LVUS120
 6787 2dc6 00       		.byte	0
 6788 2dc7 1A       		.uleb128 0x1a
 6789 2dc8 96430000 		.long	0x4396
 6790 2dcc BB0B0000 		.quad	.LBI67
 6790      00000000 
 6791 2dd4 02       		.byte	.LVU509
 6792 2dd5 BB0B0000 		.quad	.LBB67
 6792      00000000 
 6793 2ddd 04000000 		.quad	.LBE67-.LBB67
 6793      00000000 
 6794 2de5 5901     		.word	0x159
 6795 2de7 05       		.byte	0x5
 6796 2de8 072E0000 		.long	0x2e07
 6797 2dec 15       		.uleb128 0x15
 6798 2ded A4430000 		.long	0x43a4
 6799 2df1 BB010000 		.secrel32	.LLST121
 6800 2df5 B9010000 		.secrel32	.LVUS121
 6801 2df9 15       		.uleb128 0x15
 6802 2dfa B0430000 		.long	0x43b0
 6803 2dfe C7010000 		.secrel32	.LLST122
 6804 2e02 C5010000 		.secrel32	.LVUS122
 6805 2e06 00       		.byte	0
 6806 2e07 1A       		.uleb128 0x1a
 6807 2e08 96430000 		.long	0x4396
 6808 2e0c C20B0000 		.quad	.LBI69
 6808      00000000 
 6809 2e14 00       		.byte	.LVU513
 6810 2e15 C20B0000 		.quad	.LBB69
 6810      00000000 
 6811 2e1d 02000000 		.quad	.LBE69-.LBB69
 6811      00000000 
 6812 2e25 5A01     		.word	0x15a
 6813 2e27 05       		.byte	0x5
 6814 2e28 472E0000 		.long	0x2e47
 6815 2e2c 15       		.uleb128 0x15
 6816 2e2d A4430000 		.long	0x43a4
 6817 2e31 D1010000 		.secrel32	.LLST123
 6818 2e35 CF010000 		.secrel32	.LVUS123
 6819 2e39 15       		.uleb128 0x15
 6820 2e3a B0430000 		.long	0x43b0
 6821 2e3e DD010000 		.secrel32	.LLST124
 6822 2e42 DB010000 		.secrel32	.LVUS124
 6823 2e46 00       		.byte	0
 6824 2e47 1A       		.uleb128 0x1a
 6825 2e48 6C430000 		.long	0x436c
 6826 2e4c C40B0000 		.quad	.LBI71
 6826      00000000 
 6827 2e54 02       		.byte	.LVU517
 6828 2e55 C40B0000 		.quad	.LBB71
 6828      00000000 
 6829 2e5d 02000000 		.quad	.LBE71-.LBB71
 6829      00000000 
 6830 2e65 5D01     		.word	0x15d
 6831 2e67 12       		.byte	0x12
 6832 2e68 872E0000 		.long	0x2e87
 6833 2e6c 15       		.uleb128 0x15
 6834 2e6d 7D430000 		.long	0x437d
 6835 2e71 EB010000 		.secrel32	.LLST125
 6836 2e75 E9010000 		.secrel32	.LVUS125
 6837 2e79 32       		.uleb128 0x32
 6838 2e7a 89430000 		.long	0x4389
 6839 2e7e F7010000 		.secrel32	.LLST126
 6840 2e82 F5010000 		.secrel32	.LVUS126
 6841 2e86 00       		.byte	0
 6842 2e87 1A       		.uleb128 0x1a
 6843 2e88 96430000 		.long	0x4396
 6844 2e8c C90B0000 		.quad	.LBI73
 6844      00000000 
 6845 2e94 00       		.byte	.LVU523
 6846 2e95 C90B0000 		.quad	.LBB73
 6846      00000000 
 6847 2e9d 02000000 		.quad	.LBE73-.LBB73
 6847      00000000 
 6848 2ea5 5E01     		.word	0x15e
 6849 2ea7 05       		.byte	0x5
 6850 2ea8 C72E0000 		.long	0x2ec7
 6851 2eac 15       		.uleb128 0x15
 6852 2ead A4430000 		.long	0x43a4
 6853 2eb1 01020000 		.secrel32	.LLST127
 6854 2eb5 FF010000 		.secrel32	.LVUS127
 6855 2eb9 15       		.uleb128 0x15
 6856 2eba B0430000 		.long	0x43b0
 6857 2ebe 0D020000 		.secrel32	.LLST128
 6858 2ec2 0B020000 		.secrel32	.LVUS128
 6859 2ec6 00       		.byte	0
 6860 2ec7 1A       		.uleb128 0x1a
 6861 2ec8 6C430000 		.long	0x436c
 6862 2ecc D00B0000 		.quad	.LBI75
 6862      00000000 
 6863 2ed4 01       		.byte	.LVU528
 6864 2ed5 D00B0000 		.quad	.LBB75
 6864      00000000 
 6865 2edd 02000000 		.quad	.LBE75-.LBB75
 6865      00000000 
 6866 2ee5 6401     		.word	0x164
 6867 2ee7 0C       		.byte	0xc
 6868 2ee8 072F0000 		.long	0x2f07
 6869 2eec 15       		.uleb128 0x15
 6870 2eed 7D430000 		.long	0x437d
 6871 2ef1 17020000 		.secrel32	.LLST129
 6872 2ef5 15020000 		.secrel32	.LVUS129
 6873 2ef9 32       		.uleb128 0x32
 6874 2efa 89430000 		.long	0x4389
 6875 2efe 23020000 		.secrel32	.LLST130
 6876 2f02 21020000 		.secrel32	.LVUS130
 6877 2f06 00       		.byte	0
 6878 2f07 1A       		.uleb128 0x1a
 6879 2f08 96430000 		.long	0x4396
 6880 2f0c D20B0000 		.quad	.LBI77
 6880      00000000 
 6881 2f14 03       		.byte	.LVU534
 6882 2f15 D20B0000 		.quad	.LBB77
 6882      00000000 
 6883 2f1d 05000000 		.quad	.LBE77-.LBB77
 6883      00000000 
 6884 2f25 6501     		.word	0x165
 6885 2f27 05       		.byte	0x5
 6886 2f28 472F0000 		.long	0x2f47
 6887 2f2c 15       		.uleb128 0x15
 6888 2f2d A4430000 		.long	0x43a4
 6889 2f31 2D020000 		.secrel32	.LLST131
 6890 2f35 2B020000 		.secrel32	.LVUS131
 6891 2f39 15       		.uleb128 0x15
 6892 2f3a B0430000 		.long	0x43b0
 6893 2f3e 39020000 		.secrel32	.LLST132
 6894 2f42 37020000 		.secrel32	.LVUS132
 6895 2f46 00       		.byte	0
 6896 2f47 0F       		.uleb128 0xf
 6897 2f48 D00B0000 		.quad	.LVL292
 6897      00000000 
 6898 2f50 78420000 		.long	0x4278
 6899 2f54 02       		.uleb128 0x2
 6900 2f55 01       		.uleb128 0x1
 6901 2f56 52       		.byte	0x52
 6902 2f57 03       		.uleb128 0x3
 6903 2f58 A3       		.byte	0xa3
 6904 2f59 01       		.uleb128 0x1
 6905 2f5a 51       		.byte	0x51
 6906 2f5b 00       		.byte	0
 6907 2f5c 00       		.byte	0
 6908 2f5d 2A       		.uleb128 0x2a
 6909 2f5e 72616E64 		.ascii "random_patterns_symbols\0"
 6909      6F6D5F70 
 6909      61747465 
 6909      726E735F 
 6909      73796D62 
 6910 2f76 4001     		.word	0x140
 6911 2f78 9E0A0000 		.quad	.LFB20
 6911      00000000 
 6912 2f80 FB000000 		.quad	.LFE20-.LFB20
 6912      00000000 
 6913 2f88 01       		.uleb128 0x1
 6914 2f89 9C       		.byte	0x9c
 6915 2f8a 39310000 		.long	0x3139
 6916 2f8e 10       		.uleb128 0x10
 6917 2f8f 4D000000 		.secrel32	.LASF5
 6918 2f93 4001     		.word	0x140
 6919 2f95 30       		.byte	0x30
 6920 2f96 3F260000 		.long	0x263f
 6921 2f9a 4C020000 		.secrel32	.LLST105
 6922 2f9e 46020000 		.secrel32	.LVUS105
 6923 2fa2 10       		.uleb128 0x10
 6924 2fa3 59000000 		.secrel32	.LASF6
 6925 2fa7 4001     		.word	0x140
 6926 2fa9 43       		.byte	0x43
 6927 2faa 02030000 		.long	0x302
 6928 2fae 6B020000 		.secrel32	.LLST106
 6929 2fb2 65020000 		.secrel32	.LVUS106
 6930 2fb6 10       		.uleb128 0x10
 6931 2fb7 61000000 		.secrel32	.LASF7
 6932 2fbb 4001     		.word	0x140
 6933 2fbd 52       		.byte	0x52
 6934 2fbe 02030000 		.long	0x302
 6935 2fc2 8A020000 		.secrel32	.LLST107
 6936 2fc6 84020000 		.secrel32	.LVUS107
 6937 2fca 3C       		.uleb128 0x3c
 6938 2fcb 73796D62 		.ascii "symbols\0"
 6938      6F6C7300 
 6939 2fd3 01       		.byte	0x1
 6940 2fd4 4101     		.word	0x141
 6941 2fd6 0C       		.byte	0xc
 6942 2fd7 39310000 		.long	0x3139
 6943 2fdb 03       		.uleb128 0x3
 6944 2fdc 91       		.byte	0x91
 6945 2fdd A07F     		.sleb128 -96
 6946 2fdf 3D       		.uleb128 0x3d
 6947 2fe0 6E756D5F 		.ascii "num_symbols\0"
 6947      73796D62 
 6947      6F6C7300 
 6948 2fec 01       		.byte	0x1
 6949 2fed 4201     		.word	0x142
 6950 2fef 0B       		.byte	0xb
 6951 2ff0 02030000 		.long	0x302
 6952 2ff4 08       		.byte	0x8
 6953 2ff5 12       		.uleb128 0x12
 6954 2ff6 EF0A0000 		.quad	.LBB61
 6954      00000000 
 6955 2ffe 99000000 		.quad	.LBE61-.LBB61
 6955      00000000 
 6956 3006 11       		.uleb128 0x11
 6957 3007 6900     		.ascii "i\0"
 6958 3009 4401     		.word	0x144
 6959 300b 10       		.byte	0x10
 6960 300c 02030000 		.long	0x302
 6961 3010 A7020000 		.secrel32	.LLST108
 6962 3014 A3020000 		.secrel32	.LVUS108
 6963 3018 18       		.uleb128 0x18
 6964 3019 A6000000 		.secrel32	.LLRL109
 6965 301d 20310000 		.long	0x3120
 6966 3021 11       		.uleb128 0x11
 6967 3022 6A00     		.ascii "j\0"
 6968 3024 4501     		.word	0x145
 6969 3026 14       		.byte	0x14
 6970 3027 02030000 		.long	0x302
 6971 302b BB020000 		.secrel32	.LLST110
 6972 302f B9020000 		.secrel32	.LVUS110
 6973 3033 12       		.uleb128 0x12
 6974 3034 FA0A0000 		.quad	.LBB63
 6974      00000000 
 6975 303c 65000000 		.quad	.LBE63-.LBB63
 6975      00000000 
 6976 3044 11       		.uleb128 0x11
 6977 3045 636F6C00 		.ascii "col\0"
 6978 3049 4601     		.word	0x146
 6979 304b 13       		.byte	0x13
 6980 304c 02030000 		.long	0x302
 6981 3050 C7020000 		.secrel32	.LLST111
 6982 3054 C3020000 		.secrel32	.LVUS111
 6983 3058 11       		.uleb128 0x11
 6984 3059 726F7700 		.ascii "row\0"
 6985 305d 4701     		.word	0x147
 6986 305f 13       		.byte	0x13
 6987 3060 02030000 		.long	0x302
 6988 3064 DA020000 		.secrel32	.LLST112
 6989 3068 D6020000 		.secrel32	.LVUS112
 6990 306c 17       		.uleb128 0x17
 6991 306d 2A000000 		.secrel32	.LASF10
 6992 3071 4801     		.word	0x148
 6993 3073 13       		.byte	0x13
 6994 3074 02030000 		.long	0x302
 6995 3078 ED020000 		.secrel32	.LLST113
 6996 307c E9020000 		.secrel32	.LVUS113
 6997 3080 11       		.uleb128 0x11
 6998 3081 73796D62 		.ascii "symbol\0"
 6998      6F6C00
 6999 3088 4901     		.word	0x149
 7000 308a 14       		.byte	0x14
 7001 308b 7C020000 		.long	0x27c
 7002 308f FE020000 		.secrel32	.LLST114
 7003 3093 FC020000 		.secrel32	.LVUS114
 7004 3097 0D       		.uleb128 0xd
 7005 3098 FF0A0000 		.quad	.LVL263
 7005      00000000 
 7006 30a0 B1420000 		.long	0x42b1
 7007 30a4 0D       		.uleb128 0xd
 7008 30a5 110B0000 		.quad	.LVL265
 7008      00000000 
 7009 30ad B1420000 		.long	0x42b1
 7010 30b1 0D       		.uleb128 0xd
 7011 30b2 230B0000 		.quad	.LVL267
 7011      00000000 
 7012 30ba E0410000 		.long	0x41e0
 7013 30be 0D       		.uleb128 0xd
 7014 30bf 2B0B0000 		.quad	.LVL269
 7014      00000000 
 7015 30c7 B1420000 		.long	0x42b1
 7016 30cb 0B       		.uleb128 0xb
 7017 30cc 400B0000 		.quad	.LVL271
 7017      00000000 
 7018 30d4 DF300000 		.long	0x30df
 7019 30d8 02       		.uleb128 0x2
 7020 30d9 01       		.uleb128 0x1
 7021 30da 51       		.byte	0x51
 7022 30db 02       		.uleb128 0x2
 7023 30dc 74       		.byte	0x74
 7024 30dd 00       		.sleb128 0
 7025 30de 00       		.byte	0
 7026 30df 0B       		.uleb128 0xb
 7027 30e0 500B0000 		.quad	.LVL272
 7027      00000000 
 7028 30e8 F9300000 		.long	0x30f9
 7029 30ec 02       		.uleb128 0x2
 7030 30ed 01       		.uleb128 0x1
 7031 30ee 51       		.byte	0x51
 7032 30ef 02       		.uleb128 0x2
 7033 30f0 7E       		.byte	0x7e
 7034 30f1 00       		.sleb128 0
 7035 30f2 02       		.uleb128 0x2
 7036 30f3 01       		.uleb128 0x1
 7037 30f4 58       		.byte	0x58
 7038 30f5 02       		.uleb128 0x2
 7039 30f6 7F       		.byte	0x7f
 7040 30f7 00       		.sleb128 0
 7041 30f8 00       		.byte	0
 7042 30f9 0F       		.uleb128 0xf
 7043 30fa 5F0B0000 		.quad	.LVL273
 7043      00000000 
 7044 3102 93260000 		.long	0x2693
 7045 3106 02       		.uleb128 0x2
 7046 3107 01       		.uleb128 0x1
 7047 3108 52       		.byte	0x52
 7048 3109 09       		.uleb128 0x9
 7049 310a 03       		.byte	0x3
 7050 310b 3A000000 		.quad	.LC7
 7050      00000000 
 7051 3113 02       		.uleb128 0x2
 7052 3114 01       		.uleb128 0x1
 7053 3115 51       		.byte	0x51
 7054 3116 06       		.uleb128 0x6
 7055 3117 73       		.byte	0x73
 7056 3118 00       		.sleb128 0
 7057 3119 0A       		.byte	0xa
 7058 311a FFFF     		.word	0xffff
 7059 311c 1A       		.byte	0x1a
 7060 311d 00       		.byte	0
 7061 311e 00       		.byte	0
 7062 311f 00       		.byte	0
 7063 3120 0F       		.uleb128 0xf
 7064 3121 730B0000 		.quad	.LVL275
 7064      00000000 
 7065 3129 78420000 		.long	0x4278
 7066 312d 02       		.uleb128 0x2
 7067 312e 01       		.uleb128 0x1
 7068 312f 52       		.byte	0x52
 7069 3130 05       		.uleb128 0x5
 7070 3131 0C       		.byte	0xc
 7071 3132 20A10700 		.long	0x7a120
 7072 3136 00       		.byte	0
 7073 3137 00       		.byte	0
 7074 3138 00       		.byte	0
 7075 3139 1D       		.uleb128 0x1d
 7076 313a 7C020000 		.long	0x27c
 7077 313e 49310000 		.long	0x3149
 7078 3142 1E       		.uleb128 0x1e
 7079 3143 3C010000 		.long	0x13c
 7080 3147 07       		.byte	0x7
 7081 3148 00       		.byte	0
 7082 3149 23       		.uleb128 0x23
 7083 314a 666C6173 		.ascii "flashing_borders\0"
 7083      68696E67 
 7083      5F626F72 
 7083      64657273 
 7083      00
 7084 315b 2A01     		.word	0x12a
 7085 315d A8090000 		.quad	.LFB19
 7085      00000000 
 7086 3165 F6000000 		.quad	.LFE19-.LFB19
 7086      00000000 
 7087 316d 01       		.uleb128 0x1
 7088 316e 9C       		.byte	0x9c
 7089 316f 1C330000 		.long	0x331c
 7090 3173 10       		.uleb128 0x10
 7091 3174 4D000000 		.secrel32	.LASF5
 7092 3178 2A01     		.word	0x12a
 7093 317a 29       		.byte	0x29
 7094 317b 3F260000 		.long	0x263f
 7095 317f 0C030000 		.secrel32	.LLST96
 7096 3183 06030000 		.secrel32	.LVUS96
 7097 3187 10       		.uleb128 0x10
 7098 3188 59000000 		.secrel32	.LASF6
 7099 318c 2A01     		.word	0x12a
 7100 318e 3C       		.byte	0x3c
 7101 318f 02030000 		.long	0x302
 7102 3193 2B030000 		.secrel32	.LLST97
 7103 3197 25030000 		.secrel32	.LVUS97
 7104 319b 10       		.uleb128 0x10
 7105 319c 61000000 		.secrel32	.LASF7
 7106 31a0 2A01     		.word	0x12a
 7107 31a2 4B       		.byte	0x4b
 7108 31a3 02030000 		.long	0x302
 7109 31a7 4A030000 		.secrel32	.LLST98
 7110 31ab 44030000 		.secrel32	.LVUS98
 7111 31af 12       		.uleb128 0x12
 7112 31b0 BD090000 		.quad	.LBB55
 7112      00000000 
 7113 31b8 D4000000 		.quad	.LBE55-.LBB55
 7113      00000000 
 7114 31c0 11       		.uleb128 0x11
 7115 31c1 6900     		.ascii "i\0"
 7116 31c3 2B01     		.word	0x12b
 7117 31c5 10       		.byte	0x10
 7118 31c6 02030000 		.long	0x302
 7119 31ca 67030000 		.secrel32	.LLST99
 7120 31ce 63030000 		.secrel32	.LVUS99
 7121 31d2 19       		.uleb128 0x19
 7122 31d3 90000000 		.secrel32	.LLRL100
 7123 31d7 17       		.uleb128 0x17
 7124 31d8 2A000000 		.secrel32	.LASF10
 7125 31dc 2C01     		.word	0x12c
 7126 31de 0F       		.byte	0xf
 7127 31df 02030000 		.long	0x302
 7128 31e3 7B030000 		.secrel32	.LLST101
 7129 31e7 77030000 		.secrel32	.LVUS101
 7130 31eb 18       		.uleb128 0x18
 7131 31ec 9B000000 		.secrel32	.LLRL102
 7132 31f0 68320000 		.long	0x3268
 7133 31f4 11       		.uleb128 0x11
 7134 31f5 636F6C00 		.ascii "col\0"
 7135 31f9 2E01     		.word	0x12e
 7136 31fb 14       		.byte	0x14
 7137 31fc 02030000 		.long	0x302
 7138 3200 8E030000 		.secrel32	.LLST103
 7139 3204 8A030000 		.secrel32	.LVUS103
 7140 3208 0B       		.uleb128 0xb
 7141 3209 DB090000 		.quad	.LVL236
 7141      00000000 
 7142 3211 21320000 		.long	0x3221
 7143 3215 02       		.uleb128 0x2
 7144 3216 01       		.uleb128 0x1
 7145 3217 51       		.byte	0x51
 7146 3218 02       		.uleb128 0x2
 7147 3219 73       		.byte	0x73
 7148 321a 00       		.sleb128 0
 7149 321b 02       		.uleb128 0x2
 7150 321c 01       		.uleb128 0x1
 7151 321d 58       		.byte	0x58
 7152 321e 01       		.uleb128 0x1
 7153 321f 30       		.byte	0x30
 7154 3220 00       		.byte	0
 7155 3221 08       		.uleb128 0x8
 7156 3222 EA090000 		.quad	.LVL237
 7156      00000000 
 7157 322a 93260000 		.long	0x2693
 7158 322e 39320000 		.long	0x3239
 7159 3232 02       		.uleb128 0x2
 7160 3233 01       		.uleb128 0x1
 7161 3234 52       		.byte	0x52
 7162 3235 02       		.uleb128 0x2
 7163 3236 75       		.byte	0x75
 7164 3237 00       		.sleb128 0
 7165 3238 00       		.byte	0
 7166 3239 0B       		.uleb128 0xb
 7167 323a FB090000 		.quad	.LVL238
 7167      00000000 
 7168 3242 53320000 		.long	0x3253
 7169 3246 02       		.uleb128 0x2
 7170 3247 01       		.uleb128 0x1
 7171 3248 51       		.byte	0x51
 7172 3249 02       		.uleb128 0x2
 7173 324a 73       		.byte	0x73
 7174 324b 00       		.sleb128 0
 7175 324c 02       		.uleb128 0x2
 7176 324d 01       		.uleb128 0x1
 7177 324e 58       		.byte	0x58
 7178 324f 02       		.uleb128 0x2
 7179 3250 76       		.byte	0x76
 7180 3251 7F       		.sleb128 -1
 7181 3252 00       		.byte	0
 7182 3253 0F       		.uleb128 0xf
 7183 3254 030A0000 		.quad	.LVL239
 7183      00000000 
 7184 325c 93260000 		.long	0x2693
 7185 3260 02       		.uleb128 0x2
 7186 3261 01       		.uleb128 0x1
 7187 3262 52       		.byte	0x52
 7188 3263 02       		.uleb128 0x2
 7189 3264 75       		.byte	0x75
 7190 3265 00       		.sleb128 0
 7191 3266 00       		.byte	0
 7192 3267 00       		.byte	0
 7193 3268 33       		.uleb128 0x33
 7194 3269 0C0A0000 		.quad	.LBB58
 7194      00000000 
 7195 3271 4B000000 		.quad	.LBE58-.LBB58
 7195      00000000 
 7196 3279 F1320000 		.long	0x32f1
 7197 327d 11       		.uleb128 0x11
 7198 327e 726F7700 		.ascii "row\0"
 7199 3282 3401     		.word	0x134
 7200 3284 14       		.byte	0x14
 7201 3285 02030000 		.long	0x302
 7202 3289 A0030000 		.secrel32	.LLST104
 7203 328d 9E030000 		.secrel32	.LVUS104
 7204 3291 0B       		.uleb128 0xb
 7205 3292 250A0000 		.quad	.LVL243
 7205      00000000 
 7206 329a AA320000 		.long	0x32aa
 7207 329e 02       		.uleb128 0x2
 7208 329f 01       		.uleb128 0x1
 7209 32a0 51       		.byte	0x51
 7210 32a1 01       		.uleb128 0x1
 7211 32a2 30       		.byte	0x30
 7212 32a3 02       		.uleb128 0x2
 7213 32a4 01       		.uleb128 0x1
 7214 32a5 58       		.byte	0x58
 7215 32a6 02       		.uleb128 0x2
 7216 32a7 73       		.byte	0x73
 7217 32a8 00       		.sleb128 0
 7218 32a9 00       		.byte	0
 7219 32aa 08       		.uleb128 0x8
 7220 32ab 340A0000 		.quad	.LVL244
 7220      00000000 
 7221 32b3 93260000 		.long	0x2693
 7222 32b7 C2320000 		.long	0x32c2
 7223 32bb 02       		.uleb128 0x2
 7224 32bc 01       		.uleb128 0x1
 7225 32bd 52       		.byte	0x52
 7226 32be 02       		.uleb128 0x2
 7227 32bf 75       		.byte	0x75
 7228 32c0 00       		.sleb128 0
 7229 32c1 00       		.byte	0
 7230 32c2 0B       		.uleb128 0xb
 7231 32c3 460A0000 		.quad	.LVL245
 7231      00000000 
 7232 32cb DC320000 		.long	0x32dc
 7233 32cf 02       		.uleb128 0x2
 7234 32d0 01       		.uleb128 0x1
 7235 32d1 51       		.byte	0x51
 7236 32d2 02       		.uleb128 0x2
 7237 32d3 7C       		.byte	0x7c
 7238 32d4 7F       		.sleb128 -1
 7239 32d5 02       		.uleb128 0x2
 7240 32d6 01       		.uleb128 0x1
 7241 32d7 58       		.byte	0x58
 7242 32d8 02       		.uleb128 0x2
 7243 32d9 73       		.byte	0x73
 7244 32da 00       		.sleb128 0
 7245 32db 00       		.byte	0
 7246 32dc 0F       		.uleb128 0xf
 7247 32dd 4E0A0000 		.quad	.LVL246
 7247      00000000 
 7248 32e5 93260000 		.long	0x2693
 7249 32e9 02       		.uleb128 0x2
 7250 32ea 01       		.uleb128 0x1
 7251 32eb 52       		.byte	0x52
 7252 32ec 02       		.uleb128 0x2
 7253 32ed 75       		.byte	0x75
 7254 32ee 00       		.sleb128 0
 7255 32ef 00       		.byte	0
 7256 32f0 00       		.byte	0
 7257 32f1 08       		.uleb128 0x8
 7258 32f2 610A0000 		.quad	.LVL248
 7258      00000000 
 7259 32fa 78420000 		.long	0x4278
 7260 32fe 0C330000 		.long	0x330c
 7261 3302 02       		.uleb128 0x2
 7262 3303 01       		.uleb128 0x1
 7263 3304 52       		.byte	0x52
 7264 3305 05       		.uleb128 0x5
 7265 3306 0C       		.byte	0xc
 7266 3307 20A10700 		.long	0x7a120
 7267 330b 00       		.byte	0
 7268 330c 0D       		.uleb128 0xd
 7269 330d 7A0A0000 		.quad	.LVL251
 7269      00000000 
 7270 3315 E0410000 		.long	0x41e0
 7271 3319 00       		.byte	0
 7272 331a 00       		.byte	0
 7273 331b 00       		.byte	0
 7274 331c 23       		.uleb128 0x23
 7275 331d 666C6963 		.ascii "flickering_text\0"
 7275      6B657269 
 7275      6E675F74 
 7275      65787400 
 7276 332d 1D01     		.word	0x11d
 7277 332f 2E090000 		.quad	.LFB18
 7277      00000000 
 7278 3337 7A000000 		.quad	.LFE18-.LFB18
 7278      00000000 
 7279 333f 01       		.uleb128 0x1
 7280 3340 9C       		.byte	0x9c
 7281 3341 51340000 		.long	0x3451
 7282 3345 10       		.uleb128 0x10
 7283 3346 4D000000 		.secrel32	.LASF5
 7284 334a 1D01     		.word	0x11d
 7285 334c 28       		.byte	0x28
 7286 334d 3F260000 		.long	0x263f
 7287 3351 AE030000 		.secrel32	.LLST90
 7288 3355 A8030000 		.secrel32	.LVUS90
 7289 3359 10       		.uleb128 0x10
 7290 335a 00000000 		.secrel32	.LASF12
 7291 335e 1D01     		.word	0x11d
 7292 3360 3D       		.byte	0x3d
 7293 3361 15080000 		.long	0x815
 7294 3365 CD030000 		.secrel32	.LLST91
 7295 3369 C7030000 		.secrel32	.LVUS91
 7296 336d 10       		.uleb128 0x10
 7297 336e 12000000 		.secrel32	.LASF13
 7298 3372 1D01     		.word	0x11d
 7299 3374 4C       		.byte	0x4c
 7300 3375 02030000 		.long	0x302
 7301 3379 EC030000 		.secrel32	.LLST92
 7302 337d E6030000 		.secrel32	.LVUS92
 7303 3381 10       		.uleb128 0x10
 7304 3382 1E000000 		.secrel32	.LASF14
 7305 3386 1D01     		.word	0x11d
 7306 3388 5F       		.byte	0x5f
 7307 3389 02030000 		.long	0x302
 7308 338d 0B040000 		.secrel32	.LLST93
 7309 3391 05040000 		.secrel32	.LVUS93
 7310 3395 12       		.uleb128 0x12
 7311 3396 44090000 		.quad	.LBB53
 7311      00000000 
 7312 339e 59000000 		.quad	.LBE53-.LBB53
 7312      00000000 
 7313 33a6 11       		.uleb128 0x11
 7314 33a7 6900     		.ascii "i\0"
 7315 33a9 1E01     		.word	0x11e
 7316 33ab 10       		.byte	0x10
 7317 33ac 02030000 		.long	0x302
 7318 33b0 28040000 		.secrel32	.LLST94
 7319 33b4 24040000 		.secrel32	.LVUS94
 7320 33b8 12       		.uleb128 0x12
 7321 33b9 4B090000 		.quad	.LBB54
 7321      00000000 
 7322 33c1 48000000 		.quad	.LBE54-.LBB54
 7322      00000000 
 7323 33c9 17       		.uleb128 0x17
 7324 33ca 2A000000 		.secrel32	.LASF10
 7325 33ce 1F01     		.word	0x11f
 7326 33d0 0F       		.byte	0xf
 7327 33d1 02030000 		.long	0x302
 7328 33d5 3C040000 		.secrel32	.LLST95
 7329 33d9 38040000 		.secrel32	.LVUS95
 7330 33dd 0D       		.uleb128 0xd
 7331 33de 50090000 		.quad	.LVL218
 7331      00000000 
 7332 33e6 E0410000 		.long	0x41e0
 7333 33ea 0B       		.uleb128 0xb
 7334 33eb 6D090000 		.quad	.LVL222
 7334      00000000 
 7335 33f3 04340000 		.long	0x3404
 7336 33f7 02       		.uleb128 0x2
 7337 33f8 01       		.uleb128 0x1
 7338 33f9 51       		.byte	0x51
 7339 33fa 02       		.uleb128 0x2
 7340 33fb 76       		.byte	0x76
 7341 33fc 00       		.sleb128 0
 7342 33fd 02       		.uleb128 0x2
 7343 33fe 01       		.uleb128 0x1
 7344 33ff 58       		.byte	0x58
 7345 3400 02       		.uleb128 0x2
 7346 3401 75       		.byte	0x75
 7347 3402 00       		.sleb128 0
 7348 3403 00       		.byte	0
 7349 3404 08       		.uleb128 0x8
 7350 3405 75090000 		.quad	.LVL223
 7350      00000000 
 7351 340d 93260000 		.long	0x2693
 7352 3411 1C340000 		.long	0x341c
 7353 3415 02       		.uleb128 0x2
 7354 3416 01       		.uleb128 0x1
 7355 3417 52       		.byte	0x52
 7356 3418 02       		.uleb128 0x2
 7357 3419 7C       		.byte	0x7c
 7358 341a 00       		.sleb128 0
 7359 341b 00       		.byte	0
 7360 341c 08       		.uleb128 0x8
 7361 341d 7F090000 		.quad	.LVL224
 7361      00000000 
 7362 3425 78420000 		.long	0x4278
 7363 3429 37340000 		.long	0x3437
 7364 342d 02       		.uleb128 0x2
 7365 342e 01       		.uleb128 0x1
 7366 342f 52       		.byte	0x52
 7367 3430 05       		.uleb128 0x5
 7368 3431 0C       		.byte	0xc
 7369 3432 40420F00 		.long	0xf4240
 7370 3436 00       		.byte	0
 7371 3437 0F       		.uleb128 0xf
 7372 3438 93090000 		.quad	.LVL226
 7372      00000000 
 7373 3440 78420000 		.long	0x4278
 7374 3444 02       		.uleb128 0x2
 7375 3445 01       		.uleb128 0x1
 7376 3446 52       		.byte	0x52
 7377 3447 05       		.uleb128 0x5
 7378 3448 0C       		.byte	0xc
 7379 3449 40420F00 		.long	0xf4240
 7380 344d 00       		.byte	0
 7381 344e 00       		.byte	0
 7382 344f 00       		.byte	0
 7383 3450 00       		.byte	0
 7384 3451 23       		.uleb128 0x23
 7385 3452 636F6C6F 		.ascii "color_shifting\0"
 7385      725F7368 
 7385      69667469 
 7385      6E6700
 7386 3461 1201     		.word	0x112
 7387 3463 D0080000 		.quad	.LFB17
 7387      00000000 
 7388 346b 5E000000 		.quad	.LFE17-.LFB17
 7388      00000000 
 7389 3473 01       		.uleb128 0x1
 7390 3474 9C       		.byte	0x9c
 7391 3475 33350000 		.long	0x3533
 7392 3479 10       		.uleb128 0x10
 7393 347a 4D000000 		.secrel32	.LASF5
 7394 347e 1201     		.word	0x112
 7395 3480 27       		.byte	0x27
 7396 3481 3F260000 		.long	0x263f
 7397 3485 51040000 		.secrel32	.LLST87
 7398 3489 4B040000 		.secrel32	.LVUS87
 7399 348d 12       		.uleb128 0x12
 7400 348e D9080000 		.quad	.LBB51
 7400      00000000 
 7401 3496 4E000000 		.quad	.LBE51-.LBB51
 7401      00000000 
 7402 349e 11       		.uleb128 0x11
 7403 349f 6900     		.ascii "i\0"
 7404 34a1 1301     		.word	0x113
 7405 34a3 10       		.byte	0x10
 7406 34a4 02030000 		.long	0x302
 7407 34a8 6E040000 		.secrel32	.LLST88
 7408 34ac 6A040000 		.secrel32	.LVUS88
 7409 34b0 12       		.uleb128 0x12
 7410 34b1 E0080000 		.quad	.LBB52
 7410      00000000 
 7411 34b9 3D000000 		.quad	.LBE52-.LBB52
 7411      00000000 
 7412 34c1 17       		.uleb128 0x17
 7413 34c2 2A000000 		.secrel32	.LASF10
 7414 34c6 1401     		.word	0x114
 7415 34c8 0F       		.byte	0xf
 7416 34c9 02030000 		.long	0x302
 7417 34cd 82040000 		.secrel32	.LLST89
 7418 34d1 7E040000 		.secrel32	.LVUS89
 7419 34d5 0D       		.uleb128 0xd
 7420 34d6 E5080000 		.quad	.LVL205
 7420      00000000 
 7421 34de E0410000 		.long	0x41e0
 7422 34e2 0B       		.uleb128 0xb
 7423 34e3 07090000 		.quad	.LVL209
 7423      00000000 
 7424 34eb FA340000 		.long	0x34fa
 7425 34ef 02       		.uleb128 0x2
 7426 34f0 01       		.uleb128 0x1
 7427 34f1 51       		.byte	0x51
 7428 34f2 01       		.uleb128 0x1
 7429 34f3 30       		.byte	0x30
 7430 34f4 02       		.uleb128 0x2
 7431 34f5 01       		.uleb128 0x1
 7432 34f6 58       		.byte	0x58
 7433 34f7 01       		.uleb128 0x1
 7434 34f8 30       		.byte	0x30
 7435 34f9 00       		.byte	0
 7436 34fa 08       		.uleb128 0x8
 7437 34fb 13090000 		.quad	.LVL210
 7437      00000000 
 7438 3503 93260000 		.long	0x2693
 7439 3507 19350000 		.long	0x3519
 7440 350b 02       		.uleb128 0x2
 7441 350c 01       		.uleb128 0x1
 7442 350d 52       		.byte	0x52
 7443 350e 09       		.uleb128 0x9
 7444 350f 03       		.byte	0x3
 7445 3510 50000000 		.quad	.LC10
 7445      00000000 
 7446 3518 00       		.byte	0
 7447 3519 0F       		.uleb128 0xf
 7448 351a 1D090000 		.quad	.LVL211
 7448      00000000 
 7449 3522 78420000 		.long	0x4278
 7450 3526 02       		.uleb128 0x2
 7451 3527 01       		.uleb128 0x1
 7452 3528 52       		.byte	0x52
 7453 3529 05       		.uleb128 0x5
 7454 352a 0C       		.byte	0xc
 7455 352b 80841E00 		.long	0x1e8480
 7456 352f 00       		.byte	0
 7457 3530 00       		.byte	0
 7458 3531 00       		.byte	0
 7459 3532 00       		.byte	0
 7460 3533 23       		.uleb128 0x23
 7461 3534 6D617472 		.ascii "matrix_text_fall\0"
 7461      69785F74 
 7461      6578745F 
 7461      66616C6C 
 7461      00
 7462 3545 0201     		.word	0x102
 7463 3547 11080000 		.quad	.LFB16
 7463      00000000 
 7464 354f BF000000 		.quad	.LFE16-.LFB16
 7464      00000000 
 7465 3557 01       		.uleb128 0x1
 7466 3558 9C       		.byte	0x9c
 7467 3559 B7360000 		.long	0x36b7
 7468 355d 10       		.uleb128 0x10
 7469 355e 4D000000 		.secrel32	.LASF5
 7470 3562 0201     		.word	0x102
 7471 3564 29       		.byte	0x29
 7472 3565 3F260000 		.long	0x263f
 7473 3569 97040000 		.secrel32	.LLST76
 7474 356d 91040000 		.secrel32	.LVUS76
 7475 3571 10       		.uleb128 0x10
 7476 3572 59000000 		.secrel32	.LASF6
 7477 3576 0201     		.word	0x102
 7478 3578 3C       		.byte	0x3c
 7479 3579 02030000 		.long	0x302
 7480 357d B6040000 		.secrel32	.LLST77
 7481 3581 B0040000 		.secrel32	.LVUS77
 7482 3585 10       		.uleb128 0x10
 7483 3586 61000000 		.secrel32	.LASF7
 7484 358a 0201     		.word	0x102
 7485 358c 4B       		.byte	0x4b
 7486 358d 02030000 		.long	0x302
 7487 3591 D5040000 		.secrel32	.LLST78
 7488 3595 CF040000 		.secrel32	.LVUS78
 7489 3599 12       		.uleb128 0x12
 7490 359a 28080000 		.quad	.LBB46
 7490      00000000 
 7491 35a2 99000000 		.quad	.LBE46-.LBB46
 7491      00000000 
 7492 35aa 11       		.uleb128 0x11
 7493 35ab 6900     		.ascii "i\0"
 7494 35ad 0301     		.word	0x103
 7495 35af 10       		.byte	0x10
 7496 35b0 02030000 		.long	0x302
 7497 35b4 F2040000 		.secrel32	.LLST79
 7498 35b8 EE040000 		.secrel32	.LVUS79
 7499 35bc 18       		.uleb128 0x18
 7500 35bd 7A000000 		.secrel32	.LLRL80
 7501 35c1 9E360000 		.long	0x369e
 7502 35c5 11       		.uleb128 0x11
 7503 35c6 6A00     		.ascii "j\0"
 7504 35c8 0401     		.word	0x104
 7505 35ca 14       		.byte	0x14
 7506 35cb 02030000 		.long	0x302
 7507 35cf 04050000 		.secrel32	.LLST81
 7508 35d3 02050000 		.secrel32	.LVUS81
 7509 35d7 19       		.uleb128 0x19
 7510 35d8 85000000 		.secrel32	.LLRL82
 7511 35dc 11       		.uleb128 0x11
 7512 35dd 726F7700 		.ascii "row\0"
 7513 35e1 0501     		.word	0x105
 7514 35e3 13       		.byte	0x13
 7515 35e4 02030000 		.long	0x302
 7516 35e8 12050000 		.secrel32	.LLST83
 7517 35ec 0C050000 		.secrel32	.LVUS83
 7518 35f0 11       		.uleb128 0x11
 7519 35f1 636F6C00 		.ascii "col\0"
 7520 35f5 0601     		.word	0x106
 7521 35f7 13       		.byte	0x13
 7522 35f8 02030000 		.long	0x302
 7523 35fc 2E050000 		.secrel32	.LLST84
 7524 3600 28050000 		.secrel32	.LVUS84
 7525 3604 17       		.uleb128 0x17
 7526 3605 2A000000 		.secrel32	.LASF10
 7527 3609 0701     		.word	0x107
 7528 360b 13       		.byte	0x13
 7529 360c 02030000 		.long	0x302
 7530 3610 48050000 		.secrel32	.LLST85
 7531 3614 44050000 		.secrel32	.LVUS85
 7532 3618 11       		.uleb128 0x11
 7533 3619 73796D62 		.ascii "symbol\0"
 7533      6F6C00
 7534 3620 0A01     		.word	0x10a
 7535 3622 14       		.byte	0x14
 7536 3623 7C020000 		.long	0x27c
 7537 3627 59050000 		.secrel32	.LLST86
 7538 362b 57050000 		.secrel32	.LVUS86
 7539 362f 08       		.uleb128 0x8
 7540 3630 47080000 		.quad	.LVL183
 7540      00000000 
 7541 3638 93260000 		.long	0x2693
 7542 363c 4E360000 		.long	0x364e
 7543 3640 02       		.uleb128 0x2
 7544 3641 01       		.uleb128 0x1
 7545 3642 52       		.byte	0x52
 7546 3643 09       		.uleb128 0x9
 7547 3644 03       		.byte	0x3
 7548 3645 3A000000 		.quad	.LC7
 7548      00000000 
 7549 364d 00       		.byte	0
 7550 364e 0D       		.uleb128 0xd
 7551 364f 55080000 		.quad	.LVL185
 7551      00000000 
 7552 3657 B1420000 		.long	0x42b1
 7553 365b 0D       		.uleb128 0xd
 7554 365c 67080000 		.quad	.LVL187
 7554      00000000 
 7555 3664 B1420000 		.long	0x42b1
 7556 3668 0D       		.uleb128 0xd
 7557 3669 79080000 		.quad	.LVL189
 7557      00000000 
 7558 3671 E0410000 		.long	0x41e0
 7559 3675 0B       		.uleb128 0xb
 7560 3676 96080000 		.quad	.LVL193
 7560      00000000 
 7561 367e 8F360000 		.long	0x368f
 7562 3682 02       		.uleb128 0x2
 7563 3683 01       		.uleb128 0x1
 7564 3684 51       		.byte	0x51
 7565 3685 02       		.uleb128 0x2
 7566 3686 7E       		.byte	0x7e
 7567 3687 00       		.sleb128 0
 7568 3688 02       		.uleb128 0x2
 7569 3689 01       		.uleb128 0x1
 7570 368a 58       		.byte	0x58
 7571 368b 02       		.uleb128 0x2
 7572 368c 7C       		.byte	0x7c
 7573 368d 00       		.sleb128 0
 7574 368e 00       		.byte	0
 7575 368f 0D       		.uleb128 0xd
 7576 3690 9B080000 		.quad	.LVL194
 7576      00000000 
 7577 3698 B1420000 		.long	0x42b1
 7578 369c 00       		.byte	0
 7579 369d 00       		.byte	0
 7580 369e 0F       		.uleb128 0xf
 7581 369f B0080000 		.quad	.LVL196
 7581      00000000 
 7582 36a7 78420000 		.long	0x4278
 7583 36ab 02       		.uleb128 0x2
 7584 36ac 01       		.uleb128 0x1
 7585 36ad 52       		.byte	0x52
 7586 36ae 05       		.uleb128 0x5
 7587 36af 0C       		.byte	0xc
 7588 36b0 20A10700 		.long	0x7a120
 7589 36b4 00       		.byte	0
 7590 36b5 00       		.byte	0
 7591 36b6 00       		.byte	0
 7592 36b7 1C       		.uleb128 0x1c
 7593 36b8 67726964 		.ascii "grid_animation\0"
 7593      5F616E69 
 7593      6D617469 
 7593      6F6E00
 7594 36c7 F3       		.byte	0xf3
 7595 36c8 85070000 		.quad	.LFB15
 7595      00000000 
 7596 36d0 8C000000 		.quad	.LFE15-.LFB15
 7596      00000000 
 7597 36d8 01       		.uleb128 0x1
 7598 36d9 9C       		.byte	0x9c
 7599 36da EF370000 		.long	0x37ef
 7600 36de 0E       		.uleb128 0xe
 7601 36df 4D000000 		.secrel32	.LASF5
 7602 36e3 F3       		.byte	0xf3
 7603 36e4 27       		.byte	0x27
 7604 36e5 3F260000 		.long	0x263f
 7605 36e9 67050000 		.secrel32	.LLST67
 7606 36ed 61050000 		.secrel32	.LVUS67
 7607 36f1 0E       		.uleb128 0xe
 7608 36f2 59000000 		.secrel32	.LASF6
 7609 36f6 F3       		.byte	0xf3
 7610 36f7 3A       		.byte	0x3a
 7611 36f8 02030000 		.long	0x302
 7612 36fc 86050000 		.secrel32	.LLST68
 7613 3700 80050000 		.secrel32	.LVUS68
 7614 3704 0E       		.uleb128 0xe
 7615 3705 61000000 		.secrel32	.LASF7
 7616 3709 F3       		.byte	0xf3
 7617 370a 49       		.byte	0x49
 7618 370b 02030000 		.long	0x302
 7619 370f A5050000 		.secrel32	.LLST69
 7620 3713 9F050000 		.secrel32	.LVUS69
 7621 3717 12       		.uleb128 0x12
 7622 3718 9A070000 		.quad	.LBB40
 7622      00000000 
 7623 3720 6A000000 		.quad	.LBE40-.LBB40
 7623      00000000 
 7624 3728 0C       		.uleb128 0xc
 7625 3729 6900     		.ascii "i\0"
 7626 372b F4       		.byte	0xf4
 7627 372c 10       		.byte	0x10
 7628 372d 02030000 		.long	0x302
 7629 3731 C2050000 		.secrel32	.LLST70
 7630 3735 BE050000 		.secrel32	.LVUS70
 7631 3739 18       		.uleb128 0x18
 7632 373a 64000000 		.secrel32	.LLRL71
 7633 373e D6370000 		.long	0x37d6
 7634 3742 0C       		.uleb128 0xc
 7635 3743 726F7700 		.ascii "row\0"
 7636 3747 F5       		.byte	0xf5
 7637 3748 14       		.byte	0x14
 7638 3749 02030000 		.long	0x302
 7639 374d D4050000 		.secrel32	.LLST72
 7640 3751 D2050000 		.secrel32	.LVUS72
 7641 3755 19       		.uleb128 0x19
 7642 3756 6F000000 		.secrel32	.LLRL73
 7643 375a 0C       		.uleb128 0xc
 7644 375b 636F6C00 		.ascii "col\0"
 7645 375f F6       		.byte	0xf6
 7646 3760 18       		.byte	0x18
 7647 3761 02030000 		.long	0x302
 7648 3765 DE050000 		.secrel32	.LLST74
 7649 3769 DC050000 		.secrel32	.LVUS74
 7650 376d 12       		.uleb128 0x12
 7651 376e A2070000 		.quad	.LBB43
 7651      00000000 
 7652 3776 2E000000 		.quad	.LBE43-.LBB43
 7652      00000000 
 7653 377e 16       		.uleb128 0x16
 7654 377f 2A000000 		.secrel32	.LASF10
 7655 3783 F7       		.byte	0xf7
 7656 3784 17       		.byte	0x17
 7657 3785 02030000 		.long	0x302
 7658 3789 EA050000 		.secrel32	.LLST75
 7659 378d E6050000 		.secrel32	.LVUS75
 7660 3791 0D       		.uleb128 0xd
 7661 3792 A7070000 		.quad	.LVL165
 7661      00000000 
 7662 379a E0410000 		.long	0x41e0
 7663 379e 0B       		.uleb128 0xb
 7664 379f C4070000 		.quad	.LVL169
 7664      00000000 
 7665 37a7 B8370000 		.long	0x37b8
 7666 37ab 02       		.uleb128 0x2
 7667 37ac 01       		.uleb128 0x1
 7668 37ad 51       		.byte	0x51
 7669 37ae 02       		.uleb128 0x2
 7670 37af 73       		.byte	0x73
 7671 37b0 00       		.sleb128 0
 7672 37b1 02       		.uleb128 0x2
 7673 37b2 01       		.uleb128 0x1
 7674 37b3 58       		.byte	0x58
 7675 37b4 02       		.uleb128 0x2
 7676 37b5 75       		.byte	0x75
 7677 37b6 00       		.sleb128 0
 7678 37b7 00       		.byte	0
 7679 37b8 0F       		.uleb128 0xf
 7680 37b9 D0070000 		.quad	.LVL170
 7680      00000000 
 7681 37c1 93260000 		.long	0x2693
 7682 37c5 02       		.uleb128 0x2
 7683 37c6 01       		.uleb128 0x1
 7684 37c7 52       		.byte	0x52
 7685 37c8 09       		.uleb128 0x9
 7686 37c9 03       		.byte	0x3
 7687 37ca 44000000 		.quad	.LC9
 7687      00000000 
 7688 37d2 00       		.byte	0
 7689 37d3 00       		.byte	0
 7690 37d4 00       		.byte	0
 7691 37d5 00       		.byte	0
 7692 37d6 0F       		.uleb128 0xf
 7693 37d7 F3070000 		.quad	.LVL173
 7693      00000000 
 7694 37df 78420000 		.long	0x4278
 7695 37e3 02       		.uleb128 0x2
 7696 37e4 01       		.uleb128 0x1
 7697 37e5 52       		.byte	0x52
 7698 37e6 05       		.uleb128 0x5
 7699 37e7 0C       		.byte	0xc
 7700 37e8 40420F00 		.long	0xf4240
 7701 37ec 00       		.byte	0
 7702 37ed 00       		.byte	0
 7703 37ee 00       		.byte	0
 7704 37ef 1C       		.uleb128 0x1c
 7705 37f0 66616469 		.ascii "fading_text\0"
 7705      6E675F74 
 7705      65787400 
 7706 37fc E7       		.byte	0xe7
 7707 37fd 15070000 		.quad	.LFB14
 7707      00000000 
 7708 3805 70000000 		.quad	.LFE14-.LFB14
 7708      00000000 
 7709 380d 01       		.uleb128 0x1
 7710 380e 9C       		.byte	0x9c
 7711 380f FE380000 		.long	0x38fe
 7712 3813 0E       		.uleb128 0xe
 7713 3814 4D000000 		.secrel32	.LASF5
 7714 3818 E7       		.byte	0xe7
 7715 3819 24       		.byte	0x24
 7716 381a 3F260000 		.long	0x263f
 7717 381e FF050000 		.secrel32	.LLST61
 7718 3822 F9050000 		.secrel32	.LVUS61
 7719 3826 0E       		.uleb128 0xe
 7720 3827 00000000 		.secrel32	.LASF12
 7721 382b E7       		.byte	0xe7
 7722 382c 39       		.byte	0x39
 7723 382d 15080000 		.long	0x815
 7724 3831 1E060000 		.secrel32	.LLST62
 7725 3835 18060000 		.secrel32	.LVUS62
 7726 3839 0E       		.uleb128 0xe
 7727 383a 12000000 		.secrel32	.LASF13
 7728 383e E7       		.byte	0xe7
 7729 383f 48       		.byte	0x48
 7730 3840 02030000 		.long	0x302
 7731 3844 3D060000 		.secrel32	.LLST63
 7732 3848 37060000 		.secrel32	.LVUS63
 7733 384c 0E       		.uleb128 0xe
 7734 384d 1E000000 		.secrel32	.LASF14
 7735 3851 E7       		.byte	0xe7
 7736 3852 5B       		.byte	0x5b
 7737 3853 02030000 		.long	0x302
 7738 3857 5C060000 		.secrel32	.LLST64
 7739 385b 56060000 		.secrel32	.LVUS64
 7740 385f 12       		.uleb128 0x12
 7741 3860 2B070000 		.quad	.LBB38
 7741      00000000 
 7742 3868 4F000000 		.quad	.LBE38-.LBB38
 7742      00000000 
 7743 3870 0C       		.uleb128 0xc
 7744 3871 6900     		.ascii "i\0"
 7745 3873 E8       		.byte	0xe8
 7746 3874 10       		.byte	0x10
 7747 3875 02030000 		.long	0x302
 7748 3879 79060000 		.secrel32	.LLST65
 7749 387d 75060000 		.secrel32	.LVUS65
 7750 3881 12       		.uleb128 0x12
 7751 3882 32070000 		.quad	.LBB39
 7751      00000000 
 7752 388a 3E000000 		.quad	.LBE39-.LBB39
 7752      00000000 
 7753 3892 16       		.uleb128 0x16
 7754 3893 2A000000 		.secrel32	.LASF10
 7755 3897 E9       		.byte	0xe9
 7756 3898 0F       		.byte	0xf
 7757 3899 02030000 		.long	0x302
 7758 389d 8D060000 		.secrel32	.LLST66
 7759 38a1 89060000 		.secrel32	.LVUS66
 7760 38a5 0D       		.uleb128 0xd
 7761 38a6 37070000 		.quad	.LVL148
 7761      00000000 
 7762 38ae E0410000 		.long	0x41e0
 7763 38b2 0B       		.uleb128 0xb
 7764 38b3 54070000 		.quad	.LVL152
 7764      00000000 
 7765 38bb CC380000 		.long	0x38cc
 7766 38bf 02       		.uleb128 0x2
 7767 38c0 01       		.uleb128 0x1
 7768 38c1 51       		.byte	0x51
 7769 38c2 02       		.uleb128 0x2
 7770 38c3 76       		.byte	0x76
 7771 38c4 00       		.sleb128 0
 7772 38c5 02       		.uleb128 0x2
 7773 38c6 01       		.uleb128 0x1
 7774 38c7 58       		.byte	0x58
 7775 38c8 02       		.uleb128 0x2
 7776 38c9 75       		.byte	0x75
 7777 38ca 00       		.sleb128 0
 7778 38cb 00       		.byte	0
 7779 38cc 08       		.uleb128 0x8
 7780 38cd 5C070000 		.quad	.LVL153
 7780      00000000 
 7781 38d5 93260000 		.long	0x2693
 7782 38d9 E4380000 		.long	0x38e4
 7783 38dd 02       		.uleb128 0x2
 7784 38de 01       		.uleb128 0x1
 7785 38df 52       		.byte	0x52
 7786 38e0 02       		.uleb128 0x2
 7787 38e1 7C       		.byte	0x7c
 7788 38e2 00       		.sleb128 0
 7789 38e3 00       		.byte	0
 7790 38e4 0F       		.uleb128 0xf
 7791 38e5 66070000 		.quad	.LVL154
 7791      00000000 
 7792 38ed 78420000 		.long	0x4278
 7793 38f1 02       		.uleb128 0x2
 7794 38f2 01       		.uleb128 0x1
 7795 38f3 52       		.byte	0x52
 7796 38f4 05       		.uleb128 0x5
 7797 38f5 0C       		.byte	0xc
 7798 38f6 80841E00 		.long	0x1e8480
 7799 38fa 00       		.byte	0
 7800 38fb 00       		.byte	0
 7801 38fc 00       		.byte	0
 7802 38fd 00       		.byte	0
 7803 38fe 1C       		.uleb128 0x1c
 7804 38ff 74657874 		.ascii "text_explosion\0"
 7804      5F657870 
 7804      6C6F7369 
 7804      6F6E00
 7805 390e DA       		.byte	0xda
 7806 390f 6A060000 		.quad	.LFB13
 7806      00000000 
 7807 3917 AB000000 		.quad	.LFE13-.LFB13
 7807      00000000 
 7808 391f 01       		.uleb128 0x1
 7809 3920 9C       		.byte	0x9c
 7810 3921 503A0000 		.long	0x3a50
 7811 3925 0E       		.uleb128 0xe
 7812 3926 4D000000 		.secrel32	.LASF5
 7813 392a DA       		.byte	0xda
 7814 392b 27       		.byte	0x27
 7815 392c 3F260000 		.long	0x263f
 7816 3930 A2060000 		.secrel32	.LLST53
 7817 3934 9C060000 		.secrel32	.LVUS53
 7818 3938 0E       		.uleb128 0xe
 7819 3939 00000000 		.secrel32	.LASF12
 7820 393d DA       		.byte	0xda
 7821 393e 3C       		.byte	0x3c
 7822 393f 15080000 		.long	0x815
 7823 3943 C1060000 		.secrel32	.LLST54
 7824 3947 BB060000 		.secrel32	.LVUS54
 7825 394b 0E       		.uleb128 0xe
 7826 394c 12000000 		.secrel32	.LASF13
 7827 3950 DA       		.byte	0xda
 7828 3951 4B       		.byte	0x4b
 7829 3952 02030000 		.long	0x302
 7830 3956 E0060000 		.secrel32	.LLST55
 7831 395a DA060000 		.secrel32	.LVUS55
 7832 395e 0E       		.uleb128 0xe
 7833 395f 1E000000 		.secrel32	.LASF14
 7834 3963 DA       		.byte	0xda
 7835 3964 5E       		.byte	0x5e
 7836 3965 02030000 		.long	0x302
 7837 3969 FF060000 		.secrel32	.LLST56
 7838 396d F9060000 		.secrel32	.LVUS56
 7839 3971 12       		.uleb128 0x12
 7840 3972 84060000 		.quad	.LBB36
 7840      00000000 
 7841 397a 82000000 		.quad	.LBE36-.LBB36
 7841      00000000 
 7842 3982 0C       		.uleb128 0xc
 7843 3983 6900     		.ascii "i\0"
 7844 3985 DB       		.byte	0xdb
 7845 3986 10       		.byte	0x10
 7846 3987 02030000 		.long	0x302
 7847 398b 1C070000 		.secrel32	.LLST57
 7848 398f 18070000 		.secrel32	.LVUS57
 7849 3993 12       		.uleb128 0x12
 7850 3994 8B060000 		.quad	.LBB37
 7850      00000000 
 7851 399c 71000000 		.quad	.LBE37-.LBB37
 7851      00000000 
 7852 39a4 0C       		.uleb128 0xc
 7853 39a5 636F6C00 		.ascii "col\0"
 7854 39a9 DC       		.byte	0xdc
 7855 39aa 0F       		.byte	0xf
 7856 39ab 02030000 		.long	0x302
 7857 39af 2E070000 		.secrel32	.LLST58
 7858 39b3 2C070000 		.secrel32	.LVUS58
 7859 39b7 0C       		.uleb128 0xc
 7860 39b8 726F7700 		.ascii "row\0"
 7861 39bc DD       		.byte	0xdd
 7862 39bd 0F       		.byte	0xf
 7863 39be 02030000 		.long	0x302
 7864 39c2 38070000 		.secrel32	.LLST59
 7865 39c6 36070000 		.secrel32	.LVUS59
 7866 39ca 16       		.uleb128 0x16
 7867 39cb 2A000000 		.secrel32	.LASF10
 7868 39cf DE       		.byte	0xde
 7869 39d0 0F       		.byte	0xf
 7870 39d1 02030000 		.long	0x302
 7871 39d5 44070000 		.secrel32	.LLST60
 7872 39d9 40070000 		.secrel32	.LVUS60
 7873 39dd 0D       		.uleb128 0xd
 7874 39de 90060000 		.quad	.LVL128
 7874      00000000 
 7875 39e6 B1420000 		.long	0x42b1
 7876 39ea 0D       		.uleb128 0xd
 7877 39eb AD060000 		.quad	.LVL130
 7877      00000000 
 7878 39f3 B1420000 		.long	0x42b1
 7879 39f7 0D       		.uleb128 0xd
 7880 39f8 CD060000 		.quad	.LVL132
 7880      00000000 
 7881 3a00 E0410000 		.long	0x41e0
 7882 3a04 0B       		.uleb128 0xb
 7883 3a05 EA060000 		.quad	.LVL136
 7883      00000000 
 7884 3a0d 1E3A0000 		.long	0x3a1e
 7885 3a11 02       		.uleb128 0x2
 7886 3a12 01       		.uleb128 0x1
 7887 3a13 51       		.byte	0x51
 7888 3a14 02       		.uleb128 0x2
 7889 3a15 73       		.byte	0x73
 7890 3a16 00       		.sleb128 0
 7891 3a17 02       		.uleb128 0x2
 7892 3a18 01       		.uleb128 0x1
 7893 3a19 58       		.byte	0x58
 7894 3a1a 02       		.uleb128 0x2
 7895 3a1b 7E       		.byte	0x7e
 7896 3a1c 00       		.sleb128 0
 7897 3a1d 00       		.byte	0
 7898 3a1e 08       		.uleb128 0x8
 7899 3a1f F2060000 		.quad	.LVL137
 7899      00000000 
 7900 3a27 93260000 		.long	0x2693
 7901 3a2b 363A0000 		.long	0x3a36
 7902 3a2f 02       		.uleb128 0x2
 7903 3a30 01       		.uleb128 0x1
 7904 3a31 52       		.byte	0x52
 7905 3a32 02       		.uleb128 0x2
 7906 3a33 7D       		.byte	0x7d
 7907 3a34 00       		.sleb128 0
 7908 3a35 00       		.byte	0
 7909 3a36 0F       		.uleb128 0xf
 7910 3a37 FC060000 		.quad	.LVL138
 7910      00000000 
 7911 3a3f 78420000 		.long	0x4278
 7912 3a43 02       		.uleb128 0x2
 7913 3a44 01       		.uleb128 0x1
 7914 3a45 52       		.byte	0x52
 7915 3a46 05       		.uleb128 0x5
 7916 3a47 0C       		.byte	0xc
 7917 3a48 80841E00 		.long	0x1e8480
 7918 3a4c 00       		.byte	0
 7919 3a4d 00       		.byte	0
 7920 3a4e 00       		.byte	0
 7921 3a4f 00       		.byte	0
 7922 3a50 1C       		.uleb128 0x1c
 7923 3a51 77617665 		.ascii "wave_animation\0"
 7923      5F616E69 
 7923      6D617469 
 7923      6F6E00
 7924 3a60 CB       		.byte	0xcb
 7925 3a61 9B050000 		.quad	.LFB12
 7925      00000000 
 7926 3a69 CF000000 		.quad	.LFE12-.LFB12
 7926      00000000 
 7927 3a71 01       		.uleb128 0x1
 7928 3a72 9C       		.byte	0x9c
 7929 3a73 E03B0000 		.long	0x3be0
 7930 3a77 0E       		.uleb128 0xe
 7931 3a78 4D000000 		.secrel32	.LASF5
 7932 3a7c CB       		.byte	0xcb
 7933 3a7d 27       		.byte	0x27
 7934 3a7e 3F260000 		.long	0x263f
 7935 3a82 59070000 		.secrel32	.LLST43
 7936 3a86 53070000 		.secrel32	.LVUS43
 7937 3a8a 0E       		.uleb128 0xe
 7938 3a8b 00000000 		.secrel32	.LASF12
 7939 3a8f CB       		.byte	0xcb
 7940 3a90 3C       		.byte	0x3c
 7941 3a91 15080000 		.long	0x815
 7942 3a95 78070000 		.secrel32	.LLST44
 7943 3a99 72070000 		.secrel32	.LVUS44
 7944 3a9d 0E       		.uleb128 0xe
 7945 3a9e 12000000 		.secrel32	.LASF13
 7946 3aa2 CB       		.byte	0xcb
 7947 3aa3 4B       		.byte	0x4b
 7948 3aa4 02030000 		.long	0x302
 7949 3aa8 97070000 		.secrel32	.LLST45
 7950 3aac 91070000 		.secrel32	.LVUS45
 7951 3ab0 0E       		.uleb128 0xe
 7952 3ab1 1E000000 		.secrel32	.LASF14
 7953 3ab5 CB       		.byte	0xcb
 7954 3ab6 5E       		.byte	0x5e
 7955 3ab7 02030000 		.long	0x302
 7956 3abb B6070000 		.secrel32	.LLST46
 7957 3abf B0070000 		.secrel32	.LVUS46
 7958 3ac3 3E       		.uleb128 0x3e
 7959 3ac4 616D706C 		.ascii "amplitude\0"
 7959      69747564 
 7959      6500
 7960 3ace 01       		.byte	0x1
 7961 3acf CB       		.byte	0xcb
 7962 3ad0 71       		.byte	0x71
 7963 3ad1 02030000 		.long	0x302
 7964 3ad5 02       		.uleb128 0x2
 7965 3ad6 91       		.byte	0x91
 7966 3ad7 20       		.sleb128 32
 7967 3ad8 12       		.uleb128 0x12
 7968 3ad9 B7050000 		.quad	.LBB32
 7968      00000000 
 7969 3ae1 A2000000 		.quad	.LBE32-.LBB32
 7969      00000000 
 7970 3ae9 0C       		.uleb128 0xc
 7971 3aea 7400     		.ascii "t\0"
 7972 3aec CC       		.byte	0xcc
 7973 3aed 10       		.byte	0x10
 7974 3aee 02030000 		.long	0x302
 7975 3af2 D3070000 		.secrel32	.LLST47
 7976 3af6 CF070000 		.secrel32	.LVUS47
 7977 3afa 18       		.uleb128 0x18
 7978 3afb 59000000 		.secrel32	.LLRL48
 7979 3aff C73B0000 		.long	0x3bc7
 7980 3b03 0C       		.uleb128 0xc
 7981 3b04 6900     		.ascii "i\0"
 7982 3b06 CD       		.byte	0xcd
 7983 3b07 14       		.byte	0x14
 7984 3b08 02030000 		.long	0x302
 7985 3b0c E5070000 		.secrel32	.LLST49
 7986 3b10 E3070000 		.secrel32	.LVUS49
 7987 3b14 33       		.uleb128 0x33
 7988 3b15 C2050000 		.quad	.LBB34
 7988      00000000 
 7989 3b1d 6B000000 		.quad	.LBE34-.LBB34
 7989      00000000 
 7990 3b25 B23B0000 		.long	0x3bb2
 7991 3b29 0C       		.uleb128 0xc
 7992 3b2a 636F6C00 		.ascii "col\0"
 7993 3b2e CE       		.byte	0xce
 7994 3b2f 13       		.byte	0x13
 7995 3b30 02030000 		.long	0x302
 7996 3b34 EF070000 		.secrel32	.LLST50
 7997 3b38 ED070000 		.secrel32	.LVUS50
 7998 3b3c 0C       		.uleb128 0xc
 7999 3b3d 726F7700 		.ascii "row\0"
 8000 3b41 CF       		.byte	0xcf
 8001 3b42 13       		.byte	0x13
 8002 3b43 02030000 		.long	0x302
 8003 3b47 F9070000 		.secrel32	.LLST51
 8004 3b4b F7070000 		.secrel32	.LVUS51
 8005 3b4f 16       		.uleb128 0x16
 8006 3b50 2A000000 		.secrel32	.LASF10
 8007 3b54 D0       		.byte	0xd0
 8008 3b55 13       		.byte	0x13
 8009 3b56 02030000 		.long	0x302
 8010 3b5a 05080000 		.secrel32	.LLST52
 8011 3b5e 01080000 		.secrel32	.LVUS52
 8012 3b62 0D       		.uleb128 0xd
 8013 3b63 EE050000 		.quad	.LVL108
 8013      00000000 
 8014 3b6b D3420000 		.long	0x42d3
 8015 3b6f 0D       		.uleb128 0xd
 8016 3b70 00060000 		.quad	.LVL110
 8016      00000000 
 8017 3b78 E0410000 		.long	0x41e0
 8018 3b7c 0B       		.uleb128 0xb
 8019 3b7d 1D060000 		.quad	.LVL114
 8019      00000000 
 8020 3b85 963B0000 		.long	0x3b96
 8021 3b89 02       		.uleb128 0x2
 8022 3b8a 01       		.uleb128 0x1
 8023 3b8b 51       		.byte	0x51
 8024 3b8c 02       		.uleb128 0x2
 8025 3b8d 7C       		.byte	0x7c
 8026 3b8e 00       		.sleb128 0
 8027 3b8f 02       		.uleb128 0x2
 8028 3b90 01       		.uleb128 0x1
 8029 3b91 58       		.byte	0x58
 8030 3b92 02       		.uleb128 0x2
 8031 3b93 74       		.byte	0x74
 8032 3b94 00       		.sleb128 0
 8033 3b95 00       		.byte	0
 8034 3b96 0F       		.uleb128 0xf
 8035 3b97 2D060000 		.quad	.LVL115
 8035      00000000 
 8036 3b9f 93260000 		.long	0x2693
 8037 3ba3 02       		.uleb128 0x2
 8038 3ba4 01       		.uleb128 0x1
 8039 3ba5 52       		.byte	0x52
 8040 3ba6 09       		.uleb128 0x9
 8041 3ba7 03       		.byte	0x3
 8042 3ba8 3A000000 		.quad	.LC7
 8042      00000000 
 8043 3bb0 00       		.byte	0
 8044 3bb1 00       		.byte	0
 8045 3bb2 0F       		.uleb128 0xf
 8046 3bb3 39060000 		.quad	.LVL117
 8046      00000000 
 8047 3bbb 7B260000 		.long	0x267b
 8048 3bbf 02       		.uleb128 0x2
 8049 3bc0 01       		.uleb128 0x1
 8050 3bc1 52       		.byte	0x52
 8051 3bc2 02       		.uleb128 0x2
 8052 3bc3 75       		.byte	0x75
 8053 3bc4 00       		.sleb128 0
 8054 3bc5 00       		.byte	0
 8055 3bc6 00       		.byte	0
 8056 3bc7 0F       		.uleb128 0xf
 8057 3bc8 48060000 		.quad	.LVL118
 8057      00000000 
 8058 3bd0 78420000 		.long	0x4278
 8059 3bd4 02       		.uleb128 0x2
 8060 3bd5 01       		.uleb128 0x1
 8061 3bd6 52       		.byte	0x52
 8062 3bd7 05       		.uleb128 0x5
 8063 3bd8 0C       		.byte	0xc
 8064 3bd9 40420F00 		.long	0xf4240
 8065 3bdd 00       		.byte	0
 8066 3bde 00       		.byte	0
 8067 3bdf 00       		.byte	0
 8068 3be0 1C       		.uleb128 0x1c
 8069 3be1 70697865 		.ascii "pixel_rain\0"
 8069      6C5F7261 
 8069      696E00
 8070 3bec BE       		.byte	0xbe
 8071 3bed 0C050000 		.quad	.LFB11
 8071      00000000 
 8072 3bf5 8F000000 		.quad	.LFE11-.LFB11
 8072      00000000 
 8073 3bfd 01       		.uleb128 0x1
 8074 3bfe 9C       		.byte	0x9c
 8075 3bff 223D0000 		.long	0x3d22
 8076 3c03 0E       		.uleb128 0xe
 8077 3c04 4D000000 		.secrel32	.LASF5
 8078 3c08 BE       		.byte	0xbe
 8079 3c09 23       		.byte	0x23
 8080 3c0a 3F260000 		.long	0x263f
 8081 3c0e 1A080000 		.secrel32	.LLST36
 8082 3c12 14080000 		.secrel32	.LVUS36
 8083 3c16 0E       		.uleb128 0xe
 8084 3c17 59000000 		.secrel32	.LASF6
 8085 3c1b BE       		.byte	0xbe
 8086 3c1c 36       		.byte	0x36
 8087 3c1d 02030000 		.long	0x302
 8088 3c21 39080000 		.secrel32	.LLST37
 8089 3c25 33080000 		.secrel32	.LVUS37
 8090 3c29 0E       		.uleb128 0xe
 8091 3c2a 61000000 		.secrel32	.LASF7
 8092 3c2e BE       		.byte	0xbe
 8093 3c2f 45       		.byte	0x45
 8094 3c30 02030000 		.long	0x302
 8095 3c34 58080000 		.secrel32	.LLST38
 8096 3c38 52080000 		.secrel32	.LVUS38
 8097 3c3c 12       		.uleb128 0x12
 8098 3c3d 21050000 		.quad	.LBB30
 8098      00000000 
 8099 3c45 6D000000 		.quad	.LBE30-.LBB30
 8099      00000000 
 8100 3c4d 0C       		.uleb128 0xc
 8101 3c4e 6900     		.ascii "i\0"
 8102 3c50 BF       		.byte	0xbf
 8103 3c51 10       		.byte	0x10
 8104 3c52 02030000 		.long	0x302
 8105 3c56 75080000 		.secrel32	.LLST39
 8106 3c5a 71080000 		.secrel32	.LVUS39
 8107 3c5e 12       		.uleb128 0x12
 8108 3c5f 28050000 		.quad	.LBB31
 8108      00000000 
 8109 3c67 5C000000 		.quad	.LBE31-.LBB31
 8109      00000000 
 8110 3c6f 0C       		.uleb128 0xc
 8111 3c70 636F6C00 		.ascii "col\0"
 8112 3c74 C0       		.byte	0xc0
 8113 3c75 0F       		.byte	0xf
 8114 3c76 02030000 		.long	0x302
 8115 3c7a 89080000 		.secrel32	.LLST40
 8116 3c7e 85080000 		.secrel32	.LVUS40
 8117 3c82 0C       		.uleb128 0xc
 8118 3c83 726F7700 		.ascii "row\0"
 8119 3c87 C1       		.byte	0xc1
 8120 3c88 0F       		.byte	0xf
 8121 3c89 02030000 		.long	0x302
 8122 3c8d 9C080000 		.secrel32	.LLST41
 8123 3c91 98080000 		.secrel32	.LVUS41
 8124 3c95 16       		.uleb128 0x16
 8125 3c96 2A000000 		.secrel32	.LASF10
 8126 3c9a C2       		.byte	0xc2
 8127 3c9b 0F       		.byte	0xf
 8128 3c9c 02030000 		.long	0x302
 8129 3ca0 AF080000 		.secrel32	.LLST42
 8130 3ca4 AB080000 		.secrel32	.LVUS42
 8131 3ca8 0D       		.uleb128 0xd
 8132 3ca9 2D050000 		.quad	.LVL88
 8132      00000000 
 8133 3cb1 B1420000 		.long	0x42b1
 8134 3cb5 0D       		.uleb128 0xd
 8135 3cb6 3F050000 		.quad	.LVL90
 8135      00000000 
 8136 3cbe B1420000 		.long	0x42b1
 8137 3cc2 0D       		.uleb128 0xd
 8138 3cc3 51050000 		.quad	.LVL92
 8138      00000000 
 8139 3ccb E0410000 		.long	0x41e0
 8140 3ccf 0B       		.uleb128 0xb
 8141 3cd0 6E050000 		.quad	.LVL96
 8141      00000000 
 8142 3cd8 E93C0000 		.long	0x3ce9
 8143 3cdc 02       		.uleb128 0x2
 8144 3cdd 01       		.uleb128 0x1
 8145 3cde 51       		.byte	0x51
 8146 3cdf 02       		.uleb128 0x2
 8147 3ce0 7C       		.byte	0x7c
 8148 3ce1 00       		.sleb128 0
 8149 3ce2 02       		.uleb128 0x2
 8150 3ce3 01       		.uleb128 0x1
 8151 3ce4 58       		.byte	0x58
 8152 3ce5 02       		.uleb128 0x2
 8153 3ce6 7D       		.byte	0x7d
 8154 3ce7 00       		.sleb128 0
 8155 3ce8 00       		.byte	0
 8156 3ce9 08       		.uleb128 0x8
 8157 3cea 7A050000 		.quad	.LVL97
 8157      00000000 
 8158 3cf2 93260000 		.long	0x2693
 8159 3cf6 083D0000 		.long	0x3d08
 8160 3cfa 02       		.uleb128 0x2
 8161 3cfb 01       		.uleb128 0x1
 8162 3cfc 52       		.byte	0x52
 8163 3cfd 09       		.uleb128 0x9
 8164 3cfe 03       		.byte	0x3
 8165 3cff 40000000 		.quad	.LC8
 8165      00000000 
 8166 3d07 00       		.byte	0
 8167 3d08 0F       		.uleb128 0xf
 8168 3d09 84050000 		.quad	.LVL98
 8168      00000000 
 8169 3d11 78420000 		.long	0x4278
 8170 3d15 02       		.uleb128 0x2
 8171 3d16 01       		.uleb128 0x1
 8172 3d17 52       		.byte	0x52
 8173 3d18 05       		.uleb128 0x5
 8174 3d19 0C       		.byte	0xc
 8175 3d1a 20A10700 		.long	0x7a120
 8176 3d1e 00       		.byte	0
 8177 3d1f 00       		.byte	0
 8178 3d20 00       		.byte	0
 8179 3d21 00       		.byte	0
 8180 3d22 2B       		.uleb128 0x2b
 8181 3d23 636F6D70 		.ascii "complex_blur\0"
 8181      6C65785F 
 8181      626C7572 
 8181      00
 8182 3d30 9B       		.byte	0x9b
 8183 3d31 05040000 		.quad	.LFB10
 8183      00000000 
 8184 3d39 07010000 		.quad	.LFE10-.LFB10
 8184      00000000 
 8185 3d41 01       		.uleb128 0x1
 8186 3d42 9C       		.byte	0x9c
 8187 3d43 4B3F0000 		.long	0x3f4b
 8188 3d47 0E       		.uleb128 0xe
 8189 3d48 4D000000 		.secrel32	.LASF5
 8190 3d4c 9B       		.byte	0x9b
 8191 3d4d 25       		.byte	0x25
 8192 3d4e 3F260000 		.long	0x263f
 8193 3d52 C2080000 		.secrel32	.LLST24
 8194 3d56 BE080000 		.secrel32	.LVUS24
 8195 3d5a 0E       		.uleb128 0xe
 8196 3d5b 00000000 		.secrel32	.LASF12
 8197 3d5f 9B       		.byte	0x9b
 8198 3d60 3A       		.byte	0x3a
 8199 3d61 15080000 		.long	0x815
 8200 3d65 DA080000 		.secrel32	.LLST25
 8201 3d69 D4080000 		.secrel32	.LVUS25
 8202 3d6d 0E       		.uleb128 0xe
 8203 3d6e 12000000 		.secrel32	.LASF13
 8204 3d72 9B       		.byte	0x9b
 8205 3d73 49       		.byte	0x49
 8206 3d74 02030000 		.long	0x302
 8207 3d78 F9080000 		.secrel32	.LLST26
 8208 3d7c F3080000 		.secrel32	.LVUS26
 8209 3d80 0E       		.uleb128 0xe
 8210 3d81 1E000000 		.secrel32	.LASF14
 8211 3d85 9B       		.byte	0x9b
 8212 3d86 5C       		.byte	0x5c
 8213 3d87 02030000 		.long	0x302
 8214 3d8b 18090000 		.secrel32	.LLST27
 8215 3d8f 12090000 		.secrel32	.LVUS27
 8216 3d93 16       		.uleb128 0x16
 8217 3d94 46000000 		.secrel32	.LASF3
 8218 3d98 9C       		.byte	0x9c
 8219 3d99 23       		.byte	0x23
 8220 3d9a 042D0000 		.long	0x2d04
 8221 3d9e 33090000 		.secrel32	.LLST28
 8222 3da2 31090000 		.secrel32	.LVUS28
 8223 3da6 0C       		.uleb128 0xc
 8224 3da7 636F6C00 		.ascii "col\0"
 8225 3dab 9D       		.byte	0x9d
 8226 3dac 0B       		.byte	0xb
 8227 3dad 02030000 		.long	0x302
 8228 3db1 3F090000 		.secrel32	.LLST29
 8229 3db5 3B090000 		.secrel32	.LVUS29
 8230 3db9 0C       		.uleb128 0xc
 8231 3dba 726F7700 		.ascii "row\0"
 8232 3dbe 9D       		.byte	0x9d
 8233 3dbf 10       		.byte	0x10
 8234 3dc0 02030000 		.long	0x302
 8235 3dc4 52090000 		.secrel32	.LLST30
 8236 3dc8 4E090000 		.secrel32	.LVUS30
 8237 3dcc 24       		.uleb128 0x24
 8238 3dcd 59000000 		.secrel32	.LASF6
 8239 3dd1 9E       		.byte	0x9e
 8240 3dd2 0B       		.byte	0xb
 8241 3dd3 02030000 		.long	0x302
 8242 3dd7 03       		.uleb128 0x3
 8243 3dd8 91       		.byte	0x91
 8244 3dd9 B87F     		.sleb128 -72
 8245 3ddb 24       		.uleb128 0x24
 8246 3ddc 61000000 		.secrel32	.LASF7
 8247 3de0 9E       		.byte	0x9e
 8248 3de1 14       		.byte	0x14
 8249 3de2 02030000 		.long	0x302
 8250 3de6 03       		.uleb128 0x3
 8251 3de7 91       		.byte	0x91
 8252 3de8 B07F     		.sleb128 -80
 8253 3dea 3F       		.uleb128 0x3f
 8254 3deb 626C7572 		.ascii "blur_intensity\0"
 8254      5F696E74 
 8254      656E7369 
 8254      747900
 8255 3dfa 01       		.byte	0x1
 8256 3dfb 9F       		.byte	0x9f
 8257 3dfc 09       		.byte	0x9
 8258 3dfd 92010000 		.long	0x192
 8259 3e01 06       		.byte	0x6
 8260 3e02 16       		.uleb128 0x16
 8261 3e03 30000000 		.secrel32	.LASF8
 8262 3e07 A0       		.byte	0xa0
 8263 3e08 10       		.byte	0x10
 8264 3e09 2E030000 		.long	0x32e
 8265 3e0d 63090000 		.secrel32	.LLST31
 8266 3e11 61090000 		.secrel32	.LVUS31
 8267 3e15 18       		.uleb128 0x18
 8268 3e16 43000000 		.secrel32	.LLRL32
 8269 3e1a BC3E0000 		.long	0x3ebc
 8270 3e1e 0C       		.uleb128 0xc
 8271 3e1f 6900     		.ascii "i\0"
 8272 3e21 A9       		.byte	0xa9
 8273 3e22 0E       		.byte	0xe
 8274 3e23 92010000 		.long	0x192
 8275 3e27 6D090000 		.secrel32	.LLST33
 8276 3e2b 6B090000 		.secrel32	.LVUS33
 8277 3e2f 19       		.uleb128 0x19
 8278 3e30 4E000000 		.secrel32	.LLRL34
 8279 3e34 16       		.uleb128 0x16
 8280 3e35 2A000000 		.secrel32	.LASF10
 8281 3e39 B1       		.byte	0xb1
 8282 3e3a 0F       		.byte	0xf
 8283 3e3b 02030000 		.long	0x302
 8284 3e3f 77090000 		.secrel32	.LLST35
 8285 3e43 75090000 		.secrel32	.LVUS35
 8286 3e47 0D       		.uleb128 0xd
 8287 3e48 5A040000 		.quad	.LVL65
 8287      00000000 
 8288 3e50 E0410000 		.long	0x41e0
 8289 3e54 0B       		.uleb128 0xb
 8290 3e55 63040000 		.quad	.LVL67
 8290      00000000 
 8291 3e5d 683E0000 		.long	0x3e68
 8292 3e61 02       		.uleb128 0x2
 8293 3e62 01       		.uleb128 0x1
 8294 3e63 52       		.byte	0x52
 8295 3e64 02       		.uleb128 0x2
 8296 3e65 74       		.byte	0x74
 8297 3e66 00       		.sleb128 0
 8298 3e67 00       		.byte	0
 8299 3e68 0B       		.uleb128 0xb
 8300 3e69 6F040000 		.quad	.LVL68
 8300      00000000 
 8301 3e71 883E0000 		.long	0x3e88
 8302 3e75 02       		.uleb128 0x2
 8303 3e76 01       		.uleb128 0x1
 8304 3e77 52       		.byte	0x52
 8305 3e78 02       		.uleb128 0x2
 8306 3e79 74       		.byte	0x74
 8307 3e7a 00       		.sleb128 0
 8308 3e7b 02       		.uleb128 0x2
 8309 3e7c 01       		.uleb128 0x1
 8310 3e7d 51       		.byte	0x51
 8311 3e7e 02       		.uleb128 0x2
 8312 3e7f 73       		.byte	0x73
 8313 3e80 00       		.sleb128 0
 8314 3e81 02       		.uleb128 0x2
 8315 3e82 01       		.uleb128 0x1
 8316 3e83 58       		.byte	0x58
 8317 3e84 02       		.uleb128 0x2
 8318 3e85 7E       		.byte	0x7e
 8319 3e86 00       		.sleb128 0
 8320 3e87 00       		.byte	0
 8321 3e88 08       		.uleb128 0x8
 8322 3e89 77040000 		.quad	.LVL69
 8322      00000000 
 8323 3e91 93260000 		.long	0x2693
 8324 3e95 A03E0000 		.long	0x3ea0
 8325 3e99 02       		.uleb128 0x2
 8326 3e9a 01       		.uleb128 0x1
 8327 3e9b 52       		.byte	0x52
 8328 3e9c 02       		.uleb128 0x2
 8329 3e9d 76       		.byte	0x76
 8330 3e9e 00       		.sleb128 0
 8331 3e9f 00       		.byte	0
 8332 3ea0 0D       		.uleb128 0xd
 8333 3ea1 84040000 		.quad	.LVL71
 8333      00000000 
 8334 3ea9 B1420000 		.long	0x42b1
 8335 3ead 0D       		.uleb128 0xd
 8336 3eae A1040000 		.quad	.LVL73
 8336      00000000 
 8337 3eb6 B1420000 		.long	0x42b1
 8338 3eba 00       		.byte	0
 8339 3ebb 00       		.byte	0
 8340 3ebc 0B       		.uleb128 0xb
 8341 3ebd 38040000 		.quad	.LVL62
 8341      00000000 
 8342 3ec5 DE3E0000 		.long	0x3ede
 8343 3ec9 02       		.uleb128 0x2
 8344 3eca 01       		.uleb128 0x1
 8345 3ecb 52       		.byte	0x52
 8346 3ecc 02       		.uleb128 0x2
 8347 3ecd 74       		.byte	0x74
 8348 3ece 00       		.sleb128 0
 8349 3ecf 02       		.uleb128 0x2
 8350 3ed0 01       		.uleb128 0x1
 8351 3ed1 58       		.byte	0x58
 8352 3ed2 03       		.uleb128 0x3
 8353 3ed3 91       		.byte	0x91
 8354 3ed4 B87F     		.sleb128 -72
 8355 3ed6 02       		.uleb128 0x2
 8356 3ed7 01       		.uleb128 0x1
 8357 3ed8 59       		.byte	0x59
 8358 3ed9 03       		.uleb128 0x3
 8359 3eda 91       		.byte	0x91
 8360 3edb B07F     		.sleb128 -80
 8361 3edd 00       		.byte	0
 8362 3ede 08       		.uleb128 0x8
 8363 3edf 50040000 		.quad	.LVL63
 8363      00000000 
 8364 3ee7 93260000 		.long	0x2693
 8365 3eeb FD3E0000 		.long	0x3efd
 8366 3eef 02       		.uleb128 0x2
 8367 3ef0 01       		.uleb128 0x1
 8368 3ef1 52       		.byte	0x52
 8369 3ef2 09       		.uleb128 0x9
 8370 3ef3 03       		.byte	0x3
 8371 3ef4 00000000 		.quad	.LC6
 8371      00000000 
 8372 3efc 00       		.byte	0
 8373 3efd 0B       		.uleb128 0xb
 8374 3efe E8040000 		.quad	.LVL78
 8374      00000000 
 8375 3f06 163F0000 		.long	0x3f16
 8376 3f0a 02       		.uleb128 0x2
 8377 3f0b 01       		.uleb128 0x1
 8378 3f0c 52       		.byte	0x52
 8379 3f0d 02       		.uleb128 0x2
 8380 3f0e 74       		.byte	0x74
 8381 3f0f 00       		.sleb128 0
 8382 3f10 02       		.uleb128 0x2
 8383 3f11 01       		.uleb128 0x1
 8384 3f12 51       		.byte	0x51
 8385 3f13 01       		.uleb128 0x1
 8386 3f14 3F       		.byte	0x3f
 8387 3f15 00       		.byte	0
 8388 3f16 0B       		.uleb128 0xb
 8389 3f17 F4040000 		.quad	.LVL79
 8389      00000000 
 8390 3f1f 363F0000 		.long	0x3f36
 8391 3f23 02       		.uleb128 0x2
 8392 3f24 01       		.uleb128 0x1
 8393 3f25 52       		.byte	0x52
 8394 3f26 02       		.uleb128 0x2
 8395 3f27 74       		.byte	0x74
 8396 3f28 00       		.sleb128 0
 8397 3f29 02       		.uleb128 0x2
 8398 3f2a 01       		.uleb128 0x1
 8399 3f2b 51       		.byte	0x51
 8400 3f2c 02       		.uleb128 0x2
 8401 3f2d 7C       		.byte	0x7c
 8402 3f2e 00       		.sleb128 0
 8403 3f2f 02       		.uleb128 0x2
 8404 3f30 01       		.uleb128 0x1
 8405 3f31 58       		.byte	0x58
 8406 3f32 02       		.uleb128 0x2
 8407 3f33 7D       		.byte	0x7d
 8408 3f34 00       		.sleb128 0
 8409 3f35 00       		.byte	0
 8410 3f36 0F       		.uleb128 0xf
 8411 3f37 FD040000 		.quad	.LVL80
 8411      00000000 
 8412 3f3f 93260000 		.long	0x2693
 8413 3f43 02       		.uleb128 0x2
 8414 3f44 01       		.uleb128 0x1
 8415 3f45 52       		.byte	0x52
 8416 3f46 02       		.uleb128 0x2
 8417 3f47 76       		.byte	0x76
 8418 3f48 00       		.sleb128 0
 8419 3f49 00       		.byte	0
 8420 3f4a 00       		.byte	0
 8421 3f4b 2B       		.uleb128 0x2b
 8422 3f4c 726F7461 		.ascii "rotating_characters_all_colors\0"
 8422      74696E67 
 8422      5F636861 
 8422      72616374 
 8422      6572735F 
 8423 3f6b 61       		.byte	0x61
 8424 3f6c 3C020000 		.quad	.LFB9
 8424      00000000 
 8425 3f74 C9010000 		.quad	.LFE9-.LFB9
 8425      00000000 
 8426 3f7c 01       		.uleb128 0x1
 8427 3f7d 9C       		.byte	0x9c
 8428 3f7e D0410000 		.long	0x41d0
 8429 3f82 0E       		.uleb128 0xe
 8430 3f83 4D000000 		.secrel32	.LASF5
 8431 3f87 61       		.byte	0x61
 8432 3f88 37       		.byte	0x37
 8433 3f89 3F260000 		.long	0x263f
 8434 3f8d 83090000 		.secrel32	.LLST8
 8435 3f91 7F090000 		.secrel32	.LVUS8
 8436 3f95 16       		.uleb128 0x16
 8437 3f96 46000000 		.secrel32	.LASF3
 8438 3f9a 62       		.byte	0x62
 8439 3f9b 23       		.byte	0x23
 8440 3f9c 042D0000 		.long	0x2d04
 8441 3fa0 97090000 		.secrel32	.LLST9
 8442 3fa4 95090000 		.secrel32	.LVUS9
 8443 3fa8 24       		.uleb128 0x24
 8444 3fa9 59000000 		.secrel32	.LASF6
 8445 3fad 63       		.byte	0x63
 8446 3fae 0B       		.byte	0xb
 8447 3faf 02030000 		.long	0x302
 8448 3fb3 03       		.uleb128 0x3
 8449 3fb4 91       		.byte	0x91
 8450 3fb5 B87F     		.sleb128 -72
 8451 3fb7 24       		.uleb128 0x24
 8452 3fb8 61000000 		.secrel32	.LASF7
 8453 3fbc 63       		.byte	0x63
 8454 3fbd 14       		.byte	0x14
 8455 3fbe 02030000 		.long	0x302
 8456 3fc2 03       		.uleb128 0x3
 8457 3fc3 91       		.byte	0x91
 8458 3fc4 B07F     		.sleb128 -80
 8459 3fc6 16       		.uleb128 0x16
 8460 3fc7 30000000 		.secrel32	.LASF8
 8461 3fcb 64       		.byte	0x64
 8462 3fcc 10       		.byte	0x10
 8463 3fcd 2E030000 		.long	0x32e
 8464 3fd1 A1090000 		.secrel32	.LLST10
 8465 3fd5 9F090000 		.secrel32	.LVUS10
 8466 3fd9 0C       		.uleb128 0xc
 8467 3fda 726F7461 		.ascii "rotatingChar\0"
 8467      74696E67 
 8467      43686172 
 8467      00
 8468 3fe7 6D       		.byte	0x6d
 8469 3fe8 0C       		.byte	0xc
 8470 3fe9 7C020000 		.long	0x27c
 8471 3fed AD090000 		.secrel32	.LLST11
 8472 3ff1 A9090000 		.secrel32	.LVUS11
 8473 3ff5 0C       		.uleb128 0xc
 8474 3ff6 64656661 		.ascii "defaultColor\0"
 8474      756C7443 
 8474      6F6C6F72 
 8474      00
 8475 4003 6E       		.byte	0x6e
 8476 4004 0B       		.byte	0xb
 8477 4005 02030000 		.long	0x302
 8478 4009 C0090000 		.secrel32	.LLST12
 8479 400d BC090000 		.secrel32	.LVUS12
 8480 4011 22       		.uleb128 0x22
 8481 4012 636F6C6F 		.ascii "colors\0"
 8481      727300
 8482 4019 71       		.byte	0x71
 8483 401a 0B       		.byte	0xb
 8484 401b D0410000 		.long	0x41d0
 8485 401f 03       		.uleb128 0x3
 8486 4020 91       		.byte	0x91
 8487 4021 B07E     		.sleb128 -208
 8488 4023 0C       		.uleb128 0xc
 8489 4024 746F7461 		.ascii "totalColors\0"
 8489      6C436F6C 
 8489      6F727300 
 8490 4030 77       		.byte	0x77
 8491 4031 0B       		.byte	0xb
 8492 4032 02030000 		.long	0x302
 8493 4036 D5090000 		.secrel32	.LLST13
 8494 403a D1090000 		.secrel32	.LVUS13
 8495 403e 18       		.uleb128 0x18
 8496 403f 0C000000 		.secrel32	.LLRL14
 8497 4043 76410000 		.long	0x4176
 8498 4047 0C       		.uleb128 0xc
 8499 4048 636F6C6F 		.ascii "colorIndex\0"
 8499      72496E64 
 8499      657800
 8500 4053 7A       		.byte	0x7a
 8501 4054 10       		.byte	0x10
 8502 4055 02030000 		.long	0x302
 8503 4059 EA090000 		.secrel32	.LLST15
 8504 405d E6090000 		.secrel32	.LVUS15
 8505 4061 19       		.uleb128 0x19
 8506 4062 17000000 		.secrel32	.LLRL16
 8507 4066 16       		.uleb128 0x16
 8508 4067 2A000000 		.secrel32	.LASF10
 8509 406b 7B       		.byte	0x7b
 8510 406c 0F       		.byte	0xf
 8511 406d 02030000 		.long	0x302
 8512 4071 000A0000 		.secrel32	.LLST17
 8513 4075 FA090000 		.secrel32	.LVUS17
 8514 4079 18       		.uleb128 0x18
 8515 407a 22000000 		.secrel32	.LLRL18
 8516 407e 3A410000 		.long	0x413a
 8517 4082 0C       		.uleb128 0xc
 8518 4083 6900     		.ascii "i\0"
 8519 4085 7F       		.byte	0x7f
 8520 4086 14       		.byte	0x14
 8521 4087 02030000 		.long	0x302
 8522 408b 2C0A0000 		.secrel32	.LLST19
 8523 408f 280A0000 		.secrel32	.LVUS19
 8524 4093 18       		.uleb128 0x18
 8525 4094 2D000000 		.secrel32	.LLRL20
 8526 4098 0E410000 		.long	0x410e
 8527 409c 0C       		.uleb128 0xc
 8528 409d 726F7700 		.ascii "row\0"
 8529 40a1 87       		.byte	0x87
 8530 40a2 18       		.byte	0x18
 8531 40a3 02030000 		.long	0x302
 8532 40a7 400A0000 		.secrel32	.LLST21
 8533 40ab 3C0A0000 		.secrel32	.LVUS21
 8534 40af 19       		.uleb128 0x19
 8535 40b0 38000000 		.secrel32	.LLRL22
 8536 40b4 0C       		.uleb128 0xc
 8537 40b5 636F6C00 		.ascii "col\0"
 8538 40b9 88       		.byte	0x88
 8539 40ba 1C       		.byte	0x1c
 8540 40bb 02030000 		.long	0x302
 8541 40bf 520A0000 		.secrel32	.LLST23
 8542 40c3 500A0000 		.secrel32	.LVUS23
 8543 40c7 0B       		.uleb128 0xb
 8544 40c8 5A030000 		.quad	.LVL43
 8544      00000000 
 8545 40d0 E7400000 		.long	0x40e7
 8546 40d4 02       		.uleb128 0x2
 8547 40d5 01       		.uleb128 0x1
 8548 40d6 52       		.byte	0x52
 8549 40d7 02       		.uleb128 0x2
 8550 40d8 74       		.byte	0x74
 8551 40d9 00       		.sleb128 0
 8552 40da 02       		.uleb128 0x2
 8553 40db 01       		.uleb128 0x1
 8554 40dc 51       		.byte	0x51
 8555 40dd 02       		.uleb128 0x2
 8556 40de 73       		.byte	0x73
 8557 40df 00       		.sleb128 0
 8558 40e0 02       		.uleb128 0x2
 8559 40e1 01       		.uleb128 0x1
 8560 40e2 58       		.byte	0x58
 8561 40e3 02       		.uleb128 0x2
 8562 40e4 75       		.byte	0x75
 8563 40e5 00       		.sleb128 0
 8564 40e6 00       		.byte	0
 8565 40e7 0F       		.uleb128 0xf
 8566 40e8 69030000 		.quad	.LVL44
 8566      00000000 
 8567 40f0 93260000 		.long	0x2693
 8568 40f4 02       		.uleb128 0x2
 8569 40f5 01       		.uleb128 0x1
 8570 40f6 52       		.byte	0x52
 8571 40f7 09       		.uleb128 0x9
 8572 40f8 03       		.byte	0x3
 8573 40f9 3A000000 		.quad	.LC7
 8573      00000000 
 8574 4101 02       		.uleb128 0x2
 8575 4102 01       		.uleb128 0x1
 8576 4103 51       		.byte	0x51
 8577 4104 06       		.uleb128 0x6
 8578 4105 76       		.byte	0x76
 8579 4106 00       		.sleb128 0
 8580 4107 0A       		.byte	0xa
 8581 4108 FFFF     		.word	0xffff
 8582 410a 1A       		.byte	0x1a
 8583 410b 00       		.byte	0
 8584 410c 00       		.byte	0
 8585 410d 00       		.byte	0
 8586 410e 0B       		.uleb128 0xb
 8587 410f 40030000 		.quad	.LVL40
 8587      00000000 
 8588 4117 22410000 		.long	0x4122
 8589 411b 02       		.uleb128 0x2
 8590 411c 01       		.uleb128 0x1
 8591 411d 52       		.byte	0x52
 8592 411e 02       		.uleb128 0x2
 8593 411f 74       		.byte	0x74
 8594 4120 00       		.sleb128 0
 8595 4121 00       		.byte	0
 8596 4122 0F       		.uleb128 0xf
 8597 4123 96030000 		.quad	.LVL47
 8597      00000000 
 8598 412b 78420000 		.long	0x4278
 8599 412f 02       		.uleb128 0x2
 8600 4130 01       		.uleb128 0x1
 8601 4131 52       		.byte	0x52
 8602 4132 05       		.uleb128 0x5
 8603 4133 0C       		.byte	0xc
 8604 4134 20A10700 		.long	0x7a120
 8605 4138 00       		.byte	0
 8606 4139 00       		.byte	0
 8607 413a 08       		.uleb128 0x8
 8608 413b CC030000 		.quad	.LVL49
 8608      00000000 
 8609 4143 78420000 		.long	0x4278
 8610 4147 55410000 		.long	0x4155
 8611 414b 02       		.uleb128 0x2
 8612 414c 01       		.uleb128 0x1
 8613 414d 52       		.byte	0x52
 8614 414e 05       		.uleb128 0x5
 8615 414f 0C       		.byte	0xc
 8616 4150 20A10700 		.long	0x7a120
 8617 4154 00       		.byte	0
 8618 4155 34       		.uleb128 0x34
 8619 4156 E1030000 		.quad	.LVL52
 8619      00000000 
 8620 415e 02       		.uleb128 0x2
 8621 415f 01       		.uleb128 0x1
 8622 4160 52       		.byte	0x52
 8623 4161 02       		.uleb128 0x2
 8624 4162 74       		.byte	0x74
 8625 4163 00       		.sleb128 0
 8626 4164 02       		.uleb128 0x2
 8627 4165 01       		.uleb128 0x1
 8628 4166 51       		.byte	0x51
 8629 4167 0B       		.uleb128 0xb
 8630 4168 7D       		.byte	0x7d
 8631 4169 00       		.sleb128 0
 8632 416a 33       		.byte	0x33
 8633 416b 24       		.byte	0x24
 8634 416c 91       		.byte	0x91
 8635 416d 00       		.sleb128 0
 8636 416e 22       		.byte	0x22
 8637 416f 08       		.byte	0x8
 8638 4170 D0       		.byte	0xd0
 8639 4171 1C       		.byte	0x1c
 8640 4172 06       		.byte	0x6
 8641 4173 00       		.byte	0
 8642 4174 00       		.byte	0
 8643 4175 00       		.byte	0
 8644 4176 0B       		.uleb128 0xb
 8645 4177 6D020000 		.quad	.LVL33
 8645      00000000 
 8646 417f 98410000 		.long	0x4198
 8647 4183 02       		.uleb128 0x2
 8648 4184 01       		.uleb128 0x1
 8649 4185 52       		.byte	0x52
 8650 4186 02       		.uleb128 0x2
 8651 4187 74       		.byte	0x74
 8652 4188 00       		.sleb128 0
 8653 4189 02       		.uleb128 0x2
 8654 418a 01       		.uleb128 0x1
 8655 418b 58       		.byte	0x58
 8656 418c 03       		.uleb128 0x3
 8657 418d 91       		.byte	0x91
 8658 418e B87F     		.sleb128 -72
 8659 4190 02       		.uleb128 0x2
 8660 4191 01       		.uleb128 0x1
 8661 4192 59       		.byte	0x59
 8662 4193 03       		.uleb128 0x3
 8663 4194 91       		.byte	0x91
 8664 4195 B07F     		.sleb128 -80
 8665 4197 00       		.byte	0
 8666 4198 08       		.uleb128 0x8
 8667 4199 29030000 		.quad	.LVL37
 8667      00000000 
 8668 41a1 93260000 		.long	0x2693
 8669 41a5 B7410000 		.long	0x41b7
 8670 41a9 02       		.uleb128 0x2
 8671 41aa 01       		.uleb128 0x1
 8672 41ab 52       		.byte	0x52
 8673 41ac 09       		.uleb128 0x9
 8674 41ad 03       		.byte	0x3
 8675 41ae 00000000 		.quad	.LC6
 8675      00000000 
 8676 41b6 00       		.byte	0
 8677 41b7 34       		.uleb128 0x34
 8678 41b8 F5030000 		.quad	.LVL54
 8678      00000000 
 8679 41c0 02       		.uleb128 0x2
 8680 41c1 01       		.uleb128 0x1
 8681 41c2 52       		.byte	0x52
 8682 41c3 02       		.uleb128 0x2
 8683 41c4 74       		.byte	0x74
 8684 41c5 00       		.sleb128 0
 8685 41c6 02       		.uleb128 0x2
 8686 41c7 01       		.uleb128 0x1
 8687 41c8 51       		.byte	0x51
 8688 41c9 04       		.uleb128 0x4
 8689 41ca 91       		.byte	0x91
 8690 41cb E87E     		.sleb128 -152
 8691 41cd 06       		.byte	0x6
 8692 41ce 00       		.byte	0
 8693 41cf 00       		.byte	0
 8694 41d0 1D       		.uleb128 0x1d
 8695 41d1 02030000 		.long	0x302
 8696 41d5 E0410000 		.long	0x41e0
 8697 41d9 1E       		.uleb128 0x1e
 8698 41da 3C010000 		.long	0x13c
 8699 41de 0F       		.byte	0xf
 8700 41df 00       		.byte	0
 8701 41e0 40       		.uleb128 0x40
 8702 41e1 72616E64 		.ascii "random_color\0"
 8702      6F6D5F63 
 8702      6F6C6F72 
 8702      00
 8703 41ee 01       		.byte	0x1
 8704 41ef 49       		.byte	0x49
 8705 41f0 07       		.byte	0x7
 8706 41f1 02030000 		.long	0x302
 8707 41f5 3D010000 		.quad	.LFB8
 8707      00000000 
 8708 41fd FF000000 		.quad	.LFE8-.LFB8
 8708      00000000 
 8709 4205 01       		.uleb128 0x1
 8710 4206 9C       		.byte	0x9c
 8711 4207 78420000 		.long	0x4278
 8712 420b 22       		.uleb128 0x22
 8713 420c 66675F63 		.ascii "fg_colors\0"
 8713      6F6C6F72 
 8713      7300
 8714 4216 4B       		.byte	0x4b
 8715 4217 0B       		.byte	0xb
 8716 4218 D0410000 		.long	0x41d0
 8717 421c 03       		.uleb128 0x3
 8718 421d 91       		.byte	0x91
 8719 421e E07E     		.sleb128 -160
 8720 4220 0C       		.uleb128 0xc
 8721 4221 66675F63 		.ascii "fg_color\0"
 8721      6F6C6F72 
 8721      00
 8722 422a 53       		.byte	0x53
 8723 422b 0B       		.byte	0xb
 8724 422c 02030000 		.long	0x302
 8725 4230 5E0A0000 		.secrel32	.LLST6
 8726 4234 5A0A0000 		.secrel32	.LVUS6
 8727 4238 0C       		.uleb128 0xc
 8728 4239 62675F63 		.ascii "bg_color\0"
 8728      6F6C6F72 
 8728      00
 8729 4242 55       		.byte	0x55
 8730 4243 0B       		.byte	0xb
 8731 4244 02030000 		.long	0x302
 8732 4248 710A0000 		.secrel32	.LLST7
 8733 424c 6D0A0000 		.secrel32	.LVUS7
 8734 4250 0D       		.uleb128 0xd
 8735 4251 E7010000 		.quad	.LVL20
 8735      00000000 
 8736 4259 B1420000 		.long	0x42b1
 8737 425d 0D       		.uleb128 0xd
 8738 425e F4010000 		.quad	.LVL22
 8738      00000000 
 8739 4266 B1420000 		.long	0x42b1
 8740 426a 0D       		.uleb128 0xd
 8741 426b 1A020000 		.quad	.LVL28
 8741      00000000 
 8742 4273 B1420000 		.long	0x42b1
 8743 4277 00       		.byte	0
 8744 4278 2B       		.uleb128 0x2b
 8745 4279 64656C61 		.ascii "delay\0"
 8745      7900
 8746 427f 43       		.byte	0x43
 8747 4280 F5000000 		.quad	.LFB7
 8747      00000000 
 8748 4288 48000000 		.quad	.LFE7-.LFB7
 8748      00000000 
 8749 4290 01       		.uleb128 0x1
 8750 4291 9C       		.byte	0x9c
 8751 4292 B1420000 		.long	0x42b1
 8752 4296 41       		.uleb128 0x41
 8753 4297 66000000 		.secrel32	.LASF11
 8754 429b 01       		.byte	0x1
 8755 429c 43       		.byte	0x43
 8756 429d 12       		.byte	0x12
 8757 429e 02030000 		.long	0x302
 8758 42a2 01       		.uleb128 0x1
 8759 42a3 52       		.byte	0x52
 8760 42a4 22       		.uleb128 0x22
 8761 42a5 6900     		.ascii "i\0"
 8762 42a7 44       		.byte	0x44
 8763 42a8 14       		.byte	0x14
 8764 42a9 10030000 		.long	0x310
 8765 42ad 02       		.uleb128 0x2
 8766 42ae 91       		.byte	0x91
 8767 42af 68       		.sleb128 -24
 8768 42b0 00       		.byte	0
 8769 42b1 42       		.uleb128 0x42
 8770 42b2 6D795F72 		.ascii "my_rand\0"
 8770      616E6400 
 8771 42ba 01       		.byte	0x1
 8772 42bb 3D       		.byte	0x3d
 8773 42bc 0E       		.byte	0xe
 8774 42bd 13020000 		.long	0x213
 8775 42c1 DA000000 		.quad	.LFB6
 8775      00000000 
 8776 42c9 1B000000 		.quad	.LFE6-.LFB6
 8776      00000000 
 8777 42d1 01       		.uleb128 0x1
 8778 42d2 9C       		.byte	0x9c
 8779 42d3 43       		.uleb128 0x43
 8780 42d4 53696E00 		.ascii "Sin\0"
 8781 42d8 01       		.byte	0x1
 8782 42d9 29       		.byte	0x29
 8783 42da 06       		.byte	0x6
 8784 42db F5020000 		.long	0x2f5
 8785 42df 15000000 		.quad	.LFB5
 8785      00000000 
 8786 42e7 C5000000 		.quad	.LFE5-.LFB5
 8786      00000000 
 8787 42ef 01       		.uleb128 0x1
 8788 42f0 9C       		.byte	0x9c
 8789 42f1 6C430000 		.long	0x436c
 8790 42f5 35       		.uleb128 0x35
 8791 42f6 616E676C 		.ascii "angle\0"
 8791      6500
 8792 42fc 29       		.byte	0x29
 8793 42fd 10       		.byte	0x10
 8794 42fe 02030000 		.long	0x302
 8795 4302 880A0000 		.secrel32	.LLST1
 8796 4306 800A0000 		.secrel32	.LVUS1
 8797 430a 0C       		.uleb128 0xc
 8798 430b 72616400 		.ascii "rad\0"
 8799 430f 2B       		.byte	0x2b
 8800 4310 0C       		.byte	0xc
 8801 4311 32010000 		.long	0x132
 8802 4315 A80A0000 		.secrel32	.LLST2
 8803 4319 A40A0000 		.secrel32	.LVUS2
 8804 431d 0C       		.uleb128 0xc
 8805 431e 7465726D 		.ascii "term\0"
 8805      00
 8806 4323 2E       		.byte	0x2e
 8807 4324 0C       		.byte	0xc
 8808 4325 32010000 		.long	0x132
 8809 4329 B80A0000 		.secrel32	.LLST3
 8810 432d B40A0000 		.secrel32	.LVUS3
 8811 4331 0C       		.uleb128 0xc
 8812 4332 73756D00 		.ascii "sum\0"
 8813 4336 2F       		.byte	0x2f
 8814 4337 0C       		.byte	0xc
 8815 4338 32010000 		.long	0x132
 8816 433c C80A0000 		.secrel32	.LLST4
 8817 4340 C40A0000 		.secrel32	.LVUS4
 8818 4344 0C       		.uleb128 0xc
 8819 4345 6E00     		.ascii "n\0"
 8820 4347 30       		.byte	0x30
 8821 4348 09       		.byte	0x9
 8822 4349 92010000 		.long	0x192
 8823 434d E50A0000 		.secrel32	.LLST5
 8824 4351 DD0A0000 		.secrel32	.LVUS5
 8825 4355 0F       		.uleb128 0xf
 8826 4356 AC000000 		.quad	.LVL14
 8826      00000000 
 8827 435e BC430000 		.long	0x43bc
 8828 4362 02       		.uleb128 0x2
 8829 4363 01       		.uleb128 0x1
 8830 4364 61       		.byte	0x61
 8831 4365 04       		.uleb128 0x4
 8832 4366 A5       		.byte	0xa5
 8833 4367 17       		.uleb128 0x17
 8834 4368 B202     		.uleb128 0x132
 8835 436a 00       		.byte	0
 8836 436b 00       		.byte	0
 8837 436c 44       		.uleb128 0x44
 8838 436d 696E6200 		.ascii "inb\0"
 8839 4371 01       		.byte	0x1
 8840 4372 21       		.byte	0x21
 8841 4373 15       		.byte	0x15
 8842 4374 D9020000 		.long	0x2d9
 8843 4378 03       		.byte	0x3
 8844 4379 96430000 		.long	0x4396
 8845 437d 2C       		.uleb128 0x2c
 8846 437e 706F7274 		.ascii "port\0"
 8846      00
 8847 4383 21       		.byte	0x21
 8848 4384 20       		.byte	0x20
 8849 4385 BC020000 		.long	0x2bc
 8850 4389 45       		.uleb128 0x45
 8851 438a 72657400 		.ascii "ret\0"
 8852 438e 01       		.byte	0x1
 8853 438f 22       		.byte	0x22
 8854 4390 0B       		.byte	0xb
 8855 4391 D9020000 		.long	0x2d9
 8856 4395 00       		.byte	0
 8857 4396 46       		.uleb128 0x46
 8858 4397 6F757462 		.ascii "outb\0"
 8858      00
 8859 439c 01       		.byte	0x1
 8860 439d 1D       		.byte	0x1d
 8861 439e 14       		.byte	0x14
 8862 439f 03       		.byte	0x3
 8863 43a0 BC430000 		.long	0x43bc
 8864 43a4 2C       		.uleb128 0x2c
 8865 43a5 706F7274 		.ascii "port\0"
 8865      00
 8866 43aa 1D       		.byte	0x1d
 8867 43ab 20       		.byte	0x20
 8868 43ac BC020000 		.long	0x2bc
 8869 43b0 2C       		.uleb128 0x2c
 8870 43b1 76616C00 		.ascii "val\0"
 8871 43b5 1D       		.byte	0x1d
 8872 43b6 2C       		.byte	0x2c
 8873 43b7 D9020000 		.long	0x2d9
 8874 43bb 00       		.byte	0
 8875 43bc 47       		.uleb128 0x47
 8876 43bd 66616273 		.ascii "fabs\0"
 8876      00
 8877 43c2 01       		.byte	0x1
 8878 43c3 19       		.byte	0x19
 8879 43c4 08       		.byte	0x8
 8880 43c5 32010000 		.long	0x132
 8881 43c9 00000000 		.quad	.LFB2
 8881      00000000 
 8882 43d1 15000000 		.quad	.LFE2-.LFB2
 8882      00000000 
 8883 43d9 01       		.uleb128 0x1
 8884 43da 9C       		.byte	0x9c
 8885 43db 35       		.uleb128 0x35
 8886 43dc 7800     		.ascii "x\0"
 8887 43de 19       		.byte	0x19
 8888 43df 14       		.byte	0x14
 8889 43e0 32010000 		.long	0x132
 8890 43e4 060B0000 		.secrel32	.LLST0
 8891 43e8 FE0A0000 		.secrel32	.LVUS0
 8892 43ec 00       		.byte	0
 8893 43ed 00       		.byte	0
 8894              		.section	.debug_abbrev,"dr"
 8895              	.Ldebug_abbrev0:
 8896 0000 01       		.uleb128 0x1
 8897 0001 05       		.uleb128 0x5
 8898 0002 00       		.byte	0
 8899 0003 49       		.uleb128 0x49
 8900 0004 13       		.uleb128 0x13
 8901 0005 00       		.byte	0
 8902 0006 00       		.byte	0
 8903 0007 02       		.uleb128 0x2
 8904 0008 49       		.uleb128 0x49
 8905 0009 00       		.byte	0
 8906 000a 02       		.uleb128 0x2
 8907 000b 18       		.uleb128 0x18
 8908 000c 7E       		.uleb128 0x7e
 8909 000d 18       		.uleb128 0x18
 8910 000e 00       		.byte	0
 8911 000f 00       		.byte	0
 8912 0010 03       		.uleb128 0x3
 8913 0011 0F       		.uleb128 0xf
 8914 0012 00       		.byte	0
 8915 0013 0B       		.uleb128 0xb
 8916 0014 21       		.uleb128 0x21
 8917 0015 08       		.sleb128 8
 8918 0016 49       		.uleb128 0x49
 8919 0017 13       		.uleb128 0x13
 8920 0018 00       		.byte	0
 8921 0019 00       		.byte	0
 8922 001a 04       		.uleb128 0x4
 8923 001b 0D       		.uleb128 0xd
 8924 001c 00       		.byte	0
 8925 001d 03       		.uleb128 0x3
 8926 001e 08       		.uleb128 0x8
 8927 001f 3A       		.uleb128 0x3a
 8928 0020 0B       		.uleb128 0xb
 8929 0021 3B       		.uleb128 0x3b
 8930 0022 05       		.uleb128 0x5
 8931 0023 39       		.uleb128 0x39
 8932 0024 0B       		.uleb128 0xb
 8933 0025 49       		.uleb128 0x49
 8934 0026 13       		.uleb128 0x13
 8935 0027 38       		.uleb128 0x38
 8936 0028 0B       		.uleb128 0xb
 8937 0029 00       		.byte	0
 8938 002a 00       		.byte	0
 8939 002b 05       		.uleb128 0x5
 8940 002c 16       		.uleb128 0x16
 8941 002d 00       		.byte	0
 8942 002e 03       		.uleb128 0x3
 8943 002f 08       		.uleb128 0x8
 8944 0030 3A       		.uleb128 0x3a
 8945 0031 0B       		.uleb128 0xb
 8946 0032 3B       		.uleb128 0x3b
 8947 0033 0B       		.uleb128 0xb
 8948 0034 39       		.uleb128 0x39
 8949 0035 0B       		.uleb128 0xb
 8950 0036 49       		.uleb128 0x49
 8951 0037 13       		.uleb128 0x13
 8952 0038 00       		.byte	0
 8953 0039 00       		.byte	0
 8954 003a 06       		.uleb128 0x6
 8955 003b 15       		.uleb128 0x15
 8956 003c 01       		.byte	0x1
 8957 003d 27       		.uleb128 0x27
 8958 003e 19       		.uleb128 0x19
 8959 003f 49       		.uleb128 0x49
 8960 0040 13       		.uleb128 0x13
 8961 0041 01       		.uleb128 0x1
 8962 0042 13       		.uleb128 0x13
 8963 0043 00       		.byte	0
 8964 0044 00       		.byte	0
 8965 0045 07       		.uleb128 0x7
 8966 0046 16       		.uleb128 0x16
 8967 0047 00       		.byte	0
 8968 0048 03       		.uleb128 0x3
 8969 0049 08       		.uleb128 0x8
 8970 004a 3A       		.uleb128 0x3a
 8971 004b 0B       		.uleb128 0xb
 8972 004c 3B       		.uleb128 0x3b
 8973 004d 05       		.uleb128 0x5
 8974 004e 39       		.uleb128 0x39
 8975 004f 0B       		.uleb128 0xb
 8976 0050 49       		.uleb128 0x49
 8977 0051 13       		.uleb128 0x13
 8978 0052 00       		.byte	0
 8979 0053 00       		.byte	0
 8980 0054 08       		.uleb128 0x8
 8981 0055 48       		.uleb128 0x48
 8982 0056 01       		.byte	0x1
 8983 0057 7D       		.uleb128 0x7d
 8984 0058 01       		.uleb128 0x1
 8985 0059 7F       		.uleb128 0x7f
 8986 005a 13       		.uleb128 0x13
 8987 005b 01       		.uleb128 0x1
 8988 005c 13       		.uleb128 0x13
 8989 005d 00       		.byte	0
 8990 005e 00       		.byte	0
 8991 005f 09       		.uleb128 0x9
 8992 0060 0D       		.uleb128 0xd
 8993 0061 00       		.byte	0
 8994 0062 03       		.uleb128 0x3
 8995 0063 08       		.uleb128 0x8
 8996 0064 3A       		.uleb128 0x3a
 8997 0065 0B       		.uleb128 0xb
 8998 0066 3B       		.uleb128 0x3b
 8999 0067 0B       		.uleb128 0xb
 9000 0068 39       		.uleb128 0x39
 9001 0069 0B       		.uleb128 0xb
 9002 006a 49       		.uleb128 0x49
 9003 006b 13       		.uleb128 0x13
 9004 006c 38       		.uleb128 0x38
 9005 006d 0B       		.uleb128 0xb
 9006 006e 00       		.byte	0
 9007 006f 00       		.byte	0
 9008 0070 0A       		.uleb128 0xa
 9009 0071 28       		.uleb128 0x28
 9010 0072 00       		.byte	0
 9011 0073 03       		.uleb128 0x3
 9012 0074 08       		.uleb128 0x8
 9013 0075 1C       		.uleb128 0x1c
 9014 0076 0B       		.uleb128 0xb
 9015 0077 00       		.byte	0
 9016 0078 00       		.byte	0
 9017 0079 0B       		.uleb128 0xb
 9018 007a 48       		.uleb128 0x48
 9019 007b 01       		.byte	0x1
 9020 007c 7D       		.uleb128 0x7d
 9021 007d 01       		.uleb128 0x1
 9022 007e 01       		.uleb128 0x1
 9023 007f 13       		.uleb128 0x13
 9024 0080 00       		.byte	0
 9025 0081 00       		.byte	0
 9026 0082 0C       		.uleb128 0xc
 9027 0083 34       		.uleb128 0x34
 9028 0084 00       		.byte	0
 9029 0085 03       		.uleb128 0x3
 9030 0086 08       		.uleb128 0x8
 9031 0087 3A       		.uleb128 0x3a
 9032 0088 21       		.uleb128 0x21
 9033 0089 01       		.sleb128 1
 9034 008a 3B       		.uleb128 0x3b
 9035 008b 0B       		.uleb128 0xb
 9036 008c 39       		.uleb128 0x39
 9037 008d 0B       		.uleb128 0xb
 9038 008e 49       		.uleb128 0x49
 9039 008f 13       		.uleb128 0x13
 9040 0090 02       		.uleb128 0x2
 9041 0091 17       		.uleb128 0x17
 9042 0092 B742     		.uleb128 0x2137
 9043 0094 17       		.uleb128 0x17
 9044 0095 00       		.byte	0
 9045 0096 00       		.byte	0
 9046 0097 0D       		.uleb128 0xd
 9047 0098 48       		.uleb128 0x48
 9048 0099 00       		.byte	0
 9049 009a 7D       		.uleb128 0x7d
 9050 009b 01       		.uleb128 0x1
 9051 009c 7F       		.uleb128 0x7f
 9052 009d 13       		.uleb128 0x13
 9053 009e 00       		.byte	0
 9054 009f 00       		.byte	0
 9055 00a0 0E       		.uleb128 0xe
 9056 00a1 05       		.uleb128 0x5
 9057 00a2 00       		.byte	0
 9058 00a3 03       		.uleb128 0x3
 9059 00a4 0E       		.uleb128 0xe
 9060 00a5 3A       		.uleb128 0x3a
 9061 00a6 21       		.uleb128 0x21
 9062 00a7 01       		.sleb128 1
 9063 00a8 3B       		.uleb128 0x3b
 9064 00a9 0B       		.uleb128 0xb
 9065 00aa 39       		.uleb128 0x39
 9066 00ab 0B       		.uleb128 0xb
 9067 00ac 49       		.uleb128 0x49
 9068 00ad 13       		.uleb128 0x13
 9069 00ae 02       		.uleb128 0x2
 9070 00af 17       		.uleb128 0x17
 9071 00b0 B742     		.uleb128 0x2137
 9072 00b2 17       		.uleb128 0x17
 9073 00b3 00       		.byte	0
 9074 00b4 00       		.byte	0
 9075 00b5 0F       		.uleb128 0xf
 9076 00b6 48       		.uleb128 0x48
 9077 00b7 01       		.byte	0x1
 9078 00b8 7D       		.uleb128 0x7d
 9079 00b9 01       		.uleb128 0x1
 9080 00ba 7F       		.uleb128 0x7f
 9081 00bb 13       		.uleb128 0x13
 9082 00bc 00       		.byte	0
 9083 00bd 00       		.byte	0
 9084 00be 10       		.uleb128 0x10
 9085 00bf 05       		.uleb128 0x5
 9086 00c0 00       		.byte	0
 9087 00c1 03       		.uleb128 0x3
 9088 00c2 0E       		.uleb128 0xe
 9089 00c3 3A       		.uleb128 0x3a
 9090 00c4 21       		.uleb128 0x21
 9091 00c5 01       		.sleb128 1
 9092 00c6 3B       		.uleb128 0x3b
 9093 00c7 05       		.uleb128 0x5
 9094 00c8 39       		.uleb128 0x39
 9095 00c9 0B       		.uleb128 0xb
 9096 00ca 49       		.uleb128 0x49
 9097 00cb 13       		.uleb128 0x13
 9098 00cc 02       		.uleb128 0x2
 9099 00cd 17       		.uleb128 0x17
 9100 00ce B742     		.uleb128 0x2137
 9101 00d0 17       		.uleb128 0x17
 9102 00d1 00       		.byte	0
 9103 00d2 00       		.byte	0
 9104 00d3 11       		.uleb128 0x11
 9105 00d4 34       		.uleb128 0x34
 9106 00d5 00       		.byte	0
 9107 00d6 03       		.uleb128 0x3
 9108 00d7 08       		.uleb128 0x8
 9109 00d8 3A       		.uleb128 0x3a
 9110 00d9 21       		.uleb128 0x21
 9111 00da 01       		.sleb128 1
 9112 00db 3B       		.uleb128 0x3b
 9113 00dc 05       		.uleb128 0x5
 9114 00dd 39       		.uleb128 0x39
 9115 00de 0B       		.uleb128 0xb
 9116 00df 49       		.uleb128 0x49
 9117 00e0 13       		.uleb128 0x13
 9118 00e1 02       		.uleb128 0x2
 9119 00e2 17       		.uleb128 0x17
 9120 00e3 B742     		.uleb128 0x2137
 9121 00e5 17       		.uleb128 0x17
 9122 00e6 00       		.byte	0
 9123 00e7 00       		.byte	0
 9124 00e8 12       		.uleb128 0x12
 9125 00e9 0B       		.uleb128 0xb
 9126 00ea 01       		.byte	0x1
 9127 00eb 11       		.uleb128 0x11
 9128 00ec 01       		.uleb128 0x1
 9129 00ed 12       		.uleb128 0x12
 9130 00ee 07       		.uleb128 0x7
 9131 00ef 00       		.byte	0
 9132 00f0 00       		.byte	0
 9133 00f1 13       		.uleb128 0x13
 9134 00f2 0D       		.uleb128 0xd
 9135 00f3 00       		.byte	0
 9136 00f4 03       		.uleb128 0x3
 9137 00f5 08       		.uleb128 0x8
 9138 00f6 3A       		.uleb128 0x3a
 9139 00f7 21       		.uleb128 0x21
 9140 00f8 08       		.sleb128 8
 9141 00f9 3B       		.uleb128 0x3b
 9142 00fa 05       		.uleb128 0x5
 9143 00fb 39       		.uleb128 0x39
 9144 00fc 0B       		.uleb128 0xb
 9145 00fd 49       		.uleb128 0x49
 9146 00fe 13       		.uleb128 0x13
 9147 00ff 38       		.uleb128 0x38
 9148 0100 05       		.uleb128 0x5
 9149 0101 00       		.byte	0
 9150 0102 00       		.byte	0
 9151 0103 14       		.uleb128 0x14
 9152 0104 24       		.uleb128 0x24
 9153 0105 00       		.byte	0
 9154 0106 0B       		.uleb128 0xb
 9155 0107 0B       		.uleb128 0xb
 9156 0108 3E       		.uleb128 0x3e
 9157 0109 0B       		.uleb128 0xb
 9158 010a 03       		.uleb128 0x3
 9159 010b 08       		.uleb128 0x8
 9160 010c 00       		.byte	0
 9161 010d 00       		.byte	0
 9162 010e 15       		.uleb128 0x15
 9163 010f 05       		.uleb128 0x5
 9164 0110 00       		.byte	0
 9165 0111 31       		.uleb128 0x31
 9166 0112 13       		.uleb128 0x13
 9167 0113 02       		.uleb128 0x2
 9168 0114 17       		.uleb128 0x17
 9169 0115 B742     		.uleb128 0x2137
 9170 0117 17       		.uleb128 0x17
 9171 0118 00       		.byte	0
 9172 0119 00       		.byte	0
 9173 011a 16       		.uleb128 0x16
 9174 011b 34       		.uleb128 0x34
 9175 011c 00       		.byte	0
 9176 011d 03       		.uleb128 0x3
 9177 011e 0E       		.uleb128 0xe
 9178 011f 3A       		.uleb128 0x3a
 9179 0120 21       		.uleb128 0x21
 9180 0121 01       		.sleb128 1
 9181 0122 3B       		.uleb128 0x3b
 9182 0123 0B       		.uleb128 0xb
 9183 0124 39       		.uleb128 0x39
 9184 0125 0B       		.uleb128 0xb
 9185 0126 49       		.uleb128 0x49
 9186 0127 13       		.uleb128 0x13
 9187 0128 02       		.uleb128 0x2
 9188 0129 17       		.uleb128 0x17
 9189 012a B742     		.uleb128 0x2137
 9190 012c 17       		.uleb128 0x17
 9191 012d 00       		.byte	0
 9192 012e 00       		.byte	0
 9193 012f 17       		.uleb128 0x17
 9194 0130 34       		.uleb128 0x34
 9195 0131 00       		.byte	0
 9196 0132 03       		.uleb128 0x3
 9197 0133 0E       		.uleb128 0xe
 9198 0134 3A       		.uleb128 0x3a
 9199 0135 21       		.uleb128 0x21
 9200 0136 01       		.sleb128 1
 9201 0137 3B       		.uleb128 0x3b
 9202 0138 05       		.uleb128 0x5
 9203 0139 39       		.uleb128 0x39
 9204 013a 0B       		.uleb128 0xb
 9205 013b 49       		.uleb128 0x49
 9206 013c 13       		.uleb128 0x13
 9207 013d 02       		.uleb128 0x2
 9208 013e 17       		.uleb128 0x17
 9209 013f B742     		.uleb128 0x2137
 9210 0141 17       		.uleb128 0x17
 9211 0142 00       		.byte	0
 9212 0143 00       		.byte	0
 9213 0144 18       		.uleb128 0x18
 9214 0145 0B       		.uleb128 0xb
 9215 0146 01       		.byte	0x1
 9216 0147 55       		.uleb128 0x55
 9217 0148 17       		.uleb128 0x17
 9218 0149 01       		.uleb128 0x1
 9219 014a 13       		.uleb128 0x13
 9220 014b 00       		.byte	0
 9221 014c 00       		.byte	0
 9222 014d 19       		.uleb128 0x19
 9223 014e 0B       		.uleb128 0xb
 9224 014f 01       		.byte	0x1
 9225 0150 55       		.uleb128 0x55
 9226 0151 17       		.uleb128 0x17
 9227 0152 00       		.byte	0
 9228 0153 00       		.byte	0
 9229 0154 1A       		.uleb128 0x1a
 9230 0155 1D       		.uleb128 0x1d
 9231 0156 01       		.byte	0x1
 9232 0157 31       		.uleb128 0x31
 9233 0158 13       		.uleb128 0x13
 9234 0159 52       		.uleb128 0x52
 9235 015a 01       		.uleb128 0x1
 9236 015b B842     		.uleb128 0x2138
 9237 015d 0B       		.uleb128 0xb
 9238 015e 11       		.uleb128 0x11
 9239 015f 01       		.uleb128 0x1
 9240 0160 12       		.uleb128 0x12
 9241 0161 07       		.uleb128 0x7
 9242 0162 58       		.uleb128 0x58
 9243 0163 21       		.uleb128 0x21
 9244 0164 01       		.sleb128 1
 9245 0165 59       		.uleb128 0x59
 9246 0166 05       		.uleb128 0x5
 9247 0167 57       		.uleb128 0x57
 9248 0168 0B       		.uleb128 0xb
 9249 0169 01       		.uleb128 0x1
 9250 016a 13       		.uleb128 0x13
 9251 016b 00       		.byte	0
 9252 016c 00       		.byte	0
 9253 016d 1B       		.uleb128 0x1b
 9254 016e 13       		.uleb128 0x13
 9255 016f 01       		.byte	0x1
 9256 0170 0B       		.uleb128 0xb
 9257 0171 0B       		.uleb128 0xb
 9258 0172 3A       		.uleb128 0x3a
 9259 0173 0B       		.uleb128 0xb
 9260 0174 3B       		.uleb128 0x3b
 9261 0175 0B       		.uleb128 0xb
 9262 0176 39       		.uleb128 0x39
 9263 0177 21       		.uleb128 0x21
 9264 0178 09       		.sleb128 9
 9265 0179 01       		.uleb128 0x1
 9266 017a 13       		.uleb128 0x13
 9267 017b 00       		.byte	0
 9268 017c 00       		.byte	0
 9269 017d 1C       		.uleb128 0x1c
 9270 017e 2E       		.uleb128 0x2e
 9271 017f 01       		.byte	0x1
 9272 0180 3F       		.uleb128 0x3f
 9273 0181 19       		.uleb128 0x19
 9274 0182 03       		.uleb128 0x3
 9275 0183 08       		.uleb128 0x8
 9276 0184 3A       		.uleb128 0x3a
 9277 0185 21       		.uleb128 0x21
 9278 0186 01       		.sleb128 1
 9279 0187 3B       		.uleb128 0x3b
 9280 0188 0B       		.uleb128 0xb
 9281 0189 39       		.uleb128 0x39
 9282 018a 21       		.uleb128 0x21
 9283 018b 06       		.sleb128 6
 9284 018c 27       		.uleb128 0x27
 9285 018d 19       		.uleb128 0x19
 9286 018e 11       		.uleb128 0x11
 9287 018f 01       		.uleb128 0x1
 9288 0190 12       		.uleb128 0x12
 9289 0191 07       		.uleb128 0x7
 9290 0192 40       		.uleb128 0x40
 9291 0193 18       		.uleb128 0x18
 9292 0194 7C       		.uleb128 0x7c
 9293 0195 19       		.uleb128 0x19
 9294 0196 01       		.uleb128 0x1
 9295 0197 13       		.uleb128 0x13
 9296 0198 00       		.byte	0
 9297 0199 00       		.byte	0
 9298 019a 1D       		.uleb128 0x1d
 9299 019b 01       		.uleb128 0x1
 9300 019c 01       		.byte	0x1
 9301 019d 49       		.uleb128 0x49
 9302 019e 13       		.uleb128 0x13
 9303 019f 01       		.uleb128 0x1
 9304 01a0 13       		.uleb128 0x13
 9305 01a1 00       		.byte	0
 9306 01a2 00       		.byte	0
 9307 01a3 1E       		.uleb128 0x1e
 9308 01a4 21       		.uleb128 0x21
 9309 01a5 00       		.byte	0
 9310 01a6 49       		.uleb128 0x49
 9311 01a7 13       		.uleb128 0x13
 9312 01a8 2F       		.uleb128 0x2f
 9313 01a9 0B       		.uleb128 0xb
 9314 01aa 00       		.byte	0
 9315 01ab 00       		.byte	0
 9316 01ac 1F       		.uleb128 0x1f
 9317 01ad 13       		.uleb128 0x13
 9318 01ae 01       		.byte	0x1
 9319 01af 03       		.uleb128 0x3
 9320 01b0 08       		.uleb128 0x8
 9321 01b1 0B       		.uleb128 0xb
 9322 01b2 0B       		.uleb128 0xb
 9323 01b3 3A       		.uleb128 0x3a
 9324 01b4 0B       		.uleb128 0xb
 9325 01b5 3B       		.uleb128 0x3b
 9326 01b6 05       		.uleb128 0x5
 9327 01b7 39       		.uleb128 0x39
 9328 01b8 21       		.uleb128 0x21
 9329 01b9 10       		.sleb128 16
 9330 01ba 01       		.uleb128 0x1
 9331 01bb 13       		.uleb128 0x13
 9332 01bc 00       		.byte	0
 9333 01bd 00       		.byte	0
 9334 01be 20       		.uleb128 0x20
 9335 01bf 15       		.uleb128 0x15
 9336 01c0 01       		.byte	0x1
 9337 01c1 27       		.uleb128 0x27
 9338 01c2 19       		.uleb128 0x19
 9339 01c3 01       		.uleb128 0x1
 9340 01c4 13       		.uleb128 0x13
 9341 01c5 00       		.byte	0
 9342 01c6 00       		.byte	0
 9343 01c7 21       		.uleb128 0x21
 9344 01c8 13       		.uleb128 0x13
 9345 01c9 01       		.byte	0x1
 9346 01ca 0B       		.uleb128 0xb
 9347 01cb 0B       		.uleb128 0xb
 9348 01cc 3A       		.uleb128 0x3a
 9349 01cd 21       		.uleb128 0x21
 9350 01ce 08       		.sleb128 8
 9351 01cf 3B       		.uleb128 0x3b
 9352 01d0 05       		.uleb128 0x5
 9353 01d1 39       		.uleb128 0x39
 9354 01d2 21       		.uleb128 0x21
 9355 01d3 09       		.sleb128 9
 9356 01d4 01       		.uleb128 0x1
 9357 01d5 13       		.uleb128 0x13
 9358 01d6 00       		.byte	0
 9359 01d7 00       		.byte	0
 9360 01d8 22       		.uleb128 0x22
 9361 01d9 34       		.uleb128 0x34
 9362 01da 00       		.byte	0
 9363 01db 03       		.uleb128 0x3
 9364 01dc 08       		.uleb128 0x8
 9365 01dd 3A       		.uleb128 0x3a
 9366 01de 21       		.uleb128 0x21
 9367 01df 01       		.sleb128 1
 9368 01e0 3B       		.uleb128 0x3b
 9369 01e1 0B       		.uleb128 0xb
 9370 01e2 39       		.uleb128 0x39
 9371 01e3 0B       		.uleb128 0xb
 9372 01e4 49       		.uleb128 0x49
 9373 01e5 13       		.uleb128 0x13
 9374 01e6 02       		.uleb128 0x2
 9375 01e7 18       		.uleb128 0x18
 9376 01e8 00       		.byte	0
 9377 01e9 00       		.byte	0
 9378 01ea 23       		.uleb128 0x23
 9379 01eb 2E       		.uleb128 0x2e
 9380 01ec 01       		.byte	0x1
 9381 01ed 3F       		.uleb128 0x3f
 9382 01ee 19       		.uleb128 0x19
 9383 01ef 03       		.uleb128 0x3
 9384 01f0 08       		.uleb128 0x8
 9385 01f1 3A       		.uleb128 0x3a
 9386 01f2 21       		.uleb128 0x21
 9387 01f3 01       		.sleb128 1
 9388 01f4 3B       		.uleb128 0x3b
 9389 01f5 05       		.uleb128 0x5
 9390 01f6 39       		.uleb128 0x39
 9391 01f7 21       		.uleb128 0x21
 9392 01f8 06       		.sleb128 6
 9393 01f9 27       		.uleb128 0x27
 9394 01fa 19       		.uleb128 0x19
 9395 01fb 11       		.uleb128 0x11
 9396 01fc 01       		.uleb128 0x1
 9397 01fd 12       		.uleb128 0x12
 9398 01fe 07       		.uleb128 0x7
 9399 01ff 40       		.uleb128 0x40
 9400 0200 18       		.uleb128 0x18
 9401 0201 7C       		.uleb128 0x7c
 9402 0202 19       		.uleb128 0x19
 9403 0203 01       		.uleb128 0x1
 9404 0204 13       		.uleb128 0x13
 9405 0205 00       		.byte	0
 9406 0206 00       		.byte	0
 9407 0207 24       		.uleb128 0x24
 9408 0208 34       		.uleb128 0x34
 9409 0209 00       		.byte	0
 9410 020a 03       		.uleb128 0x3
 9411 020b 0E       		.uleb128 0xe
 9412 020c 3A       		.uleb128 0x3a
 9413 020d 21       		.uleb128 0x21
 9414 020e 01       		.sleb128 1
 9415 020f 3B       		.uleb128 0x3b
 9416 0210 0B       		.uleb128 0xb
 9417 0211 39       		.uleb128 0x39
 9418 0212 0B       		.uleb128 0xb
 9419 0213 49       		.uleb128 0x49
 9420 0214 13       		.uleb128 0x13
 9421 0215 02       		.uleb128 0x2
 9422 0216 18       		.uleb128 0x18
 9423 0217 00       		.byte	0
 9424 0218 00       		.byte	0
 9425 0219 25       		.uleb128 0x25
 9426 021a 26       		.uleb128 0x26
 9427 021b 00       		.byte	0
 9428 021c 49       		.uleb128 0x49
 9429 021d 13       		.uleb128 0x13
 9430 021e 00       		.byte	0
 9431 021f 00       		.byte	0
 9432 0220 26       		.uleb128 0x26
 9433 0221 04       		.uleb128 0x4
 9434 0222 01       		.byte	0x1
 9435 0223 3E       		.uleb128 0x3e
 9436 0224 21       		.uleb128 0x21
 9437 0225 07       		.sleb128 7
 9438 0226 0B       		.uleb128 0xb
 9439 0227 21       		.uleb128 0x21
 9440 0228 04       		.sleb128 4
 9441 0229 49       		.uleb128 0x49
 9442 022a 13       		.uleb128 0x13
 9443 022b 3A       		.uleb128 0x3a
 9444 022c 0B       		.uleb128 0xb
 9445 022d 3B       		.uleb128 0x3b
 9446 022e 0B       		.uleb128 0xb
 9447 022f 39       		.uleb128 0x39
 9448 0230 21       		.uleb128 0x21
 9449 0231 0E       		.sleb128 14
 9450 0232 01       		.uleb128 0x1
 9451 0233 13       		.uleb128 0x13
 9452 0234 00       		.byte	0
 9453 0235 00       		.byte	0
 9454 0236 27       		.uleb128 0x27
 9455 0237 0D       		.uleb128 0xd
 9456 0238 00       		.byte	0
 9457 0239 03       		.uleb128 0x3
 9458 023a 0E       		.uleb128 0xe
 9459 023b 3A       		.uleb128 0x3a
 9460 023c 21       		.uleb128 0x21
 9461 023d 08       		.sleb128 8
 9462 023e 3B       		.uleb128 0x3b
 9463 023f 05       		.uleb128 0x5
 9464 0240 39       		.uleb128 0x39
 9465 0241 0B       		.uleb128 0xb
 9466 0242 49       		.uleb128 0x49
 9467 0243 13       		.uleb128 0x13
 9468 0244 38       		.uleb128 0x38
 9469 0245 0B       		.uleb128 0xb
 9470 0246 00       		.byte	0
 9471 0247 00       		.byte	0
 9472 0248 28       		.uleb128 0x28
 9473 0249 04       		.uleb128 0x4
 9474 024a 01       		.byte	0x1
 9475 024b 3E       		.uleb128 0x3e
 9476 024c 21       		.uleb128 0x21
 9477 024d 07       		.sleb128 7
 9478 024e 0B       		.uleb128 0xb
 9479 024f 21       		.uleb128 0x21
 9480 0250 04       		.sleb128 4
 9481 0251 49       		.uleb128 0x49
 9482 0252 13       		.uleb128 0x13
 9483 0253 3A       		.uleb128 0x3a
 9484 0254 21       		.uleb128 0x21
 9485 0255 08       		.sleb128 8
 9486 0256 3B       		.uleb128 0x3b
 9487 0257 05       		.uleb128 0x5
 9488 0258 39       		.uleb128 0x39
 9489 0259 21       		.uleb128 0x21
 9490 025a 0E       		.sleb128 14
 9491 025b 01       		.uleb128 0x1
 9492 025c 13       		.uleb128 0x13
 9493 025d 00       		.byte	0
 9494 025e 00       		.byte	0
 9495 025f 29       		.uleb128 0x29
 9496 0260 18       		.uleb128 0x18
 9497 0261 00       		.byte	0
 9498 0262 00       		.byte	0
 9499 0263 00       		.byte	0
 9500 0264 2A       		.uleb128 0x2a
 9501 0265 2E       		.uleb128 0x2e
 9502 0266 01       		.byte	0x1
 9503 0267 3F       		.uleb128 0x3f
 9504 0268 19       		.uleb128 0x19
 9505 0269 03       		.uleb128 0x3
 9506 026a 08       		.uleb128 0x8
 9507 026b 3A       		.uleb128 0x3a
 9508 026c 21       		.uleb128 0x21
 9509 026d 01       		.sleb128 1
 9510 026e 3B       		.uleb128 0x3b
 9511 026f 05       		.uleb128 0x5
 9512 0270 39       		.uleb128 0x39
 9513 0271 21       		.uleb128 0x21
 9514 0272 06       		.sleb128 6
 9515 0273 27       		.uleb128 0x27
 9516 0274 19       		.uleb128 0x19
 9517 0275 11       		.uleb128 0x11
 9518 0276 01       		.uleb128 0x1
 9519 0277 12       		.uleb128 0x12
 9520 0278 07       		.uleb128 0x7
 9521 0279 40       		.uleb128 0x40
 9522 027a 18       		.uleb128 0x18
 9523 027b 7A       		.uleb128 0x7a
 9524 027c 19       		.uleb128 0x19
 9525 027d 01       		.uleb128 0x1
 9526 027e 13       		.uleb128 0x13
 9527 027f 00       		.byte	0
 9528 0280 00       		.byte	0
 9529 0281 2B       		.uleb128 0x2b
 9530 0282 2E       		.uleb128 0x2e
 9531 0283 01       		.byte	0x1
 9532 0284 3F       		.uleb128 0x3f
 9533 0285 19       		.uleb128 0x19
 9534 0286 03       		.uleb128 0x3
 9535 0287 08       		.uleb128 0x8
 9536 0288 3A       		.uleb128 0x3a
 9537 0289 21       		.uleb128 0x21
 9538 028a 01       		.sleb128 1
 9539 028b 3B       		.uleb128 0x3b
 9540 028c 0B       		.uleb128 0xb
 9541 028d 39       		.uleb128 0x39
 9542 028e 21       		.uleb128 0x21
 9543 028f 06       		.sleb128 6
 9544 0290 27       		.uleb128 0x27
 9545 0291 19       		.uleb128 0x19
 9546 0292 11       		.uleb128 0x11
 9547 0293 01       		.uleb128 0x1
 9548 0294 12       		.uleb128 0x12
 9549 0295 07       		.uleb128 0x7
 9550 0296 40       		.uleb128 0x40
 9551 0297 18       		.uleb128 0x18
 9552 0298 7A       		.uleb128 0x7a
 9553 0299 19       		.uleb128 0x19
 9554 029a 01       		.uleb128 0x1
 9555 029b 13       		.uleb128 0x13
 9556 029c 00       		.byte	0
 9557 029d 00       		.byte	0
 9558 029e 2C       		.uleb128 0x2c
 9559 029f 05       		.uleb128 0x5
 9560 02a0 00       		.byte	0
 9561 02a1 03       		.uleb128 0x3
 9562 02a2 08       		.uleb128 0x8
 9563 02a3 3A       		.uleb128 0x3a
 9564 02a4 21       		.uleb128 0x21
 9565 02a5 01       		.sleb128 1
 9566 02a6 3B       		.uleb128 0x3b
 9567 02a7 0B       		.uleb128 0xb
 9568 02a8 39       		.uleb128 0x39
 9569 02a9 0B       		.uleb128 0xb
 9570 02aa 49       		.uleb128 0x49
 9571 02ab 13       		.uleb128 0x13
 9572 02ac 00       		.byte	0
 9573 02ad 00       		.byte	0
 9574 02ae 2D       		.uleb128 0x2d
 9575 02af 0D       		.uleb128 0xd
 9576 02b0 00       		.byte	0
 9577 02b1 03       		.uleb128 0x3
 9578 02b2 0E       		.uleb128 0xe
 9579 02b3 3A       		.uleb128 0x3a
 9580 02b4 0B       		.uleb128 0xb
 9581 02b5 3B       		.uleb128 0x3b
 9582 02b6 0B       		.uleb128 0xb
 9583 02b7 39       		.uleb128 0x39
 9584 02b8 21       		.uleb128 0x21
 9585 02b9 25       		.sleb128 37
 9586 02ba 49       		.uleb128 0x49
 9587 02bb 13       		.uleb128 0x13
 9588 02bc 38       		.uleb128 0x38
 9589 02bd 0B       		.uleb128 0xb
 9590 02be 00       		.byte	0
 9591 02bf 00       		.byte	0
 9592 02c0 2E       		.uleb128 0x2e
 9593 02c1 13       		.uleb128 0x13
 9594 02c2 01       		.byte	0x1
 9595 02c3 03       		.uleb128 0x3
 9596 02c4 08       		.uleb128 0x8
 9597 02c5 0B       		.uleb128 0xb
 9598 02c6 0B       		.uleb128 0xb
 9599 02c7 3A       		.uleb128 0x3a
 9600 02c8 0B       		.uleb128 0xb
 9601 02c9 3B       		.uleb128 0x3b
 9602 02ca 0B       		.uleb128 0xb
 9603 02cb 39       		.uleb128 0x39
 9604 02cc 21       		.uleb128 0x21
 9605 02cd 10       		.sleb128 16
 9606 02ce 01       		.uleb128 0x1
 9607 02cf 13       		.uleb128 0x13
 9608 02d0 00       		.byte	0
 9609 02d1 00       		.byte	0
 9610 02d2 2F       		.uleb128 0x2f
 9611 02d3 2E       		.uleb128 0x2e
 9612 02d4 01       		.byte	0x1
 9613 02d5 3F       		.uleb128 0x3f
 9614 02d6 19       		.uleb128 0x19
 9615 02d7 03       		.uleb128 0x3
 9616 02d8 08       		.uleb128 0x8
 9617 02d9 3A       		.uleb128 0x3a
 9618 02da 21       		.uleb128 0x21
 9619 02db 0A       		.sleb128 10
 9620 02dc 3B       		.uleb128 0x3b
 9621 02dd 05       		.uleb128 0x5
 9622 02de 39       		.uleb128 0x39
 9623 02df 21       		.uleb128 0x21
 9624 02e0 01       		.sleb128 1
 9625 02e1 27       		.uleb128 0x27
 9626 02e2 19       		.uleb128 0x19
 9627 02e3 49       		.uleb128 0x49
 9628 02e4 13       		.uleb128 0x13
 9629 02e5 3C       		.uleb128 0x3c
 9630 02e6 19       		.uleb128 0x19
 9631 02e7 01       		.uleb128 0x1
 9632 02e8 13       		.uleb128 0x13
 9633 02e9 00       		.byte	0
 9634 02ea 00       		.byte	0
 9635 02eb 30       		.uleb128 0x30
 9636 02ec 05       		.uleb128 0x5
 9637 02ed 00       		.byte	0
 9638 02ee 03       		.uleb128 0x3
 9639 02ef 08       		.uleb128 0x8
 9640 02f0 3A       		.uleb128 0x3a
 9641 02f1 21       		.uleb128 0x21
 9642 02f2 01       		.sleb128 1
 9643 02f3 3B       		.uleb128 0x3b
 9644 02f4 05       		.uleb128 0x5
 9645 02f5 39       		.uleb128 0x39
 9646 02f6 0B       		.uleb128 0xb
 9647 02f7 49       		.uleb128 0x49
 9648 02f8 13       		.uleb128 0x13
 9649 02f9 02       		.uleb128 0x2
 9650 02fa 17       		.uleb128 0x17
 9651 02fb B742     		.uleb128 0x2137
 9652 02fd 17       		.uleb128 0x17
 9653 02fe 00       		.byte	0
 9654 02ff 00       		.byte	0
 9655 0300 31       		.uleb128 0x31
 9656 0301 34       		.uleb128 0x34
 9657 0302 00       		.byte	0
 9658 0303 03       		.uleb128 0x3
 9659 0304 0E       		.uleb128 0xe
 9660 0305 3A       		.uleb128 0x3a
 9661 0306 21       		.uleb128 0x21
 9662 0307 01       		.sleb128 1
 9663 0308 3B       		.uleb128 0x3b
 9664 0309 21       		.uleb128 0x21
 9665 030a 9103     		.sleb128 401
 9666 030c 39       		.uleb128 0x39
 9667 030d 0B       		.uleb128 0xb
 9668 030e 49       		.uleb128 0x49
 9669 030f 13       		.uleb128 0x13
 9670 0310 02       		.uleb128 0x2
 9671 0311 18       		.uleb128 0x18
 9672 0312 00       		.byte	0
 9673 0313 00       		.byte	0
 9674 0314 32       		.uleb128 0x32
 9675 0315 34       		.uleb128 0x34
 9676 0316 00       		.byte	0
 9677 0317 31       		.uleb128 0x31
 9678 0318 13       		.uleb128 0x13
 9679 0319 02       		.uleb128 0x2
 9680 031a 17       		.uleb128 0x17
 9681 031b B742     		.uleb128 0x2137
 9682 031d 17       		.uleb128 0x17
 9683 031e 00       		.byte	0
 9684 031f 00       		.byte	0
 9685 0320 33       		.uleb128 0x33
 9686 0321 0B       		.uleb128 0xb
 9687 0322 01       		.byte	0x1
 9688 0323 11       		.uleb128 0x11
 9689 0324 01       		.uleb128 0x1
 9690 0325 12       		.uleb128 0x12
 9691 0326 07       		.uleb128 0x7
 9692 0327 01       		.uleb128 0x1
 9693 0328 13       		.uleb128 0x13
 9694 0329 00       		.byte	0
 9695 032a 00       		.byte	0
 9696 032b 34       		.uleb128 0x34
 9697 032c 48       		.uleb128 0x48
 9698 032d 01       		.byte	0x1
 9699 032e 7D       		.uleb128 0x7d
 9700 032f 01       		.uleb128 0x1
 9701 0330 00       		.byte	0
 9702 0331 00       		.byte	0
 9703 0332 35       		.uleb128 0x35
 9704 0333 05       		.uleb128 0x5
 9705 0334 00       		.byte	0
 9706 0335 03       		.uleb128 0x3
 9707 0336 08       		.uleb128 0x8
 9708 0337 3A       		.uleb128 0x3a
 9709 0338 21       		.uleb128 0x21
 9710 0339 01       		.sleb128 1
 9711 033a 3B       		.uleb128 0x3b
 9712 033b 0B       		.uleb128 0xb
 9713 033c 39       		.uleb128 0x39
 9714 033d 0B       		.uleb128 0xb
 9715 033e 49       		.uleb128 0x49
 9716 033f 13       		.uleb128 0x13
 9717 0340 02       		.uleb128 0x2
 9718 0341 17       		.uleb128 0x17
 9719 0342 B742     		.uleb128 0x2137
 9720 0344 17       		.uleb128 0x17
 9721 0345 00       		.byte	0
 9722 0346 00       		.byte	0
 9723 0347 36       		.uleb128 0x36
 9724 0348 11       		.uleb128 0x11
 9725 0349 01       		.byte	0x1
 9726 034a 25       		.uleb128 0x25
 9727 034b 08       		.uleb128 0x8
 9728 034c 13       		.uleb128 0x13
 9729 034d 0B       		.uleb128 0xb
 9730 034e 03       		.uleb128 0x3
 9731 034f 1F       		.uleb128 0x1f
 9732 0350 1B       		.uleb128 0x1b
 9733 0351 1F       		.uleb128 0x1f
 9734 0352 11       		.uleb128 0x11
 9735 0353 01       		.uleb128 0x1
 9736 0354 12       		.uleb128 0x12
 9737 0355 07       		.uleb128 0x7
 9738 0356 10       		.uleb128 0x10
 9739 0357 17       		.uleb128 0x17
 9740 0358 79       		.uleb128 0x79
 9741 0359 17       		.uleb128 0x17
 9742 035a 00       		.byte	0
 9743 035b 00       		.byte	0
 9744 035c 37       		.uleb128 0x37
 9745 035d 16       		.uleb128 0x16
 9746 035e 00       		.byte	0
 9747 035f 03       		.uleb128 0x3
 9748 0360 08       		.uleb128 0x8
 9749 0361 3A       		.uleb128 0x3a
 9750 0362 0B       		.uleb128 0xb
 9751 0363 3B       		.uleb128 0x3b
 9752 0364 0B       		.uleb128 0xb
 9753 0365 39       		.uleb128 0x39
 9754 0366 0B       		.uleb128 0xb
 9755 0367 00       		.byte	0
 9756 0368 00       		.byte	0
 9757 0369 38       		.uleb128 0x38
 9758 036a 35       		.uleb128 0x35
 9759 036b 00       		.byte	0
 9760 036c 49       		.uleb128 0x49
 9761 036d 13       		.uleb128 0x13
 9762 036e 00       		.byte	0
 9763 036f 00       		.byte	0
 9764 0370 39       		.uleb128 0x39
 9765 0371 13       		.uleb128 0x13
 9766 0372 01       		.byte	0x1
 9767 0373 03       		.uleb128 0x3
 9768 0374 08       		.uleb128 0x8
 9769 0375 0B       		.uleb128 0xb
 9770 0376 05       		.uleb128 0x5
 9771 0377 3A       		.uleb128 0x3a
 9772 0378 0B       		.uleb128 0xb
 9773 0379 3B       		.uleb128 0x3b
 9774 037a 05       		.uleb128 0x5
 9775 037b 39       		.uleb128 0x39
 9776 037c 0B       		.uleb128 0xb
 9777 037d 01       		.uleb128 0x1
 9778 037e 13       		.uleb128 0x13
 9779 037f 00       		.byte	0
 9780 0380 00       		.byte	0
 9781 0381 3A       		.uleb128 0x3a
 9782 0382 2E       		.uleb128 0x2e
 9783 0383 01       		.byte	0x1
 9784 0384 3F       		.uleb128 0x3f
 9785 0385 19       		.uleb128 0x19
 9786 0386 03       		.uleb128 0x3
 9787 0387 08       		.uleb128 0x8
 9788 0388 3A       		.uleb128 0x3a
 9789 0389 0B       		.uleb128 0xb
 9790 038a 3B       		.uleb128 0x3b
 9791 038b 0B       		.uleb128 0xb
 9792 038c 39       		.uleb128 0x39
 9793 038d 0B       		.uleb128 0xb
 9794 038e 27       		.uleb128 0x27
 9795 038f 19       		.uleb128 0x19
 9796 0390 3C       		.uleb128 0x3c
 9797 0391 19       		.uleb128 0x19
 9798 0392 01       		.uleb128 0x1
 9799 0393 13       		.uleb128 0x13
 9800 0394 00       		.byte	0
 9801 0395 00       		.byte	0
 9802 0396 3B       		.uleb128 0x3b
 9803 0397 2E       		.uleb128 0x2e
 9804 0398 01       		.byte	0x1
 9805 0399 3F       		.uleb128 0x3f
 9806 039a 19       		.uleb128 0x19
 9807 039b 03       		.uleb128 0x3
 9808 039c 08       		.uleb128 0x8
 9809 039d 3A       		.uleb128 0x3a
 9810 039e 0B       		.uleb128 0xb
 9811 039f 3B       		.uleb128 0x3b
 9812 03a0 05       		.uleb128 0x5
 9813 03a1 39       		.uleb128 0x39
 9814 03a2 0B       		.uleb128 0xb
 9815 03a3 27       		.uleb128 0x27
 9816 03a4 19       		.uleb128 0x19
 9817 03a5 49       		.uleb128 0x49
 9818 03a6 13       		.uleb128 0x13
 9819 03a7 11       		.uleb128 0x11
 9820 03a8 01       		.uleb128 0x1
 9821 03a9 12       		.uleb128 0x12
 9822 03aa 07       		.uleb128 0x7
 9823 03ab 40       		.uleb128 0x40
 9824 03ac 18       		.uleb128 0x18
 9825 03ad 7A       		.uleb128 0x7a
 9826 03ae 19       		.uleb128 0x19
 9827 03af 01       		.uleb128 0x1
 9828 03b0 13       		.uleb128 0x13
 9829 03b1 00       		.byte	0
 9830 03b2 00       		.byte	0
 9831 03b3 3C       		.uleb128 0x3c
 9832 03b4 34       		.uleb128 0x34
 9833 03b5 00       		.byte	0
 9834 03b6 03       		.uleb128 0x3
 9835 03b7 08       		.uleb128 0x8
 9836 03b8 3A       		.uleb128 0x3a
 9837 03b9 0B       		.uleb128 0xb
 9838 03ba 3B       		.uleb128 0x3b
 9839 03bb 05       		.uleb128 0x5
 9840 03bc 39       		.uleb128 0x39
 9841 03bd 0B       		.uleb128 0xb
 9842 03be 49       		.uleb128 0x49
 9843 03bf 13       		.uleb128 0x13
 9844 03c0 02       		.uleb128 0x2
 9845 03c1 18       		.uleb128 0x18
 9846 03c2 00       		.byte	0
 9847 03c3 00       		.byte	0
 9848 03c4 3D       		.uleb128 0x3d
 9849 03c5 34       		.uleb128 0x34
 9850 03c6 00       		.byte	0
 9851 03c7 03       		.uleb128 0x3
 9852 03c8 08       		.uleb128 0x8
 9853 03c9 3A       		.uleb128 0x3a
 9854 03ca 0B       		.uleb128 0xb
 9855 03cb 3B       		.uleb128 0x3b
 9856 03cc 05       		.uleb128 0x5
 9857 03cd 39       		.uleb128 0x39
 9858 03ce 0B       		.uleb128 0xb
 9859 03cf 49       		.uleb128 0x49
 9860 03d0 13       		.uleb128 0x13
 9861 03d1 1C       		.uleb128 0x1c
 9862 03d2 0B       		.uleb128 0xb
 9863 03d3 00       		.byte	0
 9864 03d4 00       		.byte	0
 9865 03d5 3E       		.uleb128 0x3e
 9866 03d6 05       		.uleb128 0x5
 9867 03d7 00       		.byte	0
 9868 03d8 03       		.uleb128 0x3
 9869 03d9 08       		.uleb128 0x8
 9870 03da 3A       		.uleb128 0x3a
 9871 03db 0B       		.uleb128 0xb
 9872 03dc 3B       		.uleb128 0x3b
 9873 03dd 0B       		.uleb128 0xb
 9874 03de 39       		.uleb128 0x39
 9875 03df 0B       		.uleb128 0xb
 9876 03e0 49       		.uleb128 0x49
 9877 03e1 13       		.uleb128 0x13
 9878 03e2 02       		.uleb128 0x2
 9879 03e3 18       		.uleb128 0x18
 9880 03e4 00       		.byte	0
 9881 03e5 00       		.byte	0
 9882 03e6 3F       		.uleb128 0x3f
 9883 03e7 34       		.uleb128 0x34
 9884 03e8 00       		.byte	0
 9885 03e9 03       		.uleb128 0x3
 9886 03ea 08       		.uleb128 0x8
 9887 03eb 3A       		.uleb128 0x3a
 9888 03ec 0B       		.uleb128 0xb
 9889 03ed 3B       		.uleb128 0x3b
 9890 03ee 0B       		.uleb128 0xb
 9891 03ef 39       		.uleb128 0x39
 9892 03f0 0B       		.uleb128 0xb
 9893 03f1 49       		.uleb128 0x49
 9894 03f2 13       		.uleb128 0x13
 9895 03f3 1C       		.uleb128 0x1c
 9896 03f4 0B       		.uleb128 0xb
 9897 03f5 00       		.byte	0
 9898 03f6 00       		.byte	0
 9899 03f7 40       		.uleb128 0x40
 9900 03f8 2E       		.uleb128 0x2e
 9901 03f9 01       		.byte	0x1
 9902 03fa 3F       		.uleb128 0x3f
 9903 03fb 19       		.uleb128 0x19
 9904 03fc 03       		.uleb128 0x3
 9905 03fd 08       		.uleb128 0x8
 9906 03fe 3A       		.uleb128 0x3a
 9907 03ff 0B       		.uleb128 0xb
 9908 0400 3B       		.uleb128 0x3b
 9909 0401 0B       		.uleb128 0xb
 9910 0402 39       		.uleb128 0x39
 9911 0403 0B       		.uleb128 0xb
 9912 0404 49       		.uleb128 0x49
 9913 0405 13       		.uleb128 0x13
 9914 0406 11       		.uleb128 0x11
 9915 0407 01       		.uleb128 0x1
 9916 0408 12       		.uleb128 0x12
 9917 0409 07       		.uleb128 0x7
 9918 040a 40       		.uleb128 0x40
 9919 040b 18       		.uleb128 0x18
 9920 040c 7A       		.uleb128 0x7a
 9921 040d 19       		.uleb128 0x19
 9922 040e 01       		.uleb128 0x1
 9923 040f 13       		.uleb128 0x13
 9924 0410 00       		.byte	0
 9925 0411 00       		.byte	0
 9926 0412 41       		.uleb128 0x41
 9927 0413 05       		.uleb128 0x5
 9928 0414 00       		.byte	0
 9929 0415 03       		.uleb128 0x3
 9930 0416 0E       		.uleb128 0xe
 9931 0417 3A       		.uleb128 0x3a
 9932 0418 0B       		.uleb128 0xb
 9933 0419 3B       		.uleb128 0x3b
 9934 041a 0B       		.uleb128 0xb
 9935 041b 39       		.uleb128 0x39
 9936 041c 0B       		.uleb128 0xb
 9937 041d 49       		.uleb128 0x49
 9938 041e 13       		.uleb128 0x13
 9939 041f 02       		.uleb128 0x2
 9940 0420 18       		.uleb128 0x18
 9941 0421 00       		.byte	0
 9942 0422 00       		.byte	0
 9943 0423 42       		.uleb128 0x42
 9944 0424 2E       		.uleb128 0x2e
 9945 0425 00       		.byte	0
 9946 0426 3F       		.uleb128 0x3f
 9947 0427 19       		.uleb128 0x19
 9948 0428 03       		.uleb128 0x3
 9949 0429 08       		.uleb128 0x8
 9950 042a 3A       		.uleb128 0x3a
 9951 042b 0B       		.uleb128 0xb
 9952 042c 3B       		.uleb128 0x3b
 9953 042d 0B       		.uleb128 0xb
 9954 042e 39       		.uleb128 0x39
 9955 042f 0B       		.uleb128 0xb
 9956 0430 49       		.uleb128 0x49
 9957 0431 13       		.uleb128 0x13
 9958 0432 11       		.uleb128 0x11
 9959 0433 01       		.uleb128 0x1
 9960 0434 12       		.uleb128 0x12
 9961 0435 07       		.uleb128 0x7
 9962 0436 40       		.uleb128 0x40
 9963 0437 18       		.uleb128 0x18
 9964 0438 7A       		.uleb128 0x7a
 9965 0439 19       		.uleb128 0x19
 9966 043a 00       		.byte	0
 9967 043b 00       		.byte	0
 9968 043c 43       		.uleb128 0x43
 9969 043d 2E       		.uleb128 0x2e
 9970 043e 01       		.byte	0x1
 9971 043f 3F       		.uleb128 0x3f
 9972 0440 19       		.uleb128 0x19
 9973 0441 03       		.uleb128 0x3
 9974 0442 08       		.uleb128 0x8
 9975 0443 3A       		.uleb128 0x3a
 9976 0444 0B       		.uleb128 0xb
 9977 0445 3B       		.uleb128 0x3b
 9978 0446 0B       		.uleb128 0xb
 9979 0447 39       		.uleb128 0x39
 9980 0448 0B       		.uleb128 0xb
 9981 0449 27       		.uleb128 0x27
 9982 044a 19       		.uleb128 0x19
 9983 044b 49       		.uleb128 0x49
 9984 044c 13       		.uleb128 0x13
 9985 044d 11       		.uleb128 0x11
 9986 044e 01       		.uleb128 0x1
 9987 044f 12       		.uleb128 0x12
 9988 0450 07       		.uleb128 0x7
 9989 0451 40       		.uleb128 0x40
 9990 0452 18       		.uleb128 0x18
 9991 0453 7A       		.uleb128 0x7a
 9992 0454 19       		.uleb128 0x19
 9993 0455 01       		.uleb128 0x1
 9994 0456 13       		.uleb128 0x13
 9995 0457 00       		.byte	0
 9996 0458 00       		.byte	0
 9997 0459 44       		.uleb128 0x44
 9998 045a 2E       		.uleb128 0x2e
 9999 045b 01       		.byte	0x1
 10000 045c 03       		.uleb128 0x3
 10001 045d 08       		.uleb128 0x8
 10002 045e 3A       		.uleb128 0x3a
 10003 045f 0B       		.uleb128 0xb
 10004 0460 3B       		.uleb128 0x3b
 10005 0461 0B       		.uleb128 0xb
 10006 0462 39       		.uleb128 0x39
 10007 0463 0B       		.uleb128 0xb
 10008 0464 27       		.uleb128 0x27
 10009 0465 19       		.uleb128 0x19
 10010 0466 49       		.uleb128 0x49
 10011 0467 13       		.uleb128 0x13
 10012 0468 20       		.uleb128 0x20
 10013 0469 0B       		.uleb128 0xb
 10014 046a 01       		.uleb128 0x1
 10015 046b 13       		.uleb128 0x13
 10016 046c 00       		.byte	0
 10017 046d 00       		.byte	0
 10018 046e 45       		.uleb128 0x45
 10019 046f 34       		.uleb128 0x34
 10020 0470 00       		.byte	0
 10021 0471 03       		.uleb128 0x3
 10022 0472 08       		.uleb128 0x8
 10023 0473 3A       		.uleb128 0x3a
 10024 0474 0B       		.uleb128 0xb
 10025 0475 3B       		.uleb128 0x3b
 10026 0476 0B       		.uleb128 0xb
 10027 0477 39       		.uleb128 0x39
 10028 0478 0B       		.uleb128 0xb
 10029 0479 49       		.uleb128 0x49
 10030 047a 13       		.uleb128 0x13
 10031 047b 00       		.byte	0
 10032 047c 00       		.byte	0
 10033 047d 46       		.uleb128 0x46
 10034 047e 2E       		.uleb128 0x2e
 10035 047f 01       		.byte	0x1
 10036 0480 03       		.uleb128 0x3
 10037 0481 08       		.uleb128 0x8
 10038 0482 3A       		.uleb128 0x3a
 10039 0483 0B       		.uleb128 0xb
 10040 0484 3B       		.uleb128 0x3b
 10041 0485 0B       		.uleb128 0xb
 10042 0486 39       		.uleb128 0x39
 10043 0487 0B       		.uleb128 0xb
 10044 0488 27       		.uleb128 0x27
 10045 0489 19       		.uleb128 0x19
 10046 048a 20       		.uleb128 0x20
 10047 048b 0B       		.uleb128 0xb
 10048 048c 01       		.uleb128 0x1
 10049 048d 13       		.uleb128 0x13
 10050 048e 00       		.byte	0
 10051 048f 00       		.byte	0
 10052 0490 47       		.uleb128 0x47
 10053 0491 2E       		.uleb128 0x2e
 10054 0492 01       		.byte	0x1
 10055 0493 3F       		.uleb128 0x3f
 10056 0494 19       		.uleb128 0x19
 10057 0495 03       		.uleb128 0x3
 10058 0496 08       		.uleb128 0x8
 10059 0497 3A       		.uleb128 0x3a
 10060 0498 0B       		.uleb128 0xb
 10061 0499 3B       		.uleb128 0x3b
 10062 049a 0B       		.uleb128 0xb
 10063 049b 39       		.uleb128 0x39
 10064 049c 0B       		.uleb128 0xb
 10065 049d 27       		.uleb128 0x27
 10066 049e 19       		.uleb128 0x19
 10067 049f 49       		.uleb128 0x49
 10068 04a0 13       		.uleb128 0x13
 10069 04a1 11       		.uleb128 0x11
 10070 04a2 01       		.uleb128 0x1
 10071 04a3 12       		.uleb128 0x12
 10072 04a4 07       		.uleb128 0x7
 10073 04a5 40       		.uleb128 0x40
 10074 04a6 18       		.uleb128 0x18
 10075 04a7 7A       		.uleb128 0x7a
 10076 04a8 19       		.uleb128 0x19
 10077 04a9 00       		.byte	0
 10078 04aa 00       		.byte	0
 10079 04ab 00       		.byte	0
 10080              		.section	.debug_loclists,"dr"
 10081 0000 230B0000 		.long	.Ldebug_loc3-.Ldebug_loc2
 10082              	.Ldebug_loc2:
 10083 0004 0500     		.word	0x5
 10084 0006 08       		.byte	0x8
 10085 0007 00       		.byte	0
 10086 0008 00000000 		.long	0
 10087              	.Ldebug_loc0:
 10088              	.LVUS142:
 10089 000c 00       		.uleb128 0
 10090 000d 00       		.uleb128 .LVU590
 10091 000e 00       		.uleb128 .LVU590
 10092 000f 00       		.uleb128 0
 10093              	.LLST142:
 10094 0010 04       		.byte	0x4
 10095 0011 CE1A     		.uleb128 .LVL325-.Ltext0
 10096 0013 DB1A     		.uleb128 .LVL326-1-.Ltext0
 10097 0015 01       		.uleb128 0x1
 10098 0016 52       		.byte	0x52
 10099 0017 04       		.byte	0x4
 10100 0018 DB1A     		.uleb128 .LVL326-1-.Ltext0
 10101 001a B21F     		.uleb128 .LFE23-.Ltext0
 10102 001c 04       		.uleb128 0x4
 10103 001d A3       		.byte	0xa3
 10104 001e 01       		.uleb128 0x1
 10105 001f 52       		.byte	0x52
 10106 0020 9F       		.byte	0x9f
 10107 0021 00       		.byte	0
 10108              	.LVUS143:
 10109 0022 00       		.uleb128 0
 10110 0023 00       		.uleb128 .LVU590
 10111 0024 00       		.uleb128 .LVU590
 10112 0025 00       		.uleb128 .LVU624
 10113 0026 00       		.uleb128 .LVU624
 10114 0027 00       		.uleb128 .LVU625
 10115 0028 00       		.uleb128 .LVU625
 10116 0029 00       		.uleb128 0
 10117              	.LLST143:
 10118 002a 04       		.byte	0x4
 10119 002b CE1A     		.uleb128 .LVL325-.Ltext0
 10120 002d DB1A     		.uleb128 .LVL326-1-.Ltext0
 10121 002f 01       		.uleb128 0x1
 10122 0030 51       		.byte	0x51
 10123 0031 04       		.byte	0x4
 10124 0032 DB1A     		.uleb128 .LVL326-1-.Ltext0
 10125 0034 A21F     		.uleb128 .LVL356-.Ltext0
 10126 0036 01       		.uleb128 0x1
 10127 0037 53       		.byte	0x53
 10128 0038 04       		.byte	0x4
 10129 0039 A21F     		.uleb128 .LVL356-.Ltext0
 10130 003b A41F     		.uleb128 .LVL357-.Ltext0
 10131 003d 04       		.uleb128 0x4
 10132 003e A3       		.byte	0xa3
 10133 003f 01       		.uleb128 0x1
 10134 0040 51       		.byte	0x51
 10135 0041 9F       		.byte	0x9f
 10136 0042 04       		.byte	0x4
 10137 0043 A41F     		.uleb128 .LVL357-.Ltext0
 10138 0045 B21F     		.uleb128 .LFE23-.Ltext0
 10139 0047 01       		.uleb128 0x1
 10140 0048 53       		.byte	0x53
 10141 0049 00       		.byte	0
 10142              	.LVUS144:
 10143 004a 00       		.uleb128 .LVU593
 10144 004b 00       		.uleb128 .LVU597
 10145 004c 00       		.uleb128 .LVU597
 10146 004d 00       		.uleb128 .LVU599
 10147 004e 00       		.uleb128 .LVU625
 10148 004f 00       		.uleb128 .LVU626
 10149 0050 00       		.uleb128 .LVU626
 10150 0051 00       		.uleb128 0
 10151              	.LLST144:
 10152 0052 04       		.byte	0x4
 10153 0053 FB1A     		.uleb128 .LVL328-.Ltext0
 10154 0055 8B1B     		.uleb128 .LVL330-1-.Ltext0
 10155 0057 01       		.uleb128 0x1
 10156 0058 50       		.byte	0x50
 10157 0059 04       		.byte	0x4
 10158 005a 8B1B     		.uleb128 .LVL330-1-.Ltext0
 10159 005c B71B     		.uleb128 .LVL332-.Ltext0
 10160 005e 01       		.uleb128 0x1
 10161 005f 54       		.byte	0x54
 10162 0060 04       		.byte	0x4
 10163 0061 A41F     		.uleb128 .LVL357-.Ltext0
 10164 0063 AF1F     		.uleb128 .LVL358-1-.Ltext0
 10165 0065 01       		.uleb128 0x1
 10166 0066 50       		.byte	0x50
 10167 0067 04       		.byte	0x4
 10168 0068 AF1F     		.uleb128 .LVL358-1-.Ltext0
 10169 006a B21F     		.uleb128 .LFE23-.Ltext0
 10170 006c 01       		.uleb128 0x1
 10171 006d 54       		.byte	0x54
 10172 006e 00       		.byte	0
 10173              	.LVUS145:
 10174 006f 01       		.uleb128 .LVU596
 10175 0070 00       		.uleb128 .LVU623
 10176              	.LLST145:
 10177 0071 04       		.byte	0x4
 10178 0072 841B     		.uleb128 .LVL329-.Ltext0
 10179 0074 9A1F     		.uleb128 .LVL355-.Ltext0
 10180 0076 06       		.uleb128 0x6
 10181 0077 0C       		.byte	0xc
 10182 0078 80969800 		.long	0x989680
 10183 007c 9F       		.byte	0x9f
 10184 007d 00       		.byte	0
 10185              	.LVUS133:
 10186 007e 00       		.uleb128 0
 10187 007f 00       		.uleb128 .LVU551
 10188 0080 00       		.uleb128 .LVU551
 10189 0081 00       		.uleb128 0
 10190              	.LLST133:
 10191 0082 04       		.byte	0x4
 10192 0083 DD17     		.uleb128 .LVL297-.Ltext0
 10193 0085 9518     		.uleb128 .LVL301-.Ltext0
 10194 0087 01       		.uleb128 0x1
 10195 0088 52       		.byte	0x52
 10196 0089 04       		.byte	0x4
 10197 008a 9518     		.uleb128 .LVL301-.Ltext0
 10198 008c CE1A     		.uleb128 .LFE22-.Ltext0
 10199 008e 04       		.uleb128 0x4
 10200 008f A3       		.byte	0xa3
 10201 0090 01       		.uleb128 0x1
 10202 0091 52       		.byte	0x52
 10203 0092 9F       		.byte	0x9f
 10204 0093 00       		.byte	0
 10205              	.LVUS134:
 10206 0094 00       		.uleb128 0
 10207 0095 00       		.uleb128 .LVU546
 10208 0096 00       		.uleb128 .LVU546
 10209 0097 00       		.uleb128 .LVU586
 10210 0098 00       		.uleb128 .LVU586
 10211 0099 00       		.uleb128 0
 10212              	.LLST134:
 10213 009a 04       		.byte	0x4
 10214 009b DD17     		.uleb128 .LVL297-.Ltext0
 10215 009d 8118     		.uleb128 .LVL299-.Ltext0
 10216 009f 01       		.uleb128 0x1
 10217 00a0 51       		.byte	0x51
 10218 00a1 04       		.byte	0x4
 10219 00a2 8118     		.uleb128 .LVL299-.Ltext0
 10220 00a4 CB1A     		.uleb128 .LVL324-.Ltext0
 10221 00a6 01       		.uleb128 0x1
 10222 00a7 5E       		.byte	0x5e
 10223 00a8 04       		.byte	0x4
 10224 00a9 CB1A     		.uleb128 .LVL324-.Ltext0
 10225 00ab CE1A     		.uleb128 .LFE22-.Ltext0
 10226 00ad 04       		.uleb128 0x4
 10227 00ae A3       		.byte	0xa3
 10228 00af 01       		.uleb128 0x1
 10229 00b0 51       		.byte	0x51
 10230 00b1 9F       		.byte	0x9f
 10231 00b2 00       		.byte	0
 10232              	.LVUS135:
 10233 00b3 00       		.uleb128 0
 10234 00b4 00       		.uleb128 .LVU551
 10235 00b5 00       		.uleb128 .LVU551
 10236 00b6 00       		.uleb128 .LVU585
 10237 00b7 00       		.uleb128 .LVU585
 10238 00b8 00       		.uleb128 0
 10239              	.LLST135:
 10240 00b9 04       		.byte	0x4
 10241 00ba DD17     		.uleb128 .LVL297-.Ltext0
 10242 00bc 9518     		.uleb128 .LVL301-.Ltext0
 10243 00be 01       		.uleb128 0x1
 10244 00bf 58       		.byte	0x58
 10245 00c0 04       		.byte	0x4
 10246 00c1 9518     		.uleb128 .LVL301-.Ltext0
 10247 00c3 C91A     		.uleb128 .LVL323-.Ltext0
 10248 00c5 01       		.uleb128 0x1
 10249 00c6 5D       		.byte	0x5d
 10250 00c7 04       		.byte	0x4
 10251 00c8 C91A     		.uleb128 .LVL323-.Ltext0
 10252 00ca CE1A     		.uleb128 .LFE22-.Ltext0
 10253 00cc 04       		.uleb128 0x4
 10254 00cd A3       		.byte	0xa3
 10255 00ce 01       		.uleb128 0x1
 10256 00cf 58       		.byte	0x58
 10257 00d0 9F       		.byte	0x9f
 10258 00d1 00       		.byte	0
 10259              	.LVUS136:
 10260 00d2 00       		.uleb128 0
 10261 00d3 00       		.uleb128 .LVU551
 10262 00d4 00       		.uleb128 .LVU551
 10263 00d5 00       		.uleb128 0
 10264              	.LLST136:
 10265 00d6 04       		.byte	0x4
 10266 00d7 DD17     		.uleb128 .LVL297-.Ltext0
 10267 00d9 9518     		.uleb128 .LVL301-.Ltext0
 10268 00db 01       		.uleb128 0x1
 10269 00dc 59       		.byte	0x59
 10270 00dd 04       		.byte	0x4
 10271 00de 9518     		.uleb128 .LVL301-.Ltext0
 10272 00e0 CE1A     		.uleb128 .LFE22-.Ltext0
 10273 00e2 04       		.uleb128 0x4
 10274 00e3 A3       		.byte	0xa3
 10275 00e4 01       		.uleb128 0x1
 10276 00e5 59       		.byte	0x59
 10277 00e6 9F       		.byte	0x9f
 10278 00e7 00       		.byte	0
 10279              	.LVUS137:
 10280 00e8 00       		.uleb128 .LVU544
 10281 00e9 00       		.uleb128 .LVU582
 10282              	.LLST137:
 10283 00ea 04       		.byte	0x4
 10284 00eb F717     		.uleb128 .LVL298-.Ltext0
 10285 00ed C21A     		.uleb128 .LVL320-.Ltext0
 10286 00ef 01       		.uleb128 0x1
 10287 00f0 53       		.byte	0x53
 10288 00f1 00       		.byte	0
 10289              	.LVUS138:
 10290 00f2 00       		.uleb128 .LVU547
 10291 00f3 00       		.uleb128 .LVU551
 10292 00f4 00       		.uleb128 .LVU551
 10293 00f5 00       		.uleb128 .LVU584
 10294              	.LLST138:
 10295 00f6 04       		.byte	0x4
 10296 00f7 8E18     		.uleb128 .LVL300-.Ltext0
 10297 00f9 9518     		.uleb128 .LVL301-.Ltext0
 10298 00fb 01       		.uleb128 0x1
 10299 00fc 51       		.byte	0x51
 10300 00fd 04       		.byte	0x4
 10301 00fe 9518     		.uleb128 .LVL301-.Ltext0
 10302 0100 C71A     		.uleb128 .LVL322-.Ltext0
 10303 0102 01       		.uleb128 0x1
 10304 0103 5C       		.byte	0x5c
 10305 0104 00       		.byte	0
 10306              	.LVUS139:
 10307 0105 02       		.uleb128 .LVU549
 10308 0106 00       		.uleb128 .LVU551
 10309 0107 00       		.uleb128 .LVU551
 10310 0108 00       		.uleb128 .LVU583
 10311              	.LLST139:
 10312 0109 04       		.byte	0x4
 10313 010a 8E18     		.uleb128 .LVL300-.Ltext0
 10314 010c 9518     		.uleb128 .LVL301-.Ltext0
 10315 010e 02       		.uleb128 0x2
 10316 010f 30       		.byte	0x30
 10317 0110 9F       		.byte	0x9f
 10318 0111 04       		.byte	0x4
 10319 0112 9518     		.uleb128 .LVL301-.Ltext0
 10320 0114 C31A     		.uleb128 .LVL321-.Ltext0
 10321 0116 01       		.uleb128 0x1
 10322 0117 54       		.byte	0x54
 10323 0118 00       		.byte	0
 10324              	.LVUS141:
 10325 0119 00       		.uleb128 .LVU559
 10326 011a 00       		.uleb128 .LVU560
 10327              	.LLST141:
 10328 011b 04       		.byte	0x4
 10329 011c C818     		.uleb128 .LVL305-.Ltext0
 10330 011e CD18     		.uleb128 .LVL306-1-.Ltext0
 10331 0120 01       		.uleb128 0x1
 10332 0121 51       		.byte	0x51
 10333 0122 00       		.byte	0
 10334              	.LVUS115:
 10335 0123 00       		.uleb128 0
 10336 0124 00       		.uleb128 .LVU500
 10337 0125 00       		.uleb128 .LVU500
 10338 0126 00       		.uleb128 .LVU527
 10339 0127 00       		.uleb128 .LVU527
 10340 0128 00       		.uleb128 0
 10341              	.LLST115:
 10342 0129 04       		.byte	0x4
 10343 012a 9917     		.uleb128 .LVL280-.Ltext0
 10344 012c A417     		.uleb128 .LVL281-.Ltext0
 10345 012e 01       		.uleb128 0x1
 10346 012f 52       		.byte	0x52
 10347 0130 04       		.byte	0x4
 10348 0131 A417     		.uleb128 .LVL281-.Ltext0
 10349 0133 CF17     		.uleb128 .LVL292-1-.Ltext0
 10350 0135 01       		.uleb128 0x1
 10351 0136 58       		.byte	0x58
 10352 0137 04       		.byte	0x4
 10353 0138 CF17     		.uleb128 .LVL292-1-.Ltext0
 10354 013a DD17     		.uleb128 .LFE21-.Ltext0
 10355 013c 04       		.uleb128 0x4
 10356 013d A3       		.byte	0xa3
 10357 013e 01       		.uleb128 0x1
 10358 013f 52       		.byte	0x52
 10359 0140 9F       		.byte	0x9f
 10360 0141 00       		.byte	0
 10361              	.LVUS116:
 10362 0142 00       		.uleb128 0
 10363 0143 00       		.uleb128 .LVU502
 10364 0144 00       		.uleb128 .LVU502
 10365 0145 00       		.uleb128 .LVU527
 10366 0146 00       		.uleb128 .LVU527
 10367 0147 00       		.uleb128 0
 10368              	.LLST116:
 10369 0148 04       		.byte	0x4
 10370 0149 9917     		.uleb128 .LVL280-.Ltext0
 10371 014b AE17     		.uleb128 .LVL282-.Ltext0
 10372 014d 01       		.uleb128 0x1
 10373 014e 51       		.byte	0x51
 10374 014f 04       		.byte	0x4
 10375 0150 AE17     		.uleb128 .LVL282-.Ltext0
 10376 0152 CF17     		.uleb128 .LVL292-1-.Ltext0
 10377 0154 01       		.uleb128 0x1
 10378 0155 52       		.byte	0x52
 10379 0156 04       		.byte	0x4
 10380 0157 CF17     		.uleb128 .LVL292-1-.Ltext0
 10381 0159 DD17     		.uleb128 .LFE21-.Ltext0
 10382 015b 04       		.uleb128 0x4
 10383 015c A3       		.byte	0xa3
 10384 015d 01       		.uleb128 0x1
 10385 015e 51       		.byte	0x51
 10386 015f 9F       		.byte	0x9f
 10387 0160 00       		.byte	0
 10388              	.LVUS117:
 10389 0161 00       		.uleb128 .LVU503
 10390 0162 00       		.uleb128 .LVU506
 10391 0163 00       		.uleb128 .LVU506
 10392 0164 00       		.uleb128 .LVU539
 10393 0165 00       		.uleb128 .LVU539
 10394 0166 00       		.uleb128 0
 10395              	.LLST117:
 10396 0167 04       		.byte	0x4
 10397 0168 B417     		.uleb128 .LVL283-.Ltext0
 10398 016a B917     		.uleb128 .LVL284-.Ltext0
 10399 016c 01       		.uleb128 0x1
 10400 016d 50       		.byte	0x50
 10401 016e 04       		.byte	0x4
 10402 016f B917     		.uleb128 .LVL284-.Ltext0
 10403 0171 DC17     		.uleb128 .LVL296-.Ltext0
 10404 0173 01       		.uleb128 0x1
 10405 0174 53       		.byte	0x53
 10406 0175 04       		.byte	0x4
 10407 0176 DC17     		.uleb128 .LVL296-.Ltext0
 10408 0178 DD17     		.uleb128 .LFE21-.Ltext0
 10409 017a 12       		.uleb128 0x12
 10410 017b 0C       		.byte	0xc
 10411 017c DC341200 		.long	0x1234dc
 10412 0180 A8       		.byte	0xa8
 10413 0181 BC02     		.uleb128 0x13c
 10414 0183 A3       		.byte	0xa3
 10415 0184 01       		.uleb128 0x1
 10416 0185 52       		.byte	0x52
 10417 0186 A8       		.byte	0xa8
 10418 0187 BC02     		.uleb128 0x13c
 10419 0189 1B       		.byte	0x1b
 10420 018a A8       		.byte	0xa8
 10421 018b 00       		.uleb128 0
 10422 018c 9F       		.byte	0x9f
 10423 018d 00       		.byte	0
 10424              	.LVUS118:
 10425 018e 01       		.uleb128 .LVU521
 10426 018f 00       		.uleb128 .LVU523
 10427 0190 01       		.uleb128 .LVU532
 10428 0191 00       		.uleb128 .LVU536
 10429              	.LLST118:
 10430 0192 04       		.byte	0x4
 10431 0193 C617     		.uleb128 .LVL289-.Ltext0
 10432 0195 C917     		.uleb128 .LVL290-.Ltext0
 10433 0197 01       		.uleb128 0x1
 10434 0198 50       		.byte	0x50
 10435 0199 04       		.byte	0x4
 10436 019a D217     		.uleb128 .LVL293-.Ltext0
 10437 019c D517     		.uleb128 .LVL294-.Ltext0
 10438 019e 01       		.uleb128 0x1
 10439 019f 50       		.byte	0x50
 10440 01a0 00       		.byte	0
 10441              	.LVUS119:
 10442 01a1 01       		.uleb128 .LVU504
 10443 01a2 00       		.uleb128 .LVU507
 10444              	.LLST119:
 10445 01a3 04       		.byte	0x4
 10446 01a4 B417     		.uleb128 .LVL283-.Ltext0
 10447 01a6 BB17     		.uleb128 .LVL285-.Ltext0
 10448 01a8 03       		.uleb128 0x3
 10449 01a9 08       		.byte	0x8
 10450 01aa 43       		.byte	0x43
 10451 01ab 9F       		.byte	0x9f
 10452 01ac 00       		.byte	0
 10453              	.LVUS120:
 10454 01ad 01       		.uleb128 .LVU504
 10455 01ae 00       		.uleb128 .LVU507
 10456              	.LLST120:
 10457 01af 04       		.byte	0x4
 10458 01b0 B417     		.uleb128 .LVL283-.Ltext0
 10459 01b2 BB17     		.uleb128 .LVL285-.Ltext0
 10460 01b4 03       		.uleb128 0x3
 10461 01b5 09       		.byte	0x9
 10462 01b6 B6       		.byte	0xb6
 10463 01b7 9F       		.byte	0x9f
 10464 01b8 00       		.byte	0
 10465              	.LVUS121:
 10466 01b9 02       		.uleb128 .LVU509
 10467 01ba 00       		.uleb128 .LVU511
 10468              	.LLST121:
 10469 01bb 04       		.byte	0x4
 10470 01bc BB17     		.uleb128 .LVL285-.Ltext0
 10471 01be BF17     		.uleb128 .LVL286-.Ltext0
 10472 01c0 03       		.uleb128 0x3
 10473 01c1 08       		.byte	0x8
 10474 01c2 42       		.byte	0x42
 10475 01c3 9F       		.byte	0x9f
 10476 01c4 00       		.byte	0
 10477              	.LVUS122:
 10478 01c5 02       		.uleb128 .LVU509
 10479 01c6 00       		.uleb128 .LVU511
 10480              	.LLST122:
 10481 01c7 04       		.byte	0x4
 10482 01c8 BB17     		.uleb128 .LVL285-.Ltext0
 10483 01ca BF17     		.uleb128 .LVL286-.Ltext0
 10484 01cc 01       		.uleb128 0x1
 10485 01cd 53       		.byte	0x53
 10486 01ce 00       		.byte	0
 10487              	.LVUS123:
 10488 01cf 00       		.uleb128 .LVU513
 10489 01d0 00       		.uleb128 .LVU515
 10490              	.LLST123:
 10491 01d1 04       		.byte	0x4
 10492 01d2 C217     		.uleb128 .LVL287-.Ltext0
 10493 01d4 C417     		.uleb128 .LVL288-.Ltext0
 10494 01d6 03       		.uleb128 0x3
 10495 01d7 08       		.byte	0x8
 10496 01d8 42       		.byte	0x42
 10497 01d9 9F       		.byte	0x9f
 10498 01da 00       		.byte	0
 10499              	.LVUS124:
 10500 01db 00       		.uleb128 .LVU513
 10501 01dc 00       		.uleb128 .LVU515
 10502              	.LLST124:
 10503 01dd 04       		.byte	0x4
 10504 01de C217     		.uleb128 .LVL287-.Ltext0
 10505 01e0 C417     		.uleb128 .LVL288-.Ltext0
 10506 01e2 05       		.uleb128 0x5
 10507 01e3 73       		.byte	0x73
 10508 01e4 00       		.sleb128 0
 10509 01e5 38       		.byte	0x38
 10510 01e6 25       		.byte	0x25
 10511 01e7 9F       		.byte	0x9f
 10512 01e8 00       		.byte	0
 10513              	.LVUS125:
 10514 01e9 02       		.uleb128 .LVU517
 10515 01ea 01       		.uleb128 .LVU521
 10516              	.LLST125:
 10517 01eb 04       		.byte	0x4
 10518 01ec C417     		.uleb128 .LVL288-.Ltext0
 10519 01ee C617     		.uleb128 .LVL289-.Ltext0
 10520 01f0 03       		.uleb128 0x3
 10521 01f1 08       		.byte	0x8
 10522 01f2 61       		.byte	0x61
 10523 01f3 9F       		.byte	0x9f
 10524 01f4 00       		.byte	0
 10525              	.LVUS126:
 10526 01f5 00       		.uleb128 .LVU520
 10527 01f6 01       		.uleb128 .LVU521
 10528              	.LLST126:
 10529 01f7 04       		.byte	0x4
 10530 01f8 C617     		.uleb128 .LVL289-.Ltext0
 10531 01fa C617     		.uleb128 .LVL289-.Ltext0
 10532 01fc 01       		.uleb128 0x1
 10533 01fd 50       		.byte	0x50
 10534 01fe 00       		.byte	0
 10535              	.LVUS127:
 10536 01ff 00       		.uleb128 .LVU523
 10537 0200 00       		.uleb128 .LVU525
 10538              	.LLST127:
 10539 0201 04       		.byte	0x4
 10540 0202 C917     		.uleb128 .LVL290-.Ltext0
 10541 0204 CB17     		.uleb128 .LVL291-.Ltext0
 10542 0206 03       		.uleb128 0x3
 10543 0207 08       		.byte	0x8
 10544 0208 61       		.byte	0x61
 10545 0209 9F       		.byte	0x9f
 10546 020a 00       		.byte	0
 10547              	.LVUS128:
 10548 020b 00       		.uleb128 .LVU523
 10549 020c 00       		.uleb128 .LVU525
 10550              	.LLST128:
 10551 020d 04       		.byte	0x4
 10552 020e C917     		.uleb128 .LVL290-.Ltext0
 10553 0210 CB17     		.uleb128 .LVL291-.Ltext0
 10554 0212 01       		.uleb128 0x1
 10555 0213 50       		.byte	0x50
 10556 0214 00       		.byte	0
 10557              	.LVUS129:
 10558 0215 01       		.uleb128 .LVU528
 10559 0216 01       		.uleb128 .LVU532
 10560              	.LLST129:
 10561 0217 04       		.byte	0x4
 10562 0218 D017     		.uleb128 .LVL292-.Ltext0
 10563 021a D217     		.uleb128 .LVL293-.Ltext0
 10564 021c 03       		.uleb128 0x3
 10565 021d 08       		.byte	0x8
 10566 021e 61       		.byte	0x61
 10567 021f 9F       		.byte	0x9f
 10568 0220 00       		.byte	0
 10569              	.LVUS130:
 10570 0221 00       		.uleb128 .LVU531
 10571 0222 01       		.uleb128 .LVU532
 10572              	.LLST130:
 10573 0223 04       		.byte	0x4
 10574 0224 D217     		.uleb128 .LVL293-.Ltext0
 10575 0226 D217     		.uleb128 .LVL293-.Ltext0
 10576 0228 01       		.uleb128 0x1
 10577 0229 50       		.byte	0x50
 10578 022a 00       		.byte	0
 10579              	.LVUS131:
 10580 022b 03       		.uleb128 .LVU534
 10581 022c 00       		.uleb128 .LVU537
 10582              	.LLST131:
 10583 022d 04       		.byte	0x4
 10584 022e D217     		.uleb128 .LVL293-.Ltext0
 10585 0230 D717     		.uleb128 .LVL295-.Ltext0
 10586 0232 03       		.uleb128 0x3
 10587 0233 08       		.byte	0x8
 10588 0234 61       		.byte	0x61
 10589 0235 9F       		.byte	0x9f
 10590 0236 00       		.byte	0
 10591              	.LVUS132:
 10592 0237 03       		.uleb128 .LVU534
 10593 0238 00       		.uleb128 .LVU536
 10594              	.LLST132:
 10595 0239 04       		.byte	0x4
 10596 023a D217     		.uleb128 .LVL293-.Ltext0
 10597 023c D517     		.uleb128 .LVL294-.Ltext0
 10598 023e 06       		.uleb128 0x6
 10599 023f 70       		.byte	0x70
 10600 0240 00       		.sleb128 0
 10601 0241 09       		.byte	0x9
 10602 0242 FC       		.byte	0xfc
 10603 0243 1A       		.byte	0x1a
 10604 0244 9F       		.byte	0x9f
 10605 0245 00       		.byte	0
 10606              	.LVUS105:
 10607 0246 00       		.uleb128 0
 10608 0247 00       		.uleb128 .LVU470
 10609 0248 00       		.uleb128 .LVU470
 10610 0249 00       		.uleb128 .LVU497
 10611 024a 00       		.uleb128 .LVU497
 10612 024b 00       		.uleb128 0
 10613              	.LLST105:
 10614 024c 04       		.byte	0x4
 10615 024d 9E15     		.uleb128 .LVL260-.Ltext0
 10616 024f FA15     		.uleb128 .LVL262-.Ltext0
 10617 0251 01       		.uleb128 0x1
 10618 0252 52       		.byte	0x52
 10619 0253 04       		.byte	0x4
 10620 0254 FA15     		.uleb128 .LVL262-.Ltext0
 10621 0256 9417     		.uleb128 .LVL279-.Ltext0
 10622 0258 01       		.uleb128 0x1
 10623 0259 5D       		.byte	0x5d
 10624 025a 04       		.byte	0x4
 10625 025b 9417     		.uleb128 .LVL279-.Ltext0
 10626 025d 9917     		.uleb128 .LFE20-.Ltext0
 10627 025f 04       		.uleb128 0x4
 10628 0260 A3       		.byte	0xa3
 10629 0261 01       		.uleb128 0x1
 10630 0262 52       		.byte	0x52
 10631 0263 9F       		.byte	0x9f
 10632 0264 00       		.byte	0
 10633              	.LVUS106:
 10634 0265 00       		.uleb128 0
 10635 0266 00       		.uleb128 .LVU470
 10636 0267 00       		.uleb128 .LVU470
 10637 0268 00       		.uleb128 .LVU496
 10638 0269 00       		.uleb128 .LVU496
 10639 026a 00       		.uleb128 0
 10640              	.LLST106:
 10641 026b 04       		.byte	0x4
 10642 026c 9E15     		.uleb128 .LVL260-.Ltext0
 10643 026e FA15     		.uleb128 .LVL262-.Ltext0
 10644 0270 01       		.uleb128 0x1
 10645 0271 51       		.byte	0x51
 10646 0272 04       		.byte	0x4
 10647 0273 FA15     		.uleb128 .LVL262-.Ltext0
 10648 0275 9217     		.uleb128 .LVL278-.Ltext0
 10649 0277 01       		.uleb128 0x1
 10650 0278 5C       		.byte	0x5c
 10651 0279 04       		.byte	0x4
 10652 027a 9217     		.uleb128 .LVL278-.Ltext0
 10653 027c 9917     		.uleb128 .LFE20-.Ltext0
 10654 027e 04       		.uleb128 0x4
 10655 027f A3       		.byte	0xa3
 10656 0280 01       		.uleb128 0x1
 10657 0281 51       		.byte	0x51
 10658 0282 9F       		.byte	0x9f
 10659 0283 00       		.byte	0
 10660              	.LVUS107:
 10661 0284 00       		.uleb128 0
 10662 0285 00       		.uleb128 .LVU470
 10663 0286 00       		.uleb128 .LVU470
 10664 0287 00       		.uleb128 .LVU495
 10665 0288 00       		.uleb128 .LVU495
 10666 0289 00       		.uleb128 0
 10667              	.LLST107:
 10668 028a 04       		.byte	0x4
 10669 028b 9E15     		.uleb128 .LVL260-.Ltext0
 10670 028d FA15     		.uleb128 .LVL262-.Ltext0
 10671 028f 01       		.uleb128 0x1
 10672 0290 58       		.byte	0x58
 10673 0291 04       		.byte	0x4
 10674 0292 FA15     		.uleb128 .LVL262-.Ltext0
 10675 0294 9017     		.uleb128 .LVL277-.Ltext0
 10676 0296 01       		.uleb128 0x1
 10677 0297 56       		.byte	0x56
 10678 0298 04       		.byte	0x4
 10679 0299 9017     		.uleb128 .LVL277-.Ltext0
 10680 029b 9917     		.uleb128 .LFE20-.Ltext0
 10681 029d 04       		.uleb128 0x4
 10682 029e A3       		.byte	0xa3
 10683 029f 01       		.uleb128 0x1
 10684 02a0 58       		.byte	0x58
 10685 02a1 9F       		.byte	0x9f
 10686 02a2 00       		.byte	0
 10687              	.LVUS108:
 10688 02a3 03       		.uleb128 .LVU468
 10689 02a4 00       		.uleb128 .LVU470
 10690 02a5 00       		.uleb128 .LVU470
 10691 02a6 00       		.uleb128 0
 10692              	.LLST108:
 10693 02a7 04       		.byte	0x4
 10694 02a8 EF15     		.uleb128 .LVL261-.Ltext0
 10695 02aa FA15     		.uleb128 .LVL262-.Ltext0
 10696 02ac 02       		.uleb128 0x2
 10697 02ad 30       		.byte	0x30
 10698 02ae 9F       		.byte	0x9f
 10699 02af 04       		.byte	0x4
 10700 02b0 FA15     		.uleb128 .LVL262-.Ltext0
 10701 02b2 9917     		.uleb128 .LFE20-.Ltext0
 10702 02b4 03       		.uleb128 0x3
 10703 02b5 91       		.byte	0x91
 10704 02b6 987F     		.sleb128 -104
 10705 02b8 00       		.byte	0
 10706              	.LVUS110:
 10707 02b9 00       		.uleb128 .LVU470
 10708 02ba 00       		.uleb128 .LVU492
 10709              	.LLST110:
 10710 02bb 04       		.byte	0x4
 10711 02bc FA15     		.uleb128 .LVL262-.Ltext0
 10712 02be F916     		.uleb128 .LVL276-.Ltext0
 10713 02c0 01       		.uleb128 0x1
 10714 02c1 55       		.byte	0x55
 10715 02c2 00       		.byte	0
 10716              	.LVUS111:
 10717 02c3 00       		.uleb128 .LVU474
 10718 02c4 00       		.uleb128 .LVU476
 10719 02c5 00       		.uleb128 .LVU476
 10720 02c6 00       		.uleb128 .LVU489
 10721              	.LLST111:
 10722 02c7 04       		.byte	0x4
 10723 02c8 8C16     		.uleb128 .LVL264-.Ltext0
 10724 02ca 9016     		.uleb128 .LVL265-1-.Ltext0
 10725 02cc 01       		.uleb128 0x1
 10726 02cd 51       		.byte	0x51
 10727 02ce 04       		.byte	0x4
 10728 02cf 9016     		.uleb128 .LVL265-1-.Ltext0
 10729 02d1 E316     		.uleb128 .LVL274-.Ltext0
 10730 02d3 01       		.uleb128 0x1
 10731 02d4 5E       		.byte	0x5e
 10732 02d5 00       		.byte	0
 10733              	.LVUS112:
 10734 02d6 00       		.uleb128 .LVU478
 10735 02d7 00       		.uleb128 .LVU480
 10736 02d8 00       		.uleb128 .LVU480
 10737 02d9 00       		.uleb128 .LVU489
 10738              	.LLST112:
 10739 02da 04       		.byte	0x4
 10740 02db 9E16     		.uleb128 .LVL266-.Ltext0
 10741 02dd A216     		.uleb128 .LVL267-1-.Ltext0
 10742 02df 01       		.uleb128 0x1
 10743 02e0 51       		.byte	0x51
 10744 02e1 04       		.byte	0x4
 10745 02e2 A216     		.uleb128 .LVL267-1-.Ltext0
 10746 02e4 E316     		.uleb128 .LVL274-.Ltext0
 10747 02e6 01       		.uleb128 0x1
 10748 02e7 5F       		.byte	0x5f
 10749 02e8 00       		.byte	0
 10750              	.LVUS113:
 10751 02e9 00       		.uleb128 .LVU481
 10752 02ea 00       		.uleb128 .LVU483
 10753 02eb 00       		.uleb128 .LVU483
 10754 02ec 00       		.uleb128 .LVU489
 10755              	.LLST113:
 10756 02ed 04       		.byte	0x4
 10757 02ee A616     		.uleb128 .LVL268-.Ltext0
 10758 02f0 AA16     		.uleb128 .LVL269-1-.Ltext0
 10759 02f2 01       		.uleb128 0x1
 10760 02f3 50       		.byte	0x50
 10761 02f4 04       		.byte	0x4
 10762 02f5 AA16     		.uleb128 .LVL269-1-.Ltext0
 10763 02f7 E316     		.uleb128 .LVL274-.Ltext0
 10764 02f9 01       		.uleb128 0x1
 10765 02fa 54       		.byte	0x54
 10766 02fb 00       		.byte	0
 10767              	.LVUS114:
 10768 02fc 00       		.uleb128 .LVU485
 10769 02fd 00       		.uleb128 .LVU489
 10770              	.LLST114:
 10771 02fe 04       		.byte	0x4
 10772 02ff B316     		.uleb128 .LVL270-.Ltext0
 10773 0301 E316     		.uleb128 .LVL274-.Ltext0
 10774 0303 01       		.uleb128 0x1
 10775 0304 53       		.byte	0x53
 10776 0305 00       		.byte	0
 10777              	.LVUS96:
 10778 0306 00       		.uleb128 0
 10779 0307 00       		.uleb128 .LVU429
 10780 0308 00       		.uleb128 .LVU429
 10781 0309 00       		.uleb128 .LVU457
 10782 030a 00       		.uleb128 .LVU457
 10783 030b 00       		.uleb128 0
 10784              	.LLST96:
 10785 030c 04       		.byte	0x4
 10786 030d A813     		.uleb128 .LVL233-.Ltext0
 10787 030f C813     		.uleb128 .LVL235-.Ltext0
 10788 0311 01       		.uleb128 0x1
 10789 0312 52       		.byte	0x52
 10790 0313 04       		.byte	0x4
 10791 0314 C813     		.uleb128 .LVL235-.Ltext0
 10792 0316 9715     		.uleb128 .LVL256-.Ltext0
 10793 0318 01       		.uleb128 0x1
 10794 0319 54       		.byte	0x54
 10795 031a 04       		.byte	0x4
 10796 031b 9715     		.uleb128 .LVL256-.Ltext0
 10797 031d 9E15     		.uleb128 .LFE19-.Ltext0
 10798 031f 04       		.uleb128 0x4
 10799 0320 A3       		.byte	0xa3
 10800 0321 01       		.uleb128 0x1
 10801 0322 52       		.byte	0x52
 10802 0323 9F       		.byte	0x9f
 10803 0324 00       		.byte	0
 10804              	.LVUS97:
 10805 0325 00       		.uleb128 0
 10806 0326 00       		.uleb128 .LVU429
 10807 0327 00       		.uleb128 .LVU429
 10808 0328 00       		.uleb128 .LVU459
 10809 0329 00       		.uleb128 .LVU459
 10810 032a 00       		.uleb128 0
 10811              	.LLST97:
 10812 032b 04       		.byte	0x4
 10813 032c A813     		.uleb128 .LVL233-.Ltext0
 10814 032e C813     		.uleb128 .LVL235-.Ltext0
 10815 0330 01       		.uleb128 0x1
 10816 0331 51       		.byte	0x51
 10817 0332 04       		.byte	0x4
 10818 0333 C813     		.uleb128 .LVL235-.Ltext0
 10819 0335 9B15     		.uleb128 .LVL258-.Ltext0
 10820 0337 01       		.uleb128 0x1
 10821 0338 5C       		.byte	0x5c
 10822 0339 04       		.byte	0x4
 10823 033a 9B15     		.uleb128 .LVL258-.Ltext0
 10824 033c 9E15     		.uleb128 .LFE19-.Ltext0
 10825 033e 04       		.uleb128 0x4
 10826 033f A3       		.byte	0xa3
 10827 0340 01       		.uleb128 0x1
 10828 0341 51       		.byte	0x51
 10829 0342 9F       		.byte	0x9f
 10830 0343 00       		.byte	0
 10831              	.LVUS98:
 10832 0344 00       		.uleb128 0
 10833 0345 00       		.uleb128 .LVU429
 10834 0346 00       		.uleb128 .LVU429
 10835 0347 00       		.uleb128 .LVU458
 10836 0348 00       		.uleb128 .LVU458
 10837 0349 00       		.uleb128 0
 10838              	.LLST98:
 10839 034a 04       		.byte	0x4
 10840 034b A813     		.uleb128 .LVL233-.Ltext0
 10841 034d C813     		.uleb128 .LVL235-.Ltext0
 10842 034f 01       		.uleb128 0x1
 10843 0350 58       		.byte	0x58
 10844 0351 04       		.byte	0x4
 10845 0352 C813     		.uleb128 .LVL235-.Ltext0
 10846 0354 9915     		.uleb128 .LVL257-.Ltext0
 10847 0356 01       		.uleb128 0x1
 10848 0357 56       		.byte	0x56
 10849 0358 04       		.byte	0x4
 10850 0359 9915     		.uleb128 .LVL257-.Ltext0
 10851 035b 9E15     		.uleb128 .LFE19-.Ltext0
 10852 035d 04       		.uleb128 0x4
 10853 035e A3       		.byte	0xa3
 10854 035f 01       		.uleb128 0x1
 10855 0360 58       		.byte	0x58
 10856 0361 9F       		.byte	0x9f
 10857 0362 00       		.byte	0
 10858              	.LVUS99:
 10859 0363 02       		.uleb128 .LVU427
 10860 0364 00       		.uleb128 .LVU429
 10861 0365 00       		.uleb128 .LVU429
 10862 0366 00       		.uleb128 .LVU460
 10863              	.LLST99:
 10864 0367 04       		.byte	0x4
 10865 0368 BD13     		.uleb128 .LVL234-.Ltext0
 10866 036a C813     		.uleb128 .LVL235-.Ltext0
 10867 036c 02       		.uleb128 0x2
 10868 036d 30       		.byte	0x30
 10869 036e 9F       		.byte	0x9f
 10870 036f 04       		.byte	0x4
 10871 0370 C813     		.uleb128 .LVL235-.Ltext0
 10872 0372 9D15     		.uleb128 .LVL259-.Ltext0
 10873 0374 01       		.uleb128 0x1
 10874 0375 5D       		.byte	0x5d
 10875 0376 00       		.byte	0
 10876              	.LVUS101:
 10877 0377 00       		.uleb128 .LVU449
 10878 0378 00       		.uleb128 .LVU450
 10879 0379 00       		.uleb128 .LVU450
 10880 037a 00       		.uleb128 .LVU451
 10881              	.LLST101:
 10882 037b 04       		.byte	0x4
 10883 037c FD14     		.uleb128 .LVL252-.Ltext0
 10884 037e 8115     		.uleb128 .LVL253-.Ltext0
 10885 0380 01       		.uleb128 0x1
 10886 0381 50       		.byte	0x50
 10887 0382 04       		.byte	0x4
 10888 0383 8115     		.uleb128 .LVL253-.Ltext0
 10889 0385 8615     		.uleb128 .LVL254-1-.Ltext0
 10890 0387 01       		.uleb128 0x1
 10891 0388 51       		.byte	0x51
 10892 0389 00       		.byte	0
 10893              	.LVUS103:
 10894 038a 00       		.uleb128 .LVU429
 10895 038b 00       		.uleb128 .LVU436
 10896 038c 02       		.uleb128 .LVU453
 10897 038d 00       		.uleb128 .LVU455
 10898              	.LLST103:
 10899 038e 04       		.byte	0x4
 10900 038f C813     		.uleb128 .LVL235-.Ltext0
 10901 0391 9114     		.uleb128 .LVL241-.Ltext0
 10902 0393 01       		.uleb128 0x1
 10903 0394 53       		.byte	0x53
 10904 0395 04       		.byte	0x4
 10905 0396 8715     		.uleb128 .LVL254-.Ltext0
 10906 0398 9115     		.uleb128 .LVL255-.Ltext0
 10907 039a 02       		.uleb128 0x2
 10908 039b 30       		.byte	0x30
 10909 039c 9F       		.byte	0x9f
 10910 039d 00       		.byte	0
 10911              	.LVUS104:
 10912 039e 00       		.uleb128 .LVU437
 10913 039f 00       		.uleb128 .LVU446
 10914              	.LLST104:
 10915 03a0 04       		.byte	0x4
 10916 03a1 9314     		.uleb128 .LVL242-.Ltext0
 10917 03a3 EF14     		.uleb128 .LVL250-.Ltext0
 10918 03a5 01       		.uleb128 0x1
 10919 03a6 53       		.byte	0x53
 10920 03a7 00       		.byte	0
 10921              	.LVUS90:
 10922 03a8 00       		.uleb128 0
 10923 03a9 00       		.uleb128 .LVU406
 10924 03aa 00       		.uleb128 .LVU406
 10925 03ab 00       		.uleb128 .LVU418
 10926 03ac 00       		.uleb128 .LVU418
 10927 03ad 00       		.uleb128 0
 10928              	.LLST90:
 10929 03ae 04       		.byte	0x4
 10930 03af AE12     		.uleb128 .LVL215-.Ltext0
 10931 03b1 CB12     		.uleb128 .LVL217-.Ltext0
 10932 03b3 01       		.uleb128 0x1
 10933 03b4 52       		.byte	0x52
 10934 03b5 04       		.byte	0x4
 10935 03b6 CB12     		.uleb128 .LVL217-.Ltext0
 10936 03b8 A213     		.uleb128 .LVL228-.Ltext0
 10937 03ba 01       		.uleb128 0x1
 10938 03bb 53       		.byte	0x53
 10939 03bc 04       		.byte	0x4
 10940 03bd A213     		.uleb128 .LVL228-.Ltext0
 10941 03bf A813     		.uleb128 .LFE18-.Ltext0
 10942 03c1 04       		.uleb128 0x4
 10943 03c2 A3       		.byte	0xa3
 10944 03c3 01       		.uleb128 0x1
 10945 03c4 52       		.byte	0x52
 10946 03c5 9F       		.byte	0x9f
 10947 03c6 00       		.byte	0
 10948              	.LVUS91:
 10949 03c7 00       		.uleb128 0
 10950 03c8 00       		.uleb128 .LVU406
 10951 03c9 00       		.uleb128 .LVU406
 10952 03ca 00       		.uleb128 .LVU422
 10953 03cb 00       		.uleb128 .LVU422
 10954 03cc 00       		.uleb128 0
 10955              	.LLST91:
 10956 03cd 04       		.byte	0x4
 10957 03ce AE12     		.uleb128 .LVL215-.Ltext0
 10958 03d0 CB12     		.uleb128 .LVL217-.Ltext0
 10959 03d2 01       		.uleb128 0x1
 10960 03d3 51       		.byte	0x51
 10961 03d4 04       		.byte	0x4
 10962 03d5 CB12     		.uleb128 .LVL217-.Ltext0
 10963 03d7 A713     		.uleb128 .LVL232-.Ltext0
 10964 03d9 01       		.uleb128 0x1
 10965 03da 5C       		.byte	0x5c
 10966 03db 04       		.byte	0x4
 10967 03dc A713     		.uleb128 .LVL232-.Ltext0
 10968 03de A813     		.uleb128 .LFE18-.Ltext0
 10969 03e0 04       		.uleb128 0x4
 10970 03e1 A3       		.byte	0xa3
 10971 03e2 01       		.uleb128 0x1
 10972 03e3 51       		.byte	0x51
 10973 03e4 9F       		.byte	0x9f
 10974 03e5 00       		.byte	0
 10975              	.LVUS92:
 10976 03e6 00       		.uleb128 0
 10977 03e7 00       		.uleb128 .LVU406
 10978 03e8 00       		.uleb128 .LVU406
 10979 03e9 00       		.uleb128 .LVU421
 10980 03ea 00       		.uleb128 .LVU421
 10981 03eb 00       		.uleb128 0
 10982              	.LLST92:
 10983 03ec 04       		.byte	0x4
 10984 03ed AE12     		.uleb128 .LVL215-.Ltext0
 10985 03ef CB12     		.uleb128 .LVL217-.Ltext0
 10986 03f1 01       		.uleb128 0x1
 10987 03f2 58       		.byte	0x58
 10988 03f3 04       		.byte	0x4
 10989 03f4 CB12     		.uleb128 .LVL217-.Ltext0
 10990 03f6 A513     		.uleb128 .LVL231-.Ltext0
 10991 03f8 01       		.uleb128 0x1
 10992 03f9 56       		.byte	0x56
 10993 03fa 04       		.byte	0x4
 10994 03fb A513     		.uleb128 .LVL231-.Ltext0
 10995 03fd A813     		.uleb128 .LFE18-.Ltext0
 10996 03ff 04       		.uleb128 0x4
 10997 0400 A3       		.byte	0xa3
 10998 0401 01       		.uleb128 0x1
 10999 0402 58       		.byte	0x58
 11000 0403 9F       		.byte	0x9f
 11001 0404 00       		.byte	0
 11002              	.LVUS93:
 11003 0405 00       		.uleb128 0
 11004 0406 00       		.uleb128 .LVU406
 11005 0407 00       		.uleb128 .LVU406
 11006 0408 00       		.uleb128 .LVU420
 11007 0409 00       		.uleb128 .LVU420
 11008 040a 00       		.uleb128 0
 11009              	.LLST93:
 11010 040b 04       		.byte	0x4
 11011 040c AE12     		.uleb128 .LVL215-.Ltext0
 11012 040e CB12     		.uleb128 .LVL217-.Ltext0
 11013 0410 01       		.uleb128 0x1
 11014 0411 59       		.byte	0x59
 11015 0412 04       		.byte	0x4
 11016 0413 CB12     		.uleb128 .LVL217-.Ltext0
 11017 0415 A413     		.uleb128 .LVL230-.Ltext0
 11018 0417 01       		.uleb128 0x1
 11019 0418 55       		.byte	0x55
 11020 0419 04       		.byte	0x4
 11021 041a A413     		.uleb128 .LVL230-.Ltext0
 11022 041c A813     		.uleb128 .LFE18-.Ltext0
 11023 041e 04       		.uleb128 0x4
 11024 041f A3       		.byte	0xa3
 11025 0420 01       		.uleb128 0x1
 11026 0421 59       		.byte	0x59
 11027 0422 9F       		.byte	0x9f
 11028 0423 00       		.byte	0
 11029              	.LVUS94:
 11030 0424 02       		.uleb128 .LVU404
 11031 0425 00       		.uleb128 .LVU406
 11032 0426 00       		.uleb128 .LVU406
 11033 0427 00       		.uleb128 .LVU419
 11034              	.LLST94:
 11035 0428 04       		.byte	0x4
 11036 0429 C412     		.uleb128 .LVL216-.Ltext0
 11037 042b CB12     		.uleb128 .LVL217-.Ltext0
 11038 042d 02       		.uleb128 0x2
 11039 042e 30       		.byte	0x30
 11040 042f 9F       		.byte	0x9f
 11041 0430 04       		.byte	0x4
 11042 0431 CB12     		.uleb128 .LVL217-.Ltext0
 11043 0433 A313     		.uleb128 .LVL229-.Ltext0
 11044 0435 01       		.uleb128 0x1
 11045 0436 54       		.byte	0x54
 11046 0437 00       		.byte	0
 11047              	.LVUS95:
 11048 0438 00       		.uleb128 .LVU408
 11049 0439 00       		.uleb128 .LVU409
 11050 043a 00       		.uleb128 .LVU409
 11051 043b 00       		.uleb128 .LVU410
 11052              	.LLST95:
 11053 043c 04       		.byte	0x4
 11054 043d D312     		.uleb128 .LVL219-.Ltext0
 11055 043f D712     		.uleb128 .LVL220-.Ltext0
 11056 0441 01       		.uleb128 0x1
 11057 0442 50       		.byte	0x50
 11058 0443 04       		.byte	0x4
 11059 0444 D712     		.uleb128 .LVL220-.Ltext0
 11060 0446 DC12     		.uleb128 .LVL221-1-.Ltext0
 11061 0448 01       		.uleb128 0x1
 11062 0449 51       		.byte	0x51
 11063 044a 00       		.byte	0
 11064              	.LVUS87:
 11065 044b 00       		.uleb128 0
 11066 044c 00       		.uleb128 .LVU388
 11067 044d 00       		.uleb128 .LVU388
 11068 044e 00       		.uleb128 .LVU399
 11069 044f 00       		.uleb128 .LVU399
 11070 0450 00       		.uleb128 0
 11071              	.LLST87:
 11072 0451 04       		.byte	0x4
 11073 0452 D011     		.uleb128 .LVL202-.Ltext0
 11074 0454 E011     		.uleb128 .LVL204-.Ltext0
 11075 0456 01       		.uleb128 0x1
 11076 0457 52       		.byte	0x52
 11077 0458 04       		.byte	0x4
 11078 0459 E011     		.uleb128 .LVL204-.Ltext0
 11079 045b AD12     		.uleb128 .LVL214-.Ltext0
 11080 045d 01       		.uleb128 0x1
 11081 045e 54       		.byte	0x54
 11082 045f 04       		.byte	0x4
 11083 0460 AD12     		.uleb128 .LVL214-.Ltext0
 11084 0462 AE12     		.uleb128 .LFE17-.Ltext0
 11085 0464 04       		.uleb128 0x4
 11086 0465 A3       		.byte	0xa3
 11087 0466 01       		.uleb128 0x1
 11088 0467 52       		.byte	0x52
 11089 0468 9F       		.byte	0x9f
 11090 0469 00       		.byte	0
 11091              	.LVUS88:
 11092 046a 02       		.uleb128 .LVU386
 11093 046b 00       		.uleb128 .LVU388
 11094 046c 00       		.uleb128 .LVU388
 11095 046d 00       		.uleb128 .LVU398
 11096              	.LLST88:
 11097 046e 04       		.byte	0x4
 11098 046f D911     		.uleb128 .LVL203-.Ltext0
 11099 0471 E011     		.uleb128 .LVL204-.Ltext0
 11100 0473 02       		.uleb128 0x2
 11101 0474 30       		.byte	0x30
 11102 0475 9F       		.byte	0x9f
 11103 0476 04       		.byte	0x4
 11104 0477 E011     		.uleb128 .LVL204-.Ltext0
 11105 0479 AC12     		.uleb128 .LVL213-.Ltext0
 11106 047b 01       		.uleb128 0x1
 11107 047c 53       		.byte	0x53
 11108 047d 00       		.byte	0
 11109              	.LVUS89:
 11110 047e 00       		.uleb128 .LVU390
 11111 047f 00       		.uleb128 .LVU391
 11112 0480 00       		.uleb128 .LVU391
 11113 0481 00       		.uleb128 .LVU392
 11114              	.LLST89:
 11115 0482 04       		.byte	0x4
 11116 0483 E811     		.uleb128 .LVL206-.Ltext0
 11117 0485 EC11     		.uleb128 .LVL207-.Ltext0
 11118 0487 01       		.uleb128 0x1
 11119 0488 50       		.byte	0x50
 11120 0489 04       		.byte	0x4
 11121 048a EC11     		.uleb128 .LVL207-.Ltext0
 11122 048c F111     		.uleb128 .LVL208-1-.Ltext0
 11123 048e 01       		.uleb128 0x1
 11124 048f 51       		.byte	0x51
 11125 0490 00       		.byte	0
 11126              	.LVUS76:
 11127 0491 00       		.uleb128 0
 11128 0492 00       		.uleb128 .LVU349
 11129 0493 00       		.uleb128 .LVU349
 11130 0494 00       		.uleb128 .LVU380
 11131 0495 00       		.uleb128 .LVU380
 11132 0496 00       		.uleb128 0
 11133              	.LLST76:
 11134 0497 04       		.byte	0x4
 11135 0498 9110     		.uleb128 .LVL179-.Ltext0
 11136 049a B310     		.uleb128 .LVL181-.Ltext0
 11137 049c 01       		.uleb128 0x1
 11138 049d 52       		.byte	0x52
 11139 049e 04       		.byte	0x4
 11140 049f B310     		.uleb128 .LVL181-.Ltext0
 11141 04a1 C911     		.uleb128 .LVL200-.Ltext0
 11142 04a3 01       		.uleb128 0x1
 11143 04a4 56       		.byte	0x56
 11144 04a5 04       		.byte	0x4
 11145 04a6 C911     		.uleb128 .LVL200-.Ltext0
 11146 04a8 D011     		.uleb128 .LFE16-.Ltext0
 11147 04aa 04       		.uleb128 0x4
 11148 04ab A3       		.byte	0xa3
 11149 04ac 01       		.uleb128 0x1
 11150 04ad 52       		.byte	0x52
 11151 04ae 9F       		.byte	0x9f
 11152 04af 00       		.byte	0
 11153              	.LVUS77:
 11154 04b0 00       		.uleb128 0
 11155 04b1 00       		.uleb128 .LVU349
 11156 04b2 00       		.uleb128 .LVU349
 11157 04b3 00       		.uleb128 .LVU378
 11158 04b4 00       		.uleb128 .LVU378
 11159 04b5 00       		.uleb128 0
 11160              	.LLST77:
 11161 04b6 04       		.byte	0x4
 11162 04b7 9110     		.uleb128 .LVL179-.Ltext0
 11163 04b9 B310     		.uleb128 .LVL181-.Ltext0
 11164 04bb 01       		.uleb128 0x1
 11165 04bc 51       		.byte	0x51
 11166 04bd 04       		.byte	0x4
 11167 04be B310     		.uleb128 .LVL181-.Ltext0
 11168 04c0 C711     		.uleb128 .LVL198-.Ltext0
 11169 04c2 01       		.uleb128 0x1
 11170 04c3 54       		.byte	0x54
 11171 04c4 04       		.byte	0x4
 11172 04c5 C711     		.uleb128 .LVL198-.Ltext0
 11173 04c7 D011     		.uleb128 .LFE16-.Ltext0
 11174 04c9 04       		.uleb128 0x4
 11175 04ca A3       		.byte	0xa3
 11176 04cb 01       		.uleb128 0x1
 11177 04cc 51       		.byte	0x51
 11178 04cd 9F       		.byte	0x9f
 11179 04ce 00       		.byte	0
 11180              	.LVUS78:
 11181 04cf 00       		.uleb128 0
 11182 04d0 00       		.uleb128 .LVU349
 11183 04d1 00       		.uleb128 .LVU349
 11184 04d2 00       		.uleb128 .LVU379
 11185 04d3 00       		.uleb128 .LVU379
 11186 04d4 00       		.uleb128 0
 11187              	.LLST78:
 11188 04d5 04       		.byte	0x4
 11189 04d6 9110     		.uleb128 .LVL179-.Ltext0
 11190 04d8 B310     		.uleb128 .LVL181-.Ltext0
 11191 04da 01       		.uleb128 0x1
 11192 04db 58       		.byte	0x58
 11193 04dc 04       		.byte	0x4
 11194 04dd B310     		.uleb128 .LVL181-.Ltext0
 11195 04df C811     		.uleb128 .LVL199-.Ltext0
 11196 04e1 01       		.uleb128 0x1
 11197 04e2 55       		.byte	0x55
 11198 04e3 04       		.byte	0x4
 11199 04e4 C811     		.uleb128 .LVL199-.Ltext0
 11200 04e6 D011     		.uleb128 .LFE16-.Ltext0
 11201 04e8 04       		.uleb128 0x4
 11202 04e9 A3       		.byte	0xa3
 11203 04ea 01       		.uleb128 0x1
 11204 04eb 58       		.byte	0x58
 11205 04ec 9F       		.byte	0x9f
 11206 04ed 00       		.byte	0
 11207              	.LVUS79:
 11208 04ee 02       		.uleb128 .LVU347
 11209 04ef 00       		.uleb128 .LVU349
 11210 04f0 00       		.uleb128 .LVU349
 11211 04f1 00       		.uleb128 .LVU381
 11212              	.LLST79:
 11213 04f2 04       		.byte	0x4
 11214 04f3 A810     		.uleb128 .LVL180-.Ltext0
 11215 04f5 B310     		.uleb128 .LVL181-.Ltext0
 11216 04f7 02       		.uleb128 0x2
 11217 04f8 30       		.byte	0x30
 11218 04f9 9F       		.byte	0x9f
 11219 04fa 04       		.byte	0x4
 11220 04fb B310     		.uleb128 .LVL181-.Ltext0
 11221 04fd CD11     		.uleb128 .LVL201-.Ltext0
 11222 04ff 01       		.uleb128 0x1
 11223 0500 5D       		.byte	0x5d
 11224 0501 00       		.byte	0
 11225              	.LVUS81:
 11226 0502 00       		.uleb128 .LVU349
 11227 0503 00       		.uleb128 .LVU375
 11228              	.LLST81:
 11229 0504 04       		.byte	0x4
 11230 0505 B310     		.uleb128 .LVL181-.Ltext0
 11231 0507 B411     		.uleb128 .LVL197-.Ltext0
 11232 0509 01       		.uleb128 0x1
 11233 050a 53       		.byte	0x53
 11234 050b 00       		.byte	0
 11235              	.LVUS83:
 11236 050c 00       		.uleb128 .LVU349
 11237 050d 00       		.uleb128 .LVU354
 11238 050e 00       		.uleb128 .LVU359
 11239 050f 00       		.uleb128 .LVU361
 11240 0510 00       		.uleb128 .LVU361
 11241 0511 00       		.uleb128 .LVU372
 11242              	.LLST83:
 11243 0512 04       		.byte	0x4
 11244 0513 B310     		.uleb128 .LVL181-.Ltext0
 11245 0515 CB10     		.uleb128 .LVL184-.Ltext0
 11246 0517 01       		.uleb128 0x1
 11247 0518 5C       		.byte	0x5c
 11248 0519 04       		.byte	0x4
 11249 051a E210     		.uleb128 .LVL186-.Ltext0
 11250 051c E610     		.uleb128 .LVL187-1-.Ltext0
 11251 051e 01       		.uleb128 0x1
 11252 051f 51       		.byte	0x51
 11253 0520 04       		.byte	0x4
 11254 0521 E610     		.uleb128 .LVL187-1-.Ltext0
 11255 0523 A611     		.uleb128 .LVL195-.Ltext0
 11256 0525 01       		.uleb128 0x1
 11257 0526 5C       		.byte	0x5c
 11258 0527 00       		.byte	0
 11259              	.LVUS84:
 11260 0528 00       		.uleb128 .LVU349
 11261 0529 00       		.uleb128 .LVU354
 11262 052a 00       		.uleb128 .LVU363
 11263 052b 00       		.uleb128 .LVU365
 11264 052c 00       		.uleb128 .LVU365
 11265 052d 00       		.uleb128 .LVU372
 11266              	.LLST84:
 11267 052e 04       		.byte	0x4
 11268 052f B310     		.uleb128 .LVL181-.Ltext0
 11269 0531 CB10     		.uleb128 .LVL184-.Ltext0
 11270 0533 01       		.uleb128 0x1
 11271 0534 5E       		.byte	0x5e
 11272 0535 04       		.byte	0x4
 11273 0536 F410     		.uleb128 .LVL188-.Ltext0
 11274 0538 F810     		.uleb128 .LVL189-1-.Ltext0
 11275 053a 01       		.uleb128 0x1
 11276 053b 51       		.byte	0x51
 11277 053c 04       		.byte	0x4
 11278 053d F810     		.uleb128 .LVL189-1-.Ltext0
 11279 053f A611     		.uleb128 .LVL195-.Ltext0
 11280 0541 01       		.uleb128 0x1
 11281 0542 5E       		.byte	0x5e
 11282 0543 00       		.byte	0
 11283              	.LVUS85:
 11284 0544 00       		.uleb128 .LVU366
 11285 0545 00       		.uleb128 .LVU367
 11286 0546 00       		.uleb128 .LVU367
 11287 0547 00       		.uleb128 .LVU368
 11288              	.LLST85:
 11289 0548 04       		.byte	0x4
 11290 0549 FC10     		.uleb128 .LVL190-.Ltext0
 11291 054b 8011     		.uleb128 .LVL191-.Ltext0
 11292 054d 01       		.uleb128 0x1
 11293 054e 50       		.byte	0x50
 11294 054f 04       		.byte	0x4
 11295 0550 8011     		.uleb128 .LVL191-.Ltext0
 11296 0552 8511     		.uleb128 .LVL192-1-.Ltext0
 11297 0554 01       		.uleb128 0x1
 11298 0555 51       		.byte	0x51
 11299 0556 00       		.byte	0
 11300              	.LVUS86:
 11301 0557 00       		.uleb128 .LVU350
 11302 0558 00       		.uleb128 .LVU352
 11303              	.LLST86:
 11304 0559 04       		.byte	0x4
 11305 055a B810     		.uleb128 .LVL182-.Ltext0
 11306 055c C610     		.uleb128 .LVL183-1-.Ltext0
 11307 055e 01       		.uleb128 0x1
 11308 055f 51       		.byte	0x51
 11309 0560 00       		.byte	0
 11310              	.LVUS67:
 11311 0561 00       		.uleb128 0
 11312 0562 00       		.uleb128 .LVU323
 11313 0563 00       		.uleb128 .LVU323
 11314 0564 00       		.uleb128 .LVU339
 11315 0565 00       		.uleb128 .LVU339
 11316 0566 00       		.uleb128 0
 11317              	.LLST67:
 11318 0567 04       		.byte	0x4
 11319 0568 850F     		.uleb128 .LVL162-.Ltext0
 11320 056a A20F     		.uleb128 .LVL164-.Ltext0
 11321 056c 01       		.uleb128 0x1
 11322 056d 52       		.byte	0x52
 11323 056e 04       		.byte	0x4
 11324 056f A20F     		.uleb128 .LVL164-.Ltext0
 11325 0571 8A10     		.uleb128 .LVL175-.Ltext0
 11326 0573 01       		.uleb128 0x1
 11327 0574 54       		.byte	0x54
 11328 0575 04       		.byte	0x4
 11329 0576 8A10     		.uleb128 .LVL175-.Ltext0
 11330 0578 9110     		.uleb128 .LFE15-.Ltext0
 11331 057a 04       		.uleb128 0x4
 11332 057b A3       		.byte	0xa3
 11333 057c 01       		.uleb128 0x1
 11334 057d 52       		.byte	0x52
 11335 057e 9F       		.byte	0x9f
 11336 057f 00       		.byte	0
 11337              	.LVUS68:
 11338 0580 00       		.uleb128 0
 11339 0581 00       		.uleb128 .LVU323
 11340 0582 00       		.uleb128 .LVU323
 11341 0583 00       		.uleb128 .LVU340
 11342 0584 00       		.uleb128 .LVU340
 11343 0585 00       		.uleb128 0
 11344              	.LLST68:
 11345 0586 04       		.byte	0x4
 11346 0587 850F     		.uleb128 .LVL162-.Ltext0
 11347 0589 A20F     		.uleb128 .LVL164-.Ltext0
 11348 058b 01       		.uleb128 0x1
 11349 058c 51       		.byte	0x51
 11350 058d 04       		.byte	0x4
 11351 058e A20F     		.uleb128 .LVL164-.Ltext0
 11352 0590 8C10     		.uleb128 .LVL176-.Ltext0
 11353 0592 01       		.uleb128 0x1
 11354 0593 56       		.byte	0x56
 11355 0594 04       		.byte	0x4
 11356 0595 8C10     		.uleb128 .LVL176-.Ltext0
 11357 0597 9110     		.uleb128 .LFE15-.Ltext0
 11358 0599 04       		.uleb128 0x4
 11359 059a A3       		.byte	0xa3
 11360 059b 01       		.uleb128 0x1
 11361 059c 51       		.byte	0x51
 11362 059d 9F       		.byte	0x9f
 11363 059e 00       		.byte	0
 11364              	.LVUS69:
 11365 059f 00       		.uleb128 0
 11366 05a0 00       		.uleb128 .LVU323
 11367 05a1 00       		.uleb128 .LVU323
 11368 05a2 00       		.uleb128 .LVU341
 11369 05a3 00       		.uleb128 .LVU341
 11370 05a4 00       		.uleb128 0
 11371              	.LLST69:
 11372 05a5 04       		.byte	0x4
 11373 05a6 850F     		.uleb128 .LVL162-.Ltext0
 11374 05a8 A20F     		.uleb128 .LVL164-.Ltext0
 11375 05aa 01       		.uleb128 0x1
 11376 05ab 58       		.byte	0x58
 11377 05ac 04       		.byte	0x4
 11378 05ad A20F     		.uleb128 .LVL164-.Ltext0
 11379 05af 8E10     		.uleb128 .LVL177-.Ltext0
 11380 05b1 01       		.uleb128 0x1
 11381 05b2 5C       		.byte	0x5c
 11382 05b3 04       		.byte	0x4
 11383 05b4 8E10     		.uleb128 .LVL177-.Ltext0
 11384 05b6 9110     		.uleb128 .LFE15-.Ltext0
 11385 05b8 04       		.uleb128 0x4
 11386 05b9 A3       		.byte	0xa3
 11387 05ba 01       		.uleb128 0x1
 11388 05bb 58       		.byte	0x58
 11389 05bc 9F       		.byte	0x9f
 11390 05bd 00       		.byte	0
 11391              	.LVUS70:
 11392 05be 02       		.uleb128 .LVU321
 11393 05bf 00       		.uleb128 .LVU323
 11394 05c0 00       		.uleb128 .LVU323
 11395 05c1 00       		.uleb128 .LVU342
 11396              	.LLST70:
 11397 05c2 04       		.byte	0x4
 11398 05c3 9A0F     		.uleb128 .LVL163-.Ltext0
 11399 05c5 A20F     		.uleb128 .LVL164-.Ltext0
 11400 05c7 02       		.uleb128 0x2
 11401 05c8 30       		.byte	0x30
 11402 05c9 9F       		.byte	0x9f
 11403 05ca 04       		.byte	0x4
 11404 05cb A20F     		.uleb128 .LVL164-.Ltext0
 11405 05cd 9010     		.uleb128 .LVL178-.Ltext0
 11406 05cf 01       		.uleb128 0x1
 11407 05d0 5D       		.byte	0x5d
 11408 05d1 00       		.byte	0
 11409              	.LVUS72:
 11410 05d2 00       		.uleb128 .LVU323
 11411 05d3 00       		.uleb128 .LVU336
 11412              	.LLST72:
 11413 05d4 04       		.byte	0x4
 11414 05d5 A20F     		.uleb128 .LVL164-.Ltext0
 11415 05d7 F70F     		.uleb128 .LVL174-.Ltext0
 11416 05d9 01       		.uleb128 0x1
 11417 05da 55       		.byte	0x55
 11418 05db 00       		.byte	0
 11419              	.LVUS74:
 11420 05dc 00       		.uleb128 .LVU323
 11421 05dd 00       		.uleb128 .LVU332
 11422              	.LLST74:
 11423 05de 04       		.byte	0x4
 11424 05df A20F     		.uleb128 .LVL164-.Ltext0
 11425 05e1 DD0F     		.uleb128 .LVL172-.Ltext0
 11426 05e3 01       		.uleb128 0x1
 11427 05e4 53       		.byte	0x53
 11428 05e5 00       		.byte	0
 11429              	.LVUS75:
 11430 05e6 00       		.uleb128 .LVU325
 11431 05e7 00       		.uleb128 .LVU326
 11432 05e8 00       		.uleb128 .LVU326
 11433 05e9 00       		.uleb128 .LVU327
 11434              	.LLST75:
 11435 05ea 04       		.byte	0x4
 11436 05eb AA0F     		.uleb128 .LVL166-.Ltext0
 11437 05ed AE0F     		.uleb128 .LVL167-.Ltext0
 11438 05ef 01       		.uleb128 0x1
 11439 05f0 50       		.byte	0x50
 11440 05f1 04       		.byte	0x4
 11441 05f2 AE0F     		.uleb128 .LVL167-.Ltext0
 11442 05f4 B30F     		.uleb128 .LVL168-1-.Ltext0
 11443 05f6 01       		.uleb128 0x1
 11444 05f7 51       		.byte	0x51
 11445 05f8 00       		.byte	0
 11446              	.LVUS61:
 11447 05f9 00       		.uleb128 0
 11448 05fa 00       		.uleb128 .LVU301
 11449 05fb 00       		.uleb128 .LVU301
 11450 05fc 00       		.uleb128 .LVU312
 11451 05fd 00       		.uleb128 .LVU312
 11452 05fe 00       		.uleb128 0
 11453              	.LLST61:
 11454 05ff 04       		.byte	0x4
 11455 0600 950E     		.uleb128 .LVL145-.Ltext0
 11456 0602 B20E     		.uleb128 .LVL147-.Ltext0
 11457 0604 01       		.uleb128 0x1
 11458 0605 52       		.byte	0x52
 11459 0606 04       		.byte	0x4
 11460 0607 B20E     		.uleb128 .LVL147-.Ltext0
 11461 0609 FF0E     		.uleb128 .LVL157-.Ltext0
 11462 060b 01       		.uleb128 0x1
 11463 060c 53       		.byte	0x53
 11464 060d 04       		.byte	0x4
 11465 060e FF0E     		.uleb128 .LVL157-.Ltext0
 11466 0610 850F     		.uleb128 .LFE14-.Ltext0
 11467 0612 04       		.uleb128 0x4
 11468 0613 A3       		.byte	0xa3
 11469 0614 01       		.uleb128 0x1
 11470 0615 52       		.byte	0x52
 11471 0616 9F       		.byte	0x9f
 11472 0617 00       		.byte	0
 11473              	.LVUS62:
 11474 0618 00       		.uleb128 0
 11475 0619 00       		.uleb128 .LVU301
 11476 061a 00       		.uleb128 .LVU301
 11477 061b 00       		.uleb128 .LVU316
 11478 061c 00       		.uleb128 .LVU316
 11479 061d 00       		.uleb128 0
 11480              	.LLST62:
 11481 061e 04       		.byte	0x4
 11482 061f 950E     		.uleb128 .LVL145-.Ltext0
 11483 0621 B20E     		.uleb128 .LVL147-.Ltext0
 11484 0623 01       		.uleb128 0x1
 11485 0624 51       		.byte	0x51
 11486 0625 04       		.byte	0x4
 11487 0626 B20E     		.uleb128 .LVL147-.Ltext0
 11488 0628 840F     		.uleb128 .LVL161-.Ltext0
 11489 062a 01       		.uleb128 0x1
 11490 062b 5C       		.byte	0x5c
 11491 062c 04       		.byte	0x4
 11492 062d 840F     		.uleb128 .LVL161-.Ltext0
 11493 062f 850F     		.uleb128 .LFE14-.Ltext0
 11494 0631 04       		.uleb128 0x4
 11495 0632 A3       		.byte	0xa3
 11496 0633 01       		.uleb128 0x1
 11497 0634 51       		.byte	0x51
 11498 0635 9F       		.byte	0x9f
 11499 0636 00       		.byte	0
 11500              	.LVUS63:
 11501 0637 00       		.uleb128 0
 11502 0638 00       		.uleb128 .LVU301
 11503 0639 00       		.uleb128 .LVU301
 11504 063a 00       		.uleb128 .LVU315
 11505 063b 00       		.uleb128 .LVU315
 11506 063c 00       		.uleb128 0
 11507              	.LLST63:
 11508 063d 04       		.byte	0x4
 11509 063e 950E     		.uleb128 .LVL145-.Ltext0
 11510 0640 B20E     		.uleb128 .LVL147-.Ltext0
 11511 0642 01       		.uleb128 0x1
 11512 0643 58       		.byte	0x58
 11513 0644 04       		.byte	0x4
 11514 0645 B20E     		.uleb128 .LVL147-.Ltext0
 11515 0647 820F     		.uleb128 .LVL160-.Ltext0
 11516 0649 01       		.uleb128 0x1
 11517 064a 56       		.byte	0x56
 11518 064b 04       		.byte	0x4
 11519 064c 820F     		.uleb128 .LVL160-.Ltext0
 11520 064e 850F     		.uleb128 .LFE14-.Ltext0
 11521 0650 04       		.uleb128 0x4
 11522 0651 A3       		.byte	0xa3
 11523 0652 01       		.uleb128 0x1
 11524 0653 58       		.byte	0x58
 11525 0654 9F       		.byte	0x9f
 11526 0655 00       		.byte	0
 11527              	.LVUS64:
 11528 0656 00       		.uleb128 0
 11529 0657 00       		.uleb128 .LVU301
 11530 0658 00       		.uleb128 .LVU301
 11531 0659 00       		.uleb128 .LVU314
 11532 065a 00       		.uleb128 .LVU314
 11533 065b 00       		.uleb128 0
 11534              	.LLST64:
 11535 065c 04       		.byte	0x4
 11536 065d 950E     		.uleb128 .LVL145-.Ltext0
 11537 065f B20E     		.uleb128 .LVL147-.Ltext0
 11538 0661 01       		.uleb128 0x1
 11539 0662 59       		.byte	0x59
 11540 0663 04       		.byte	0x4
 11541 0664 B20E     		.uleb128 .LVL147-.Ltext0
 11542 0666 810F     		.uleb128 .LVL159-.Ltext0
 11543 0668 01       		.uleb128 0x1
 11544 0669 55       		.byte	0x55
 11545 066a 04       		.byte	0x4
 11546 066b 810F     		.uleb128 .LVL159-.Ltext0
 11547 066d 850F     		.uleb128 .LFE14-.Ltext0
 11548 066f 04       		.uleb128 0x4
 11549 0670 A3       		.byte	0xa3
 11550 0671 01       		.uleb128 0x1
 11551 0672 59       		.byte	0x59
 11552 0673 9F       		.byte	0x9f
 11553 0674 00       		.byte	0
 11554              	.LVUS65:
 11555 0675 02       		.uleb128 .LVU299
 11556 0676 00       		.uleb128 .LVU301
 11557 0677 00       		.uleb128 .LVU301
 11558 0678 00       		.uleb128 .LVU313
 11559              	.LLST65:
 11560 0679 04       		.byte	0x4
 11561 067a AB0E     		.uleb128 .LVL146-.Ltext0
 11562 067c B20E     		.uleb128 .LVL147-.Ltext0
 11563 067e 02       		.uleb128 0x2
 11564 067f 30       		.byte	0x30
 11565 0680 9F       		.byte	0x9f
 11566 0681 04       		.byte	0x4
 11567 0682 B20E     		.uleb128 .LVL147-.Ltext0
 11568 0684 800F     		.uleb128 .LVL158-.Ltext0
 11569 0686 01       		.uleb128 0x1
 11570 0687 54       		.byte	0x54
 11571 0688 00       		.byte	0
 11572              	.LVUS66:
 11573 0689 00       		.uleb128 .LVU303
 11574 068a 00       		.uleb128 .LVU304
 11575 068b 00       		.uleb128 .LVU304
 11576 068c 00       		.uleb128 .LVU305
 11577              	.LLST66:
 11578 068d 04       		.byte	0x4
 11579 068e BA0E     		.uleb128 .LVL149-.Ltext0
 11580 0690 BE0E     		.uleb128 .LVL150-.Ltext0
 11581 0692 01       		.uleb128 0x1
 11582 0693 50       		.byte	0x50
 11583 0694 04       		.byte	0x4
 11584 0695 BE0E     		.uleb128 .LVL150-.Ltext0
 11585 0697 C30E     		.uleb128 .LVL151-1-.Ltext0
 11586 0699 01       		.uleb128 0x1
 11587 069a 51       		.byte	0x51
 11588 069b 00       		.byte	0
 11589              	.LVUS53:
 11590 069c 00       		.uleb128 0
 11591 069d 00       		.uleb128 .LVU270
 11592 069e 00       		.uleb128 .LVU270
 11593 069f 00       		.uleb128 .LVU291
 11594 06a0 00       		.uleb128 .LVU291
 11595 06a1 00       		.uleb128 0
 11596              	.LLST53:
 11597 06a2 04       		.byte	0x4
 11598 06a3 EA0C     		.uleb128 .LVL125-.Ltext0
 11599 06a5 8B0D     		.uleb128 .LVL127-.Ltext0
 11600 06a7 01       		.uleb128 0x1
 11601 06a8 52       		.byte	0x52
 11602 06a9 04       		.byte	0x4
 11603 06aa 8B0D     		.uleb128 .LVL127-.Ltext0
 11604 06ac 8D0E     		.uleb128 .LVL141-.Ltext0
 11605 06ae 01       		.uleb128 0x1
 11606 06af 55       		.byte	0x55
 11607 06b0 04       		.byte	0x4
 11608 06b1 8D0E     		.uleb128 .LVL141-.Ltext0
 11609 06b3 950E     		.uleb128 .LFE13-.Ltext0
 11610 06b5 04       		.uleb128 0x4
 11611 06b6 A3       		.byte	0xa3
 11612 06b7 01       		.uleb128 0x1
 11613 06b8 52       		.byte	0x52
 11614 06b9 9F       		.byte	0x9f
 11615 06ba 00       		.byte	0
 11616              	.LVUS54:
 11617 06bb 00       		.uleb128 0
 11618 06bc 00       		.uleb128 .LVU270
 11619 06bd 00       		.uleb128 .LVU270
 11620 06be 00       		.uleb128 .LVU294
 11621 06bf 00       		.uleb128 .LVU294
 11622 06c0 00       		.uleb128 0
 11623              	.LLST54:
 11624 06c1 04       		.byte	0x4
 11625 06c2 EA0C     		.uleb128 .LVL125-.Ltext0
 11626 06c4 8B0D     		.uleb128 .LVL127-.Ltext0
 11627 06c6 01       		.uleb128 0x1
 11628 06c7 51       		.byte	0x51
 11629 06c8 04       		.byte	0x4
 11630 06c9 8B0D     		.uleb128 .LVL127-.Ltext0
 11631 06cb 920E     		.uleb128 .LVL144-.Ltext0
 11632 06cd 01       		.uleb128 0x1
 11633 06ce 5D       		.byte	0x5d
 11634 06cf 04       		.byte	0x4
 11635 06d0 920E     		.uleb128 .LVL144-.Ltext0
 11636 06d2 950E     		.uleb128 .LFE13-.Ltext0
 11637 06d4 04       		.uleb128 0x4
 11638 06d5 A3       		.byte	0xa3
 11639 06d6 01       		.uleb128 0x1
 11640 06d7 51       		.byte	0x51
 11641 06d8 9F       		.byte	0x9f
 11642 06d9 00       		.byte	0
 11643              	.LVUS55:
 11644 06da 00       		.uleb128 0
 11645 06db 00       		.uleb128 .LVU270
 11646 06dc 00       		.uleb128 .LVU270
 11647 06dd 00       		.uleb128 .LVU293
 11648 06de 00       		.uleb128 .LVU293
 11649 06df 00       		.uleb128 0
 11650              	.LLST55:
 11651 06e0 04       		.byte	0x4
 11652 06e1 EA0C     		.uleb128 .LVL125-.Ltext0
 11653 06e3 8B0D     		.uleb128 .LVL127-.Ltext0
 11654 06e5 01       		.uleb128 0x1
 11655 06e6 58       		.byte	0x58
 11656 06e7 04       		.byte	0x4
 11657 06e8 8B0D     		.uleb128 .LVL127-.Ltext0
 11658 06ea 900E     		.uleb128 .LVL143-.Ltext0
 11659 06ec 01       		.uleb128 0x1
 11660 06ed 5C       		.byte	0x5c
 11661 06ee 04       		.byte	0x4
 11662 06ef 900E     		.uleb128 .LVL143-.Ltext0
 11663 06f1 950E     		.uleb128 .LFE13-.Ltext0
 11664 06f3 04       		.uleb128 0x4
 11665 06f4 A3       		.byte	0xa3
 11666 06f5 01       		.uleb128 0x1
 11667 06f6 58       		.byte	0x58
 11668 06f7 9F       		.byte	0x9f
 11669 06f8 00       		.byte	0
 11670              	.LVUS56:
 11671 06f9 00       		.uleb128 0
 11672 06fa 00       		.uleb128 .LVU270
 11673 06fb 00       		.uleb128 .LVU270
 11674 06fc 00       		.uleb128 .LVU292
 11675 06fd 00       		.uleb128 .LVU292
 11676 06fe 00       		.uleb128 0
 11677              	.LLST56:
 11678 06ff 04       		.byte	0x4
 11679 0700 EA0C     		.uleb128 .LVL125-.Ltext0
 11680 0702 8B0D     		.uleb128 .LVL127-.Ltext0
 11681 0704 01       		.uleb128 0x1
 11682 0705 59       		.byte	0x59
 11683 0706 04       		.byte	0x4
 11684 0707 8B0D     		.uleb128 .LVL127-.Ltext0
 11685 0709 8E0E     		.uleb128 .LVL142-.Ltext0
 11686 070b 01       		.uleb128 0x1
 11687 070c 56       		.byte	0x56
 11688 070d 04       		.byte	0x4
 11689 070e 8E0E     		.uleb128 .LVL142-.Ltext0
 11690 0710 950E     		.uleb128 .LFE13-.Ltext0
 11691 0712 04       		.uleb128 0x4
 11692 0713 A3       		.byte	0xa3
 11693 0714 01       		.uleb128 0x1
 11694 0715 59       		.byte	0x59
 11695 0716 9F       		.byte	0x9f
 11696 0717 00       		.byte	0
 11697              	.LVUS57:
 11698 0718 02       		.uleb128 .LVU268
 11699 0719 00       		.uleb128 .LVU270
 11700 071a 00       		.uleb128 .LVU270
 11701 071b 00       		.uleb128 .LVU290
 11702              	.LLST57:
 11703 071c 04       		.byte	0x4
 11704 071d 840D     		.uleb128 .LVL126-.Ltext0
 11705 071f 8B0D     		.uleb128 .LVL127-.Ltext0
 11706 0721 02       		.uleb128 0x2
 11707 0722 30       		.byte	0x30
 11708 0723 9F       		.byte	0x9f
 11709 0724 04       		.byte	0x4
 11710 0725 8B0D     		.uleb128 .LVL127-.Ltext0
 11711 0727 8C0E     		.uleb128 .LVL140-.Ltext0
 11712 0729 01       		.uleb128 0x1
 11713 072a 54       		.byte	0x54
 11714 072b 00       		.byte	0
 11715              	.LVUS58:
 11716 072c 00       		.uleb128 .LVU275
 11717 072d 00       		.uleb128 .LVU288
 11718              	.LLST58:
 11719 072e 04       		.byte	0x4
 11720 072f A80D     		.uleb128 .LVL129-.Ltext0
 11721 0731 800E     		.uleb128 .LVL139-.Ltext0
 11722 0733 01       		.uleb128 0x1
 11723 0734 53       		.byte	0x53
 11724 0735 00       		.byte	0
 11725              	.LVUS59:
 11726 0736 00       		.uleb128 .LVU280
 11727 0737 00       		.uleb128 .LVU288
 11728              	.LLST59:
 11729 0738 04       		.byte	0x4
 11730 0739 C80D     		.uleb128 .LVL131-.Ltext0
 11731 073b 800E     		.uleb128 .LVL139-.Ltext0
 11732 073d 01       		.uleb128 0x1
 11733 073e 5E       		.byte	0x5e
 11734 073f 00       		.byte	0
 11735              	.LVUS60:
 11736 0740 00       		.uleb128 .LVU282
 11737 0741 00       		.uleb128 .LVU283
 11738 0742 00       		.uleb128 .LVU283
 11739 0743 00       		.uleb128 .LVU284
 11740              	.LLST60:
 11741 0744 04       		.byte	0x4
 11742 0745 D00D     		.uleb128 .LVL133-.Ltext0
 11743 0747 D40D     		.uleb128 .LVL134-.Ltext0
 11744 0749 01       		.uleb128 0x1
 11745 074a 50       		.byte	0x50
 11746 074b 04       		.byte	0x4
 11747 074c D40D     		.uleb128 .LVL134-.Ltext0
 11748 074e D90D     		.uleb128 .LVL135-1-.Ltext0
 11749 0750 01       		.uleb128 0x1
 11750 0751 51       		.byte	0x51
 11751 0752 00       		.byte	0
 11752              	.LVUS43:
 11753 0753 00       		.uleb128 0
 11754 0754 00       		.uleb128 .LVU237
 11755 0755 00       		.uleb128 .LVU237
 11756 0756 00       		.uleb128 .LVU260
 11757 0757 00       		.uleb128 .LVU260
 11758 0758 00       		.uleb128 0
 11759              	.LLST43:
 11760 0759 04       		.byte	0x4
 11761 075a 9B0B     		.uleb128 .LVL104-.Ltext0
 11762 075c C20B     		.uleb128 .LVL106-.Ltext0
 11763 075e 01       		.uleb128 0x1
 11764 075f 52       		.byte	0x52
 11765 0760 04       		.byte	0x4
 11766 0761 C20B     		.uleb128 .LVL106-.Ltext0
 11767 0763 E10C     		.uleb128 .LVL121-.Ltext0
 11768 0765 01       		.uleb128 0x1
 11769 0766 56       		.byte	0x56
 11770 0767 04       		.byte	0x4
 11771 0768 E10C     		.uleb128 .LVL121-.Ltext0
 11772 076a EA0C     		.uleb128 .LFE12-.Ltext0
 11773 076c 04       		.uleb128 0x4
 11774 076d A3       		.byte	0xa3
 11775 076e 01       		.uleb128 0x1
 11776 076f 52       		.byte	0x52
 11777 0770 9F       		.byte	0x9f
 11778 0771 00       		.byte	0
 11779              	.LVUS44:
 11780 0772 00       		.uleb128 0
 11781 0773 00       		.uleb128 .LVU237
 11782 0774 00       		.uleb128 .LVU237
 11783 0775 00       		.uleb128 .LVU259
 11784 0776 00       		.uleb128 .LVU259
 11785 0777 00       		.uleb128 0
 11786              	.LLST44:
 11787 0778 04       		.byte	0x4
 11788 0779 9B0B     		.uleb128 .LVL104-.Ltext0
 11789 077b C20B     		.uleb128 .LVL106-.Ltext0
 11790 077d 01       		.uleb128 0x1
 11791 077e 51       		.byte	0x51
 11792 077f 04       		.byte	0x4
 11793 0780 C20B     		.uleb128 .LVL106-.Ltext0
 11794 0782 E00C     		.uleb128 .LVL120-.Ltext0
 11795 0784 01       		.uleb128 0x1
 11796 0785 55       		.byte	0x55
 11797 0786 04       		.byte	0x4
 11798 0787 E00C     		.uleb128 .LVL120-.Ltext0
 11799 0789 EA0C     		.uleb128 .LFE12-.Ltext0
 11800 078b 04       		.uleb128 0x4
 11801 078c A3       		.byte	0xa3
 11802 078d 01       		.uleb128 0x1
 11803 078e 51       		.byte	0x51
 11804 078f 9F       		.byte	0x9f
 11805 0790 00       		.byte	0
 11806              	.LVUS45:
 11807 0791 00       		.uleb128 0
 11808 0792 00       		.uleb128 .LVU237
 11809 0793 00       		.uleb128 .LVU237
 11810 0794 00       		.uleb128 .LVU263
 11811 0795 00       		.uleb128 .LVU263
 11812 0796 00       		.uleb128 0
 11813              	.LLST45:
 11814 0797 04       		.byte	0x4
 11815 0798 9B0B     		.uleb128 .LVL104-.Ltext0
 11816 079a C20B     		.uleb128 .LVL106-.Ltext0
 11817 079c 01       		.uleb128 0x1
 11818 079d 58       		.byte	0x58
 11819 079e 04       		.byte	0x4
 11820 079f C20B     		.uleb128 .LVL106-.Ltext0
 11821 07a1 E90C     		.uleb128 .LVL124-.Ltext0
 11822 07a3 01       		.uleb128 0x1
 11823 07a4 5F       		.byte	0x5f
 11824 07a5 04       		.byte	0x4
 11825 07a6 E90C     		.uleb128 .LVL124-.Ltext0
 11826 07a8 EA0C     		.uleb128 .LFE12-.Ltext0
 11827 07aa 04       		.uleb128 0x4
 11828 07ab A3       		.byte	0xa3
 11829 07ac 01       		.uleb128 0x1
 11830 07ad 58       		.byte	0x58
 11831 07ae 9F       		.byte	0x9f
 11832 07af 00       		.byte	0
 11833              	.LVUS46:
 11834 07b0 00       		.uleb128 0
 11835 07b1 00       		.uleb128 .LVU237
 11836 07b2 00       		.uleb128 .LVU237
 11837 07b3 00       		.uleb128 .LVU262
 11838 07b4 00       		.uleb128 .LVU262
 11839 07b5 00       		.uleb128 0
 11840              	.LLST46:
 11841 07b6 04       		.byte	0x4
 11842 07b7 9B0B     		.uleb128 .LVL104-.Ltext0
 11843 07b9 C20B     		.uleb128 .LVL106-.Ltext0
 11844 07bb 01       		.uleb128 0x1
 11845 07bc 59       		.byte	0x59
 11846 07bd 04       		.byte	0x4
 11847 07be C20B     		.uleb128 .LVL106-.Ltext0
 11848 07c0 E70C     		.uleb128 .LVL123-.Ltext0
 11849 07c2 01       		.uleb128 0x1
 11850 07c3 5E       		.byte	0x5e
 11851 07c4 04       		.byte	0x4
 11852 07c5 E70C     		.uleb128 .LVL123-.Ltext0
 11853 07c7 EA0C     		.uleb128 .LFE12-.Ltext0
 11854 07c9 04       		.uleb128 0x4
 11855 07ca A3       		.byte	0xa3
 11856 07cb 01       		.uleb128 0x1
 11857 07cc 59       		.byte	0x59
 11858 07cd 9F       		.byte	0x9f
 11859 07ce 00       		.byte	0
 11860              	.LVUS47:
 11861 07cf 02       		.uleb128 .LVU235
 11862 07d0 00       		.uleb128 .LVU237
 11863 07d1 00       		.uleb128 .LVU237
 11864 07d2 00       		.uleb128 .LVU261
 11865              	.LLST47:
 11866 07d3 04       		.byte	0x4
 11867 07d4 B70B     		.uleb128 .LVL105-.Ltext0
 11868 07d6 C20B     		.uleb128 .LVL106-.Ltext0
 11869 07d8 02       		.uleb128 0x2
 11870 07d9 30       		.byte	0x30
 11871 07da 9F       		.byte	0x9f
 11872 07db 04       		.byte	0x4
 11873 07dc C20B     		.uleb128 .LVL106-.Ltext0
 11874 07de E50C     		.uleb128 .LVL122-.Ltext0
 11875 07e0 01       		.uleb128 0x1
 11876 07e1 5D       		.byte	0x5d
 11877 07e2 00       		.byte	0
 11878              	.LVUS49:
 11879 07e3 00       		.uleb128 .LVU237
 11880 07e4 00       		.uleb128 .LVU256
 11881              	.LLST49:
 11882 07e5 04       		.byte	0x4
 11883 07e6 C20B     		.uleb128 .LVL106-.Ltext0
 11884 07e8 CC0C     		.uleb128 .LVL119-.Ltext0
 11885 07ea 01       		.uleb128 0x1
 11886 07eb 53       		.byte	0x53
 11887 07ec 00       		.byte	0
 11888              	.LVUS50:
 11889 07ed 00       		.uleb128 .LVU239
 11890 07ee 00       		.uleb128 .LVU251
 11891              	.LLST50:
 11892 07ef 04       		.byte	0x4
 11893 07f0 C60B     		.uleb128 .LVL107-.Ltext0
 11894 07f2 B10C     		.uleb128 .LVL116-.Ltext0
 11895 07f4 01       		.uleb128 0x1
 11896 07f5 5C       		.byte	0x5c
 11897 07f6 00       		.byte	0
 11898              	.LVUS51:
 11899 07f7 00       		.uleb128 .LVU244
 11900 07f8 00       		.uleb128 .LVU251
 11901              	.LLST51:
 11902 07f9 04       		.byte	0x4
 11903 07fa FB0B     		.uleb128 .LVL109-.Ltext0
 11904 07fc B10C     		.uleb128 .LVL116-.Ltext0
 11905 07fe 01       		.uleb128 0x1
 11906 07ff 54       		.byte	0x54
 11907 0800 00       		.byte	0
 11908              	.LVUS52:
 11909 0801 00       		.uleb128 .LVU246
 11910 0802 00       		.uleb128 .LVU247
 11911 0803 00       		.uleb128 .LVU247
 11912 0804 00       		.uleb128 .LVU248
 11913              	.LLST52:
 11914 0805 04       		.byte	0x4
 11915 0806 830C     		.uleb128 .LVL111-.Ltext0
 11916 0808 870C     		.uleb128 .LVL112-.Ltext0
 11917 080a 01       		.uleb128 0x1
 11918 080b 50       		.byte	0x50
 11919 080c 04       		.byte	0x4
 11920 080d 870C     		.uleb128 .LVL112-.Ltext0
 11921 080f 8C0C     		.uleb128 .LVL113-1-.Ltext0
 11922 0811 01       		.uleb128 0x1
 11923 0812 51       		.byte	0x51
 11924 0813 00       		.byte	0
 11925              	.LVUS36:
 11926 0814 00       		.uleb128 0
 11927 0815 00       		.uleb128 .LVU208
 11928 0816 00       		.uleb128 .LVU208
 11929 0817 00       		.uleb128 .LVU230
 11930 0818 00       		.uleb128 .LVU230
 11931 0819 00       		.uleb128 0
 11932              	.LLST36:
 11933 081a 04       		.byte	0x4
 11934 081b 8C0A     		.uleb128 .LVL85-.Ltext0
 11935 081d A80A     		.uleb128 .LVL87-.Ltext0
 11936 081f 01       		.uleb128 0x1
 11937 0820 52       		.byte	0x52
 11938 0821 04       		.byte	0x4
 11939 0822 A80A     		.uleb128 .LVL87-.Ltext0
 11940 0824 960B     		.uleb128 .LVL103-.Ltext0
 11941 0826 01       		.uleb128 0x1
 11942 0827 56       		.byte	0x56
 11943 0828 04       		.byte	0x4
 11944 0829 960B     		.uleb128 .LVL103-.Ltext0
 11945 082b 9B0B     		.uleb128 .LFE11-.Ltext0
 11946 082d 04       		.uleb128 0x4
 11947 082e A3       		.byte	0xa3
 11948 082f 01       		.uleb128 0x1
 11949 0830 52       		.byte	0x52
 11950 0831 9F       		.byte	0x9f
 11951 0832 00       		.byte	0
 11952              	.LVUS37:
 11953 0833 00       		.uleb128 0
 11954 0834 00       		.uleb128 .LVU208
 11955 0835 00       		.uleb128 .LVU208
 11956 0836 00       		.uleb128 .LVU229
 11957 0837 00       		.uleb128 .LVU229
 11958 0838 00       		.uleb128 0
 11959              	.LLST37:
 11960 0839 04       		.byte	0x4
 11961 083a 8C0A     		.uleb128 .LVL85-.Ltext0
 11962 083c A80A     		.uleb128 .LVL87-.Ltext0
 11963 083e 01       		.uleb128 0x1
 11964 083f 51       		.byte	0x51
 11965 0840 04       		.byte	0x4
 11966 0841 A80A     		.uleb128 .LVL87-.Ltext0
 11967 0843 950B     		.uleb128 .LVL102-.Ltext0
 11968 0845 01       		.uleb128 0x1
 11969 0846 55       		.byte	0x55
 11970 0847 04       		.byte	0x4
 11971 0848 950B     		.uleb128 .LVL102-.Ltext0
 11972 084a 9B0B     		.uleb128 .LFE11-.Ltext0
 11973 084c 04       		.uleb128 0x4
 11974 084d A3       		.byte	0xa3
 11975 084e 01       		.uleb128 0x1
 11976 084f 51       		.byte	0x51
 11977 0850 9F       		.byte	0x9f
 11978 0851 00       		.byte	0
 11979              	.LVUS38:
 11980 0852 00       		.uleb128 0
 11981 0853 00       		.uleb128 .LVU208
 11982 0854 00       		.uleb128 .LVU208
 11983 0855 00       		.uleb128 .LVU228
 11984 0856 00       		.uleb128 .LVU228
 11985 0857 00       		.uleb128 0
 11986              	.LLST38:
 11987 0858 04       		.byte	0x4
 11988 0859 8C0A     		.uleb128 .LVL85-.Ltext0
 11989 085b A80A     		.uleb128 .LVL87-.Ltext0
 11990 085d 01       		.uleb128 0x1
 11991 085e 58       		.byte	0x58
 11992 085f 04       		.byte	0x4
 11993 0860 A80A     		.uleb128 .LVL87-.Ltext0
 11994 0862 940B     		.uleb128 .LVL101-.Ltext0
 11995 0864 01       		.uleb128 0x1
 11996 0865 54       		.byte	0x54
 11997 0866 04       		.byte	0x4
 11998 0867 940B     		.uleb128 .LVL101-.Ltext0
 11999 0869 9B0B     		.uleb128 .LFE11-.Ltext0
 12000 086b 04       		.uleb128 0x4
 12001 086c A3       		.byte	0xa3
 12002 086d 01       		.uleb128 0x1
 12003 086e 58       		.byte	0x58
 12004 086f 9F       		.byte	0x9f
 12005 0870 00       		.byte	0
 12006              	.LVUS39:
 12007 0871 02       		.uleb128 .LVU206
 12008 0872 00       		.uleb128 .LVU208
 12009 0873 00       		.uleb128 .LVU208
 12010 0874 00       		.uleb128 .LVU227
 12011              	.LLST39:
 12012 0875 04       		.byte	0x4
 12013 0876 A10A     		.uleb128 .LVL86-.Ltext0
 12014 0878 A80A     		.uleb128 .LVL87-.Ltext0
 12015 087a 02       		.uleb128 0x2
 12016 087b 30       		.byte	0x30
 12017 087c 9F       		.byte	0x9f
 12018 087d 04       		.byte	0x4
 12019 087e A80A     		.uleb128 .LVL87-.Ltext0
 12020 0880 930B     		.uleb128 .LVL100-.Ltext0
 12021 0882 01       		.uleb128 0x1
 12022 0883 53       		.byte	0x53
 12023 0884 00       		.byte	0
 12024              	.LVUS40:
 12025 0885 00       		.uleb128 .LVU212
 12026 0886 00       		.uleb128 .LVU214
 12027 0887 00       		.uleb128 .LVU214
 12028 0888 00       		.uleb128 .LVU225
 12029              	.LLST40:
 12030 0889 04       		.byte	0x4
 12031 088a BA0A     		.uleb128 .LVL89-.Ltext0
 12032 088c BE0A     		.uleb128 .LVL90-1-.Ltext0
 12033 088e 01       		.uleb128 0x1
 12034 088f 51       		.byte	0x51
 12035 0890 04       		.byte	0x4
 12036 0891 BE0A     		.uleb128 .LVL90-1-.Ltext0
 12037 0893 880B     		.uleb128 .LVL99-.Ltext0
 12038 0895 01       		.uleb128 0x1
 12039 0896 5C       		.byte	0x5c
 12040 0897 00       		.byte	0
 12041              	.LVUS41:
 12042 0898 00       		.uleb128 .LVU216
 12043 0899 00       		.uleb128 .LVU218
 12044 089a 00       		.uleb128 .LVU218
 12045 089b 00       		.uleb128 .LVU225
 12046              	.LLST41:
 12047 089c 04       		.byte	0x4
 12048 089d CC0A     		.uleb128 .LVL91-.Ltext0
 12049 089f D00A     		.uleb128 .LVL92-1-.Ltext0
 12050 08a1 01       		.uleb128 0x1
 12051 08a2 51       		.byte	0x51
 12052 08a3 04       		.byte	0x4
 12053 08a4 D00A     		.uleb128 .LVL92-1-.Ltext0
 12054 08a6 880B     		.uleb128 .LVL99-.Ltext0
 12055 08a8 01       		.uleb128 0x1
 12056 08a9 5D       		.byte	0x5d
 12057 08aa 00       		.byte	0
 12058              	.LVUS42:
 12059 08ab 00       		.uleb128 .LVU219
 12060 08ac 00       		.uleb128 .LVU220
 12061 08ad 00       		.uleb128 .LVU220
 12062 08ae 00       		.uleb128 .LVU221
 12063              	.LLST42:
 12064 08af 04       		.byte	0x4
 12065 08b0 D40A     		.uleb128 .LVL93-.Ltext0
 12066 08b2 D80A     		.uleb128 .LVL94-.Ltext0
 12067 08b4 01       		.uleb128 0x1
 12068 08b5 50       		.byte	0x50
 12069 08b6 04       		.byte	0x4
 12070 08b7 D80A     		.uleb128 .LVL94-.Ltext0
 12071 08b9 DD0A     		.uleb128 .LVL95-1-.Ltext0
 12072 08bb 01       		.uleb128 0x1
 12073 08bc 51       		.byte	0x51
 12074 08bd 00       		.byte	0
 12075              	.LVUS24:
 12076 08be 00       		.uleb128 0
 12077 08bf 00       		.uleb128 .LVU159
 12078 08c0 00       		.uleb128 .LVU159
 12079 08c1 00       		.uleb128 0
 12080              	.LLST24:
 12081 08c2 04       		.byte	0x4
 12082 08c3 8508     		.uleb128 .LVL56-.Ltext0
 12083 08c5 B508     		.uleb128 .LVL61-.Ltext0
 12084 08c7 01       		.uleb128 0x1
 12085 08c8 52       		.byte	0x52
 12086 08c9 04       		.byte	0x4
 12087 08ca B508     		.uleb128 .LVL61-.Ltext0
 12088 08cc 8C0A     		.uleb128 .LFE10-.Ltext0
 12089 08ce 04       		.uleb128 0x4
 12090 08cf A3       		.byte	0xa3
 12091 08d0 01       		.uleb128 0x1
 12092 08d1 52       		.byte	0x52
 12093 08d2 9F       		.byte	0x9f
 12094 08d3 00       		.byte	0
 12095              	.LVUS25:
 12096 08d4 00       		.uleb128 0
 12097 08d5 00       		.uleb128 .LVU156
 12098 08d6 00       		.uleb128 .LVU156
 12099 08d7 00       		.uleb128 .LVU199
 12100 08d8 00       		.uleb128 .LVU199
 12101 08d9 00       		.uleb128 0
 12102              	.LLST25:
 12103 08da 04       		.byte	0x4
 12104 08db 8508     		.uleb128 .LVL56-.Ltext0
 12105 08dd A808     		.uleb128 .LVL58-.Ltext0
 12106 08df 01       		.uleb128 0x1
 12107 08e0 51       		.byte	0x51
 12108 08e1 04       		.byte	0x4
 12109 08e2 A808     		.uleb128 .LVL58-.Ltext0
 12110 08e4 850A     		.uleb128 .LVL82-.Ltext0
 12111 08e6 01       		.uleb128 0x1
 12112 08e7 56       		.byte	0x56
 12113 08e8 04       		.byte	0x4
 12114 08e9 850A     		.uleb128 .LVL82-.Ltext0
 12115 08eb 8C0A     		.uleb128 .LFE10-.Ltext0
 12116 08ed 04       		.uleb128 0x4
 12117 08ee A3       		.byte	0xa3
 12118 08ef 01       		.uleb128 0x1
 12119 08f0 51       		.byte	0x51
 12120 08f1 9F       		.byte	0x9f
 12121 08f2 00       		.byte	0
 12122              	.LVUS26:
 12123 08f3 00       		.uleb128 0
 12124 08f4 00       		.uleb128 .LVU158
 12125 08f5 00       		.uleb128 .LVU158
 12126 08f6 00       		.uleb128 .LVU200
 12127 08f7 00       		.uleb128 .LVU200
 12128 08f8 00       		.uleb128 0
 12129              	.LLST26:
 12130 08f9 04       		.byte	0x4
 12131 08fa 8508     		.uleb128 .LVL56-.Ltext0
 12132 08fc B208     		.uleb128 .LVL60-.Ltext0
 12133 08fe 01       		.uleb128 0x1
 12134 08ff 58       		.byte	0x58
 12135 0900 04       		.byte	0x4
 12136 0901 B208     		.uleb128 .LVL60-.Ltext0
 12137 0903 870A     		.uleb128 .LVL83-.Ltext0
 12138 0905 01       		.uleb128 0x1
 12139 0906 5C       		.byte	0x5c
 12140 0907 04       		.byte	0x4
 12141 0908 870A     		.uleb128 .LVL83-.Ltext0
 12142 090a 8C0A     		.uleb128 .LFE10-.Ltext0
 12143 090c 04       		.uleb128 0x4
 12144 090d A3       		.byte	0xa3
 12145 090e 01       		.uleb128 0x1
 12146 090f 58       		.byte	0x58
 12147 0910 9F       		.byte	0x9f
 12148 0911 00       		.byte	0
 12149              	.LVUS27:
 12150 0912 00       		.uleb128 0
 12151 0913 00       		.uleb128 .LVU157
 12152 0914 00       		.uleb128 .LVU157
 12153 0915 00       		.uleb128 .LVU201
 12154 0916 00       		.uleb128 .LVU201
 12155 0917 00       		.uleb128 0
 12156              	.LLST27:
 12157 0918 04       		.byte	0x4
 12158 0919 8508     		.uleb128 .LVL56-.Ltext0
 12159 091b AD08     		.uleb128 .LVL59-.Ltext0
 12160 091d 01       		.uleb128 0x1
 12161 091e 59       		.byte	0x59
 12162 091f 04       		.byte	0x4
 12163 0920 AD08     		.uleb128 .LVL59-.Ltext0
 12164 0922 890A     		.uleb128 .LVL84-.Ltext0
 12165 0924 01       		.uleb128 0x1
 12166 0925 5D       		.byte	0x5d
 12167 0926 04       		.byte	0x4
 12168 0927 890A     		.uleb128 .LVL84-.Ltext0
 12169 0929 8C0A     		.uleb128 .LFE10-.Ltext0
 12170 092b 04       		.uleb128 0x4
 12171 092c A3       		.byte	0xa3
 12172 092d 01       		.uleb128 0x1
 12173 092e 59       		.byte	0x59
 12174 092f 9F       		.byte	0x9f
 12175 0930 00       		.byte	0
 12176              	.LVUS28:
 12177 0931 00       		.uleb128 .LVU150
 12178 0932 00       		.uleb128 .LVU198
 12179              	.LLST28:
 12180 0933 04       		.byte	0x4
 12181 0934 A008     		.uleb128 .LVL57-.Ltext0
 12182 0936 830A     		.uleb128 .LVL81-.Ltext0
 12183 0938 01       		.uleb128 0x1
 12184 0939 54       		.byte	0x54
 12185 093a 00       		.byte	0
 12186              	.LVUS29:
 12187 093b 00       		.uleb128 .LVU165
 12188 093c 00       		.uleb128 .LVU171
 12189 093d 00       		.uleb128 .LVU177
 12190 093e 00       		.uleb128 .LVU193
 12191              	.LLST29:
 12192 093f 04       		.byte	0x4
 12193 0940 D508     		.uleb128 .LVL64-.Ltext0
 12194 0942 FA08     		.uleb128 .LVL70-.Ltext0
 12195 0944 01       		.uleb128 0x1
 12196 0945 53       		.byte	0x53
 12197 0946 04       		.byte	0x4
 12198 0947 9C09     		.uleb128 .LVL72-.Ltext0
 12199 0949 DD09     		.uleb128 .LVL77-.Ltext0
 12200 094b 01       		.uleb128 0x1
 12201 094c 53       		.byte	0x53
 12202 094d 00       		.byte	0
 12203              	.LVUS30:
 12204 094e 00       		.uleb128 .LVU165
 12205 094f 00       		.uleb128 .LVU171
 12206 0950 00       		.uleb128 .LVU182
 12207 0951 00       		.uleb128 .LVU192
 12208              	.LLST30:
 12209 0952 04       		.byte	0x4
 12210 0953 D508     		.uleb128 .LVL64-.Ltext0
 12211 0955 FA08     		.uleb128 .LVL70-.Ltext0
 12212 0957 01       		.uleb128 0x1
 12213 0958 5E       		.byte	0x5e
 12214 0959 04       		.byte	0x4
 12215 095a BC09     		.uleb128 .LVL74-.Ltext0
 12216 095c D809     		.uleb128 .LVL76-.Ltext0
 12217 095e 01       		.uleb128 0x1
 12218 095f 5E       		.byte	0x5e
 12219 0960 00       		.byte	0
 12220              	.LVUS31:
 12221 0961 00       		.uleb128 .LVU160
 12222 0962 00       		.uleb128 .LVU164
 12223              	.LLST31:
 12224 0963 04       		.byte	0x4
 12225 0964 B808     		.uleb128 .LVL62-.Ltext0
 12226 0966 CF08     		.uleb128 .LVL63-1-.Ltext0
 12227 0968 01       		.uleb128 0x1
 12228 0969 50       		.byte	0x50
 12229 096a 00       		.byte	0
 12230              	.LVUS33:
 12231 096b 00       		.uleb128 .LVU165
 12232 096c 00       		.uleb128 .LVU197
 12233              	.LLST33:
 12234 096d 04       		.byte	0x4
 12235 096e D508     		.uleb128 .LVL64-.Ltext0
 12236 0970 FD09     		.uleb128 .LVL80-.Ltext0
 12237 0972 01       		.uleb128 0x1
 12238 0973 55       		.byte	0x55
 12239 0974 00       		.byte	0
 12240              	.LVUS35:
 12241 0975 00       		.uleb128 .LVU167
 12242 0976 00       		.uleb128 .LVU168
 12243              	.LLST35:
 12244 0977 04       		.byte	0x4
 12245 0978 DD08     		.uleb128 .LVL66-.Ltext0
 12246 097a E208     		.uleb128 .LVL67-1-.Ltext0
 12247 097c 01       		.uleb128 0x1
 12248 097d 50       		.byte	0x50
 12249 097e 00       		.byte	0
 12250              	.LVUS8:
 12251 097f 00       		.uleb128 0
 12252 0980 00       		.uleb128 .LVU93
 12253 0981 00       		.uleb128 .LVU93
 12254 0982 00       		.uleb128 0
 12255              	.LLST8:
 12256 0983 04       		.byte	0x4
 12257 0984 BC04     		.uleb128 .LVL30-.Ltext0
 12258 0986 EA04     		.uleb128 .LVL32-.Ltext0
 12259 0988 01       		.uleb128 0x1
 12260 0989 52       		.byte	0x52
 12261 098a 04       		.byte	0x4
 12262 098b EA04     		.uleb128 .LVL32-.Ltext0
 12263 098d 8508     		.uleb128 .LFE9-.Ltext0
 12264 098f 04       		.uleb128 0x4
 12265 0990 A3       		.byte	0xa3
 12266 0991 01       		.uleb128 0x1
 12267 0992 52       		.byte	0x52
 12268 0993 9F       		.byte	0x9f
 12269 0994 00       		.byte	0
 12270              	.LVUS9:
 12271 0995 00       		.uleb128 .LVU89
 12272 0996 00       		.uleb128 .LVU145
 12273              	.LLST9:
 12274 0997 04       		.byte	0x4
 12275 0998 CF04     		.uleb128 .LVL31-.Ltext0
 12276 099a FE07     		.uleb128 .LVL55-.Ltext0
 12277 099c 01       		.uleb128 0x1
 12278 099d 54       		.byte	0x54
 12279 099e 00       		.byte	0
 12280              	.LVUS10:
 12281 099f 00       		.uleb128 .LVU94
 12282 09a0 00       		.uleb128 .LVU107
 12283              	.LLST10:
 12284 09a1 04       		.byte	0x4
 12285 09a2 ED04     		.uleb128 .LVL33-.Ltext0
 12286 09a4 A806     		.uleb128 .LVL37-1-.Ltext0
 12287 09a6 01       		.uleb128 0x1
 12288 09a7 50       		.byte	0x50
 12289 09a8 00       		.byte	0
 12290              	.LVUS11:
 12291 09a9 00       		.uleb128 .LVU110
 12292 09aa 00       		.uleb128 .LVU115
 12293 09ab 00       		.uleb128 .LVU117
 12294 09ac 00       		.uleb128 .LVU126
 12295              	.LLST11:
 12296 09ad 04       		.byte	0x4
 12297 09ae BA06     		.uleb128 .LVL39-.Ltext0
 12298 09b0 C706     		.uleb128 .LVL41-.Ltext0
 12299 09b2 01       		.uleb128 0x1
 12300 09b3 56       		.byte	0x56
 12301 09b4 04       		.byte	0x4
 12302 09b5 CE06     		.uleb128 .LVL42-.Ltext0
 12303 09b7 9A07     		.uleb128 .LVL48-.Ltext0
 12304 09b9 01       		.uleb128 0x1
 12305 09ba 56       		.byte	0x56
 12306 09bb 00       		.byte	0
 12307              	.LVUS12:
 12308 09bc 02       		.uleb128 .LVU98
 12309 09bd 00       		.uleb128 .LVU105
 12310 09be 00       		.uleb128 .LVU108
 12311 09bf 00       		.uleb128 .LVU144
 12312              	.LLST12:
 12313 09c0 04       		.byte	0x4
 12314 09c1 F604     		.uleb128 .LVL34-.Ltext0
 12315 09c3 9D06     		.uleb128 .LVL36-.Ltext0
 12316 09c5 02       		.uleb128 0x2
 12317 09c6 37       		.byte	0x37
 12318 09c7 9F       		.byte	0x9f
 12319 09c8 04       		.byte	0x4
 12320 09c9 AE06     		.uleb128 .LVL38-.Ltext0
 12321 09cb F507     		.uleb128 .LVL54-.Ltext0
 12322 09cd 02       		.uleb128 0x2
 12323 09ce 37       		.byte	0x37
 12324 09cf 9F       		.byte	0x9f
 12325 09d0 00       		.byte	0
 12326              	.LVUS13:
 12327 09d1 01       		.uleb128 .LVU101
 12328 09d2 00       		.uleb128 .LVU105
 12329 09d3 00       		.uleb128 .LVU108
 12330 09d4 00       		.uleb128 .LVU144
 12331              	.LLST13:
 12332 09d5 04       		.byte	0x4
 12333 09d6 9206     		.uleb128 .LVL35-.Ltext0
 12334 09d8 9D06     		.uleb128 .LVL36-.Ltext0
 12335 09da 02       		.uleb128 0x2
 12336 09db 40       		.byte	0x40
 12337 09dc 9F       		.byte	0x9f
 12338 09dd 04       		.byte	0x4
 12339 09de AE06     		.uleb128 .LVL38-.Ltext0
 12340 09e0 F507     		.uleb128 .LVL54-.Ltext0
 12341 09e2 02       		.uleb128 0x2
 12342 09e3 40       		.byte	0x40
 12343 09e4 9F       		.byte	0x9f
 12344 09e5 00       		.byte	0
 12345              	.LVUS15:
 12346 09e6 03       		.uleb128 .LVU103
 12347 09e7 00       		.uleb128 .LVU105
 12348 09e8 00       		.uleb128 .LVU108
 12349 09e9 00       		.uleb128 .LVU144
 12350              	.LLST15:
 12351 09ea 04       		.byte	0x4
 12352 09eb 9206     		.uleb128 .LVL35-.Ltext0
 12353 09ed 9D06     		.uleb128 .LVL36-.Ltext0
 12354 09ef 02       		.uleb128 0x2
 12355 09f0 30       		.byte	0x30
 12356 09f1 9F       		.byte	0x9f
 12357 09f2 04       		.byte	0x4
 12358 09f3 AE06     		.uleb128 .LVL38-.Ltext0
 12359 09f5 F507     		.uleb128 .LVL54-.Ltext0
 12360 09f7 01       		.uleb128 0x1
 12361 09f8 5D       		.byte	0x5d
 12362 09f9 00       		.byte	0
 12363              	.LVUS17:
 12364 09fa 00       		.uleb128 .LVU108
 12365 09fb 00       		.uleb128 .LVU134
 12366 09fc 00       		.uleb128 .LVU137
 12367 09fd 00       		.uleb128 .LVU138
 12368 09fe 00       		.uleb128 .LVU138
 12369 09ff 00       		.uleb128 .LVU142
 12370              	.LLST17:
 12371 0a00 04       		.byte	0x4
 12372 0a01 AE06     		.uleb128 .LVL38-.Ltext0
 12373 0a03 D007     		.uleb128 .LVL50-.Ltext0
 12374 0a05 0A       		.uleb128 0xa
 12375 0a06 7D       		.byte	0x7d
 12376 0a07 00       		.sleb128 0
 12377 0a08 33       		.byte	0x33
 12378 0a09 24       		.byte	0x24
 12379 0a0a 91       		.byte	0x91
 12380 0a0b 00       		.sleb128 0
 12381 0a0c 22       		.byte	0x22
 12382 0a0d 08       		.byte	0x8
 12383 0a0e D0       		.byte	0xd0
 12384 0a0f 1C       		.byte	0x1c
 12385 0a10 04       		.byte	0x4
 12386 0a11 DB07     		.uleb128 .LVL51-.Ltext0
 12387 0a13 E007     		.uleb128 .LVL52-1-.Ltext0
 12388 0a15 01       		.uleb128 0x1
 12389 0a16 51       		.byte	0x51
 12390 0a17 04       		.byte	0x4
 12391 0a18 E007     		.uleb128 .LVL52-1-.Ltext0
 12392 0a1a E907     		.uleb128 .LVL53-.Ltext0
 12393 0a1c 0A       		.uleb128 0xa
 12394 0a1d 7D       		.byte	0x7d
 12395 0a1e 00       		.sleb128 0
 12396 0a1f 33       		.byte	0x33
 12397 0a20 24       		.byte	0x24
 12398 0a21 91       		.byte	0x91
 12399 0a22 00       		.sleb128 0
 12400 0a23 22       		.byte	0x22
 12401 0a24 08       		.byte	0x8
 12402 0a25 D0       		.byte	0xd0
 12403 0a26 1C       		.byte	0x1c
 12404 0a27 00       		.byte	0
 12405              	.LVUS19:
 12406 0a28 00       		.uleb128 .LVU108
 12407 0a29 00       		.uleb128 .LVU134
 12408 0a2a 02       		.uleb128 .LVU140
 12409 0a2b 00       		.uleb128 .LVU142
 12410              	.LLST19:
 12411 0a2c 04       		.byte	0x4
 12412 0a2d AE06     		.uleb128 .LVL38-.Ltext0
 12413 0a2f D007     		.uleb128 .LVL50-.Ltext0
 12414 0a31 01       		.uleb128 0x1
 12415 0a32 5C       		.byte	0x5c
 12416 0a33 04       		.byte	0x4
 12417 0a34 E107     		.uleb128 .LVL52-.Ltext0
 12418 0a36 E907     		.uleb128 .LVL53-.Ltext0
 12419 0a38 02       		.uleb128 0x2
 12420 0a39 30       		.byte	0x30
 12421 0a3a 9F       		.byte	0x9f
 12422 0a3b 00       		.byte	0
 12423              	.LVUS21:
 12424 0a3c 02       		.uleb128 .LVU113
 12425 0a3d 00       		.uleb128 .LVU115
 12426 0a3e 00       		.uleb128 .LVU117
 12427 0a3f 00       		.uleb128 .LVU126
 12428              	.LLST21:
 12429 0a40 04       		.byte	0x4
 12430 0a41 C006     		.uleb128 .LVL40-.Ltext0
 12431 0a43 C706     		.uleb128 .LVL41-.Ltext0
 12432 0a45 02       		.uleb128 0x2
 12433 0a46 30       		.byte	0x30
 12434 0a47 9F       		.byte	0x9f
 12435 0a48 04       		.byte	0x4
 12436 0a49 CE06     		.uleb128 .LVL42-.Ltext0
 12437 0a4b 9A07     		.uleb128 .LVL48-.Ltext0
 12438 0a4d 01       		.uleb128 0x1
 12439 0a4e 55       		.byte	0x55
 12440 0a4f 00       		.byte	0
 12441              	.LVUS23:
 12442 0a50 00       		.uleb128 .LVU117
 12443 0a51 00       		.uleb128 .LVU122
 12444              	.LLST23:
 12445 0a52 04       		.byte	0x4
 12446 0a53 CE06     		.uleb128 .LVL42-.Ltext0
 12447 0a55 FB06     		.uleb128 .LVL46-.Ltext0
 12448 0a57 01       		.uleb128 0x1
 12449 0a58 53       		.byte	0x53
 12450 0a59 00       		.byte	0
 12451              	.LVUS6:
 12452 0a5a 00       		.uleb128 .LVU69
 12453 0a5b 00       		.uleb128 .LVU79
 12454 0a5c 00       		.uleb128 .LVU80
 12455 0a5d 00       		.uleb128 .LVU84
 12456              	.LLST6:
 12457 0a5e 04       		.byte	0x4
 12458 0a5f EF03     		.uleb128 .LVL21-.Ltext0
 12459 0a61 9404     		.uleb128 .LVL26-.Ltext0
 12460 0a63 01       		.uleb128 0x1
 12461 0a64 54       		.byte	0x54
 12462 0a65 04       		.byte	0x4
 12463 0a66 9504     		.uleb128 .LVL27-.Ltext0
 12464 0a68 BA04     		.uleb128 .LVL29-.Ltext0
 12465 0a6a 01       		.uleb128 0x1
 12466 0a6b 54       		.byte	0x54
 12467 0a6c 00       		.byte	0
 12468              	.LVUS7:
 12469 0a6d 00       		.uleb128 .LVU72
 12470 0a6e 00       		.uleb128 .LVU78
 12471 0a6f 00       		.uleb128 .LVU80
 12472 0a70 00       		.uleb128 0
 12473              	.LLST7:
 12474 0a71 04       		.byte	0x4
 12475 0a72 FC03     		.uleb128 .LVL23-.Ltext0
 12476 0a74 9304     		.uleb128 .LVL25-.Ltext0
 12477 0a76 01       		.uleb128 0x1
 12478 0a77 53       		.byte	0x53
 12479 0a78 04       		.byte	0x4
 12480 0a79 9504     		.uleb128 .LVL27-.Ltext0
 12481 0a7b BC04     		.uleb128 .LFE8-.Ltext0
 12482 0a7d 01       		.uleb128 0x1
 12483 0a7e 53       		.byte	0x53
 12484 0a7f 00       		.byte	0
 12485              	.LVUS1:
 12486 0a80 00       		.uleb128 0
 12487 0a81 00       		.uleb128 .LVU11
 12488 0a82 00       		.uleb128 .LVU11
 12489 0a83 00       		.uleb128 .LVU21
 12490 0a84 00       		.uleb128 .LVU21
 12491 0a85 00       		.uleb128 .LVU22
 12492 0a86 00       		.uleb128 .LVU22
 12493 0a87 00       		.uleb128 0
 12494              	.LLST1:
 12495 0a88 04       		.byte	0x4
 12496 0a89 15       		.uleb128 .LVL4-.Ltext0
 12497 0a8a 38       		.uleb128 .LVL5-.Ltext0
 12498 0a8b 01       		.uleb128 0x1
 12499 0a8c 52       		.byte	0x52
 12500 0a8d 04       		.byte	0x4
 12501 0a8e 38       		.uleb128 .LVL5-.Ltext0
 12502 0a8f 58       		.uleb128 .LVL7-.Ltext0
 12503 0a90 04       		.uleb128 0x4
 12504 0a91 A3       		.byte	0xa3
 12505 0a92 01       		.uleb128 0x1
 12506 0a93 52       		.byte	0x52
 12507 0a94 9F       		.byte	0x9f
 12508 0a95 04       		.byte	0x4
 12509 0a96 58       		.uleb128 .LVL7-.Ltext0
 12510 0a97 61       		.uleb128 .LVL8-.Ltext0
 12511 0a98 01       		.uleb128 0x1
 12512 0a99 52       		.byte	0x52
 12513 0a9a 04       		.byte	0x4
 12514 0a9b 61       		.uleb128 .LVL8-.Ltext0
 12515 0a9c DA01     		.uleb128 .LFE5-.Ltext0
 12516 0a9e 04       		.uleb128 0x4
 12517 0a9f A3       		.byte	0xa3
 12518 0aa0 01       		.uleb128 0x1
 12519 0aa1 52       		.byte	0x52
 12520 0aa2 9F       		.byte	0x9f
 12521 0aa3 00       		.byte	0
 12522              	.LVUS2:
 12523 0aa4 00       		.uleb128 .LVU13
 12524 0aa5 00       		.uleb128 .LVU21
 12525 0aa6 00       		.uleb128 .LVU23
 12526 0aa7 00       		.uleb128 .LVU43
 12527              	.LLST2:
 12528 0aa8 04       		.byte	0x4
 12529 0aa9 48       		.uleb128 .LVL6-.Ltext0
 12530 0aaa 58       		.uleb128 .LVL7-.Ltext0
 12531 0aab 01       		.uleb128 0x1
 12532 0aac 68       		.byte	0x68
 12533 0aad 04       		.byte	0x4
 12534 0aae 73       		.uleb128 .LVL9-.Ltext0
 12535 0aaf CE01     		.uleb128 .LVL17-.Ltext0
 12536 0ab1 01       		.uleb128 0x1
 12537 0ab2 68       		.byte	0x68
 12538 0ab3 00       		.byte	0
 12539              	.LVUS3:
 12540 0ab4 01       		.uleb128 .LVU14
 12541 0ab5 00       		.uleb128 .LVU21
 12542 0ab6 00       		.uleb128 .LVU23
 12543 0ab7 00       		.uleb128 .LVU42
 12544              	.LLST3:
 12545 0ab8 04       		.byte	0x4
 12546 0ab9 48       		.uleb128 .LVL6-.Ltext0
 12547 0aba 58       		.uleb128 .LVL7-.Ltext0
 12548 0abb 01       		.uleb128 0x1
 12549 0abc 68       		.byte	0x68
 12550 0abd 04       		.byte	0x4
 12551 0abe 73       		.uleb128 .LVL9-.Ltext0
 12552 0abf C901     		.uleb128 .LVL16-.Ltext0
 12553 0ac1 01       		.uleb128 0x1
 12554 0ac2 67       		.byte	0x67
 12555 0ac3 00       		.byte	0
 12556              	.LVUS4:
 12557 0ac4 02       		.uleb128 .LVU15
 12558 0ac5 00       		.uleb128 .LVU21
 12559 0ac6 00       		.uleb128 .LVU23
 12560 0ac7 00       		.uleb128 .LVU40
 12561              	.LLST4:
 12562 0ac8 04       		.byte	0x4
 12563 0ac9 48       		.uleb128 .LVL6-.Ltext0
 12564 0aca 58       		.uleb128 .LVL7-.Ltext0
 12565 0acb 0A       		.uleb128 0xa
 12566 0acc 9E       		.byte	0x9e
 12567 0acd 08       		.uleb128 0x8
 12568 0ace 00000000 		.long	0
 12569 0ad2 00000000 		.long	0
 12570 0ad6 04       		.byte	0x4
 12571 0ad7 73       		.uleb128 .LVL9-.Ltext0
 12572 0ad8 BF01     		.uleb128 .LVL15-.Ltext0
 12573 0ada 01       		.uleb128 0x1
 12574 0adb 69       		.byte	0x69
 12575 0adc 00       		.byte	0
 12576              	.LVUS5:
 12577 0add 03       		.uleb128 .LVU16
 12578 0ade 00       		.uleb128 .LVU21
 12579 0adf 00       		.uleb128 .LVU23
 12580 0ae0 00       		.uleb128 .LVU27
 12581 0ae1 00       		.uleb128 .LVU27
 12582 0ae2 00       		.uleb128 .LVU35
 12583 0ae3 00       		.uleb128 .LVU35
 12584 0ae4 00       		.uleb128 .LVU44
 12585              	.LLST5:
 12586 0ae5 04       		.byte	0x4
 12587 0ae6 48       		.uleb128 .LVL6-.Ltext0
 12588 0ae7 58       		.uleb128 .LVL7-.Ltext0
 12589 0ae8 02       		.uleb128 0x2
 12590 0ae9 31       		.byte	0x31
 12591 0aea 9F       		.byte	0x9f
 12592 0aeb 04       		.byte	0x4
 12593 0aec 73       		.uleb128 .LVL9-.Ltext0
 12594 0aed 7B       		.uleb128 .LVL11-.Ltext0
 12595 0aee 01       		.uleb128 0x1
 12596 0aef 53       		.byte	0x53
 12597 0af0 04       		.byte	0x4
 12598 0af1 7B       		.uleb128 .LVL11-.Ltext0
 12599 0af2 A301     		.uleb128 .LVL13-.Ltext0
 12600 0af4 01       		.uleb128 0x1
 12601 0af5 50       		.byte	0x50
 12602 0af6 04       		.byte	0x4
 12603 0af7 A301     		.uleb128 .LVL13-.Ltext0
 12604 0af9 D901     		.uleb128 .LVL18-.Ltext0
 12605 0afb 01       		.uleb128 0x1
 12606 0afc 53       		.byte	0x53
 12607 0afd 00       		.byte	0
 12608              	.LVUS0:
 12609 0afe 00       		.uleb128 0
 12610 0aff 00       		.uleb128 .LVU4
 12611 0b00 00       		.uleb128 .LVU4
 12612 0b01 00       		.uleb128 .LVU5
 12613 0b02 00       		.uleb128 .LVU5
 12614 0b03 00       		.uleb128 .LVU6
 12615 0b04 00       		.uleb128 .LVU6
 12616 0b05 00       		.uleb128 0
 12617              	.LLST0:
 12618 0b06 04       		.byte	0x4
 12619 0b07 00       		.uleb128 .LVL0-.Ltext0
 12620 0b08 0A       		.uleb128 .LVL1-.Ltext0
 12621 0b09 01       		.uleb128 0x1
 12622 0b0a 61       		.byte	0x61
 12623 0b0b 04       		.byte	0x4
 12624 0b0c 0A       		.uleb128 .LVL1-.Ltext0
 12625 0b0d 0B       		.uleb128 .LVL2-.Ltext0
 12626 0b0e 07       		.uleb128 0x7
 12627 0b0f A3       		.byte	0xa3
 12628 0b10 04       		.uleb128 0x4
 12629 0b11 A5       		.byte	0xa5
 12630 0b12 11       		.uleb128 0x11
 12631 0b13 B202     		.uleb128 0x132
 12632 0b15 9F       		.byte	0x9f
 12633 0b16 04       		.byte	0x4
 12634 0b17 0B       		.uleb128 .LVL2-.Ltext0
 12635 0b18 13       		.uleb128 .LVL3-.Ltext0
 12636 0b19 01       		.uleb128 0x1
 12637 0b1a 61       		.byte	0x61
 12638 0b1b 04       		.byte	0x4
 12639 0b1c 13       		.uleb128 .LVL3-.Ltext0
 12640 0b1d 15       		.uleb128 .LFE2-.Ltext0
 12641 0b1e 07       		.uleb128 0x7
 12642 0b1f A3       		.byte	0xa3
 12643 0b20 04       		.uleb128 0x4
 12644 0b21 A5       		.byte	0xa5
 12645 0b22 11       		.uleb128 0x11
 12646 0b23 B202     		.uleb128 0x132
 12647 0b25 9F       		.byte	0x9f
 12648 0b26 00       		.byte	0
 12649              	.Ldebug_loc3:
 12650              		.section	.debug_aranges,"dr"
 12651 0000 2C000000 		.long	0x2c
 12652 0004 0200     		.word	0x2
 12653 0006 00000000 		.secrel32	.Ldebug_info0
 12654 000a 08       		.byte	0x8
 12655 000b 00       		.byte	0
 12656 000c 0000     		.word	0
 12657 000e 0000     		.word	0
 12658 0010 00000000 		.quad	.Ltext0
 12658      00000000 
 12659 0018 B20F0000 		.quad	.Letext0-.Ltext0
 12659      00000000 
 12660 0020 00000000 		.quad	0
 12660      00000000 
 12661 0028 00000000 		.quad	0
 12661      00000000 
 12662              		.section	.debug_rnglists,"dr"
 12663              	.Ldebug_ranges0:
 12664 0000 B8000000 		.long	.Ldebug_ranges3-.Ldebug_ranges2
 12665              	.Ldebug_ranges2:
 12666 0004 0500     		.word	0x5
 12667 0006 08       		.byte	0x8
 12668 0007 00       		.byte	0
 12669 0008 00000000 		.long	0
 12670              	.LLRL14:
 12671 000c 04       		.byte	0x4
 12672 000d 9206     		.uleb128 .LBB16-.Ltext0
 12673 000f 9D06     		.uleb128 .LBE16-.Ltext0
 12674 0011 04       		.byte	0x4
 12675 0012 AE06     		.uleb128 .LBB25-.Ltext0
 12676 0014 E907     		.uleb128 .LBE25-.Ltext0
 12677 0016 00       		.byte	0
 12678              	.LLRL16:
 12679 0017 04       		.byte	0x4
 12680 0018 AE06     		.uleb128 .LBB17-.Ltext0
 12681 001a CC07     		.uleb128 .LBE17-.Ltext0
 12682 001c 04       		.byte	0x4
 12683 001d D607     		.uleb128 .LBB24-.Ltext0
 12684 001f E907     		.uleb128 .LBE24-.Ltext0
 12685 0021 00       		.byte	0
 12686              	.LLRL18:
 12687 0022 04       		.byte	0x4
 12688 0023 AE06     		.uleb128 .LBB18-.Ltext0
 12689 0025 C207     		.uleb128 .LBE18-.Ltext0
 12690 0027 04       		.byte	0x4
 12691 0028 E107     		.uleb128 .LBB23-.Ltext0
 12692 002a E907     		.uleb128 .LBE23-.Ltext0
 12693 002c 00       		.byte	0
 12694              	.LLRL20:
 12695 002d 04       		.byte	0x4
 12696 002e C006     		.uleb128 .LBB19-.Ltext0
 12697 0030 C706     		.uleb128 .LBE19-.Ltext0
 12698 0032 04       		.byte	0x4
 12699 0033 CE06     		.uleb128 .LBB22-.Ltext0
 12700 0035 8C07     		.uleb128 .LBE22-.Ltext0
 12701 0037 00       		.byte	0
 12702              	.LLRL22:
 12703 0038 04       		.byte	0x4
 12704 0039 CE06     		.uleb128 .LBB20-.Ltext0
 12705 003b F706     		.uleb128 .LBE20-.Ltext0
 12706 003d 04       		.byte	0x4
 12707 003e 8507     		.uleb128 .LBB21-.Ltext0
 12708 0040 8C07     		.uleb128 .LBE21-.Ltext0
 12709 0042 00       		.byte	0
 12710              	.LLRL32:
 12711 0043 04       		.byte	0x4
 12712 0044 BD08     		.uleb128 .LBB26-.Ltext0
 12713 0046 C408     		.uleb128 .LBE26-.Ltext0
 12714 0048 04       		.byte	0x4
 12715 0049 D508     		.uleb128 .LBB29-.Ltext0
 12716 004b DD09     		.uleb128 .LBE29-.Ltext0
 12717 004d 00       		.byte	0
 12718              	.LLRL34:
 12719 004e 04       		.byte	0x4
 12720 004f D508     		.uleb128 .LBB27-.Ltext0
 12721 0051 F708     		.uleb128 .LBE27-.Ltext0
 12722 0053 04       		.byte	0x4
 12723 0054 FF08     		.uleb128 .LBB28-.Ltext0
 12724 0056 DD09     		.uleb128 .LBE28-.Ltext0
 12725 0058 00       		.byte	0
 12726              	.LLRL48:
 12727 0059 04       		.byte	0x4
 12728 005a C20B     		.uleb128 .LBB33-.Ltext0
 12729 005c BE0C     		.uleb128 .LBE33-.Ltext0
 12730 005e 04       		.byte	0x4
 12731 005f D20C     		.uleb128 .LBB35-.Ltext0
 12732 0061 D90C     		.uleb128 .LBE35-.Ltext0
 12733 0063 00       		.byte	0
 12734              	.LLRL71:
 12735 0064 04       		.byte	0x4
 12736 0065 A20F     		.uleb128 .LBB41-.Ltext0
 12737 0067 E90F     		.uleb128 .LBE41-.Ltext0
 12738 0069 04       		.byte	0x4
 12739 006a FD0F     		.uleb128 .LBB45-.Ltext0
 12740 006c 8410     		.uleb128 .LBE45-.Ltext0
 12741 006e 00       		.byte	0
 12742              	.LLRL73:
 12743 006f 04       		.byte	0x4
 12744 0070 A20F     		.uleb128 .LBB42-.Ltext0
 12745 0072 D90F     		.uleb128 .LBE42-.Ltext0
 12746 0074 04       		.byte	0x4
 12747 0075 E20F     		.uleb128 .LBB44-.Ltext0
 12748 0077 E90F     		.uleb128 .LBE44-.Ltext0
 12749 0079 00       		.byte	0
 12750              	.LLRL80:
 12751 007a 04       		.byte	0x4
 12752 007b B310     		.uleb128 .LBB47-.Ltext0
 12753 007d A611     		.uleb128 .LBE47-.Ltext0
 12754 007f 04       		.byte	0x4
 12755 0080 BA11     		.uleb128 .LBB50-.Ltext0
 12756 0082 C111     		.uleb128 .LBE50-.Ltext0
 12757 0084 00       		.byte	0
 12758              	.LLRL82:
 12759 0085 04       		.byte	0x4
 12760 0086 B310     		.uleb128 .LBB48-.Ltext0
 12761 0088 C710     		.uleb128 .LBE48-.Ltext0
 12762 008a 04       		.byte	0x4
 12763 008b D010     		.uleb128 .LBB49-.Ltext0
 12764 008d A611     		.uleb128 .LBE49-.Ltext0
 12765 008f 00       		.byte	0
 12766              	.LLRL100:
 12767 0090 04       		.byte	0x4
 12768 0091 C813     		.uleb128 .LBB56-.Ltext0
 12769 0093 EB14     		.uleb128 .LBE56-.Ltext0
 12770 0095 04       		.byte	0x4
 12771 0096 F514     		.uleb128 .LBB60-.Ltext0
 12772 0098 9115     		.uleb128 .LBE60-.Ltext0
 12773 009a 00       		.byte	0
 12774              	.LLRL102:
 12775 009b 04       		.byte	0x4
 12776 009c C813     		.uleb128 .LBB57-.Ltext0
 12777 009e 8C14     		.uleb128 .LBE57-.Ltext0
 12778 00a0 04       		.byte	0x4
 12779 00a1 8715     		.uleb128 .LBB59-.Ltext0
 12780 00a3 9115     		.uleb128 .LBE59-.Ltext0
 12781 00a5 00       		.byte	0
 12782              	.LLRL109:
 12783 00a6 04       		.byte	0x4
 12784 00a7 FA15     		.uleb128 .LBB62-.Ltext0
 12785 00a9 E916     		.uleb128 .LBE62-.Ltext0
 12786 00ab 04       		.byte	0x4
 12787 00ac 8117     		.uleb128 .LBB64-.Ltext0
 12788 00ae 8817     		.uleb128 .LBE64-.Ltext0
 12789 00b0 00       		.byte	0
 12790              	.LLRL140:
 12791 00b1 04       		.byte	0x4
 12792 00b2 9518     		.uleb128 .LBB80-.Ltext0
 12793 00b4 AD18     		.uleb128 .LBE80-.Ltext0
 12794 00b6 04       		.byte	0x4
 12795 00b7 BA18     		.uleb128 .LBB81-.Ltext0
 12796 00b9 BD1A     		.uleb128 .LBE81-.Ltext0
 12797 00bb 00       		.byte	0
 12798              	.Ldebug_ranges3:
 12799              		.section	.debug_macro,"dr"
 12800              	.Ldebug_macro0:
 12801 0000 0500     		.word	0x5
 12802 0002 02       		.byte	0x2
 12803 0003 00000000 		.secrel32	.Ldebug_line0
 12804 0007 01       		.byte	0x1
 12805 0008 00       		.uleb128 0
 12806 0009 5F5F5354 		.ascii "__STDC__ 1\0"
 12806      44435F5F 
 12806      203100
 12807 0014 01       		.byte	0x1
 12808 0015 00       		.uleb128 0
 12809 0016 5F5F5354 		.ascii "__STDC_VERSION__ 201112L\0"
 12809      44435F56 
 12809      45525349 
 12809      4F4E5F5F 
 12809      20323031 
 12810 002f 01       		.byte	0x1
 12811 0030 00       		.uleb128 0
 12812 0031 5F5F5354 		.ascii "__STDC_UTF_16__ 1\0"
 12812      44435F55 
 12812      54465F31 
 12812      365F5F20 
 12812      3100
 12813 0043 01       		.byte	0x1
 12814 0044 00       		.uleb128 0
 12815 0045 5F5F5354 		.ascii "__STDC_UTF_32__ 1\0"
 12815      44435F55 
 12815      54465F33 
 12815      325F5F20 
 12815      3100
 12816 0057 01       		.byte	0x1
 12817 0058 00       		.uleb128 0
 12818 0059 5F5F5354 		.ascii "__STDC_HOSTED__ 0\0"
 12818      44435F48 
 12818      4F535445 
 12818      445F5F20 
 12818      3000
 12819 006b 01       		.byte	0x1
 12820 006c 00       		.uleb128 0
 12821 006d 5F5F474E 		.ascii "__GNUC__ 14\0"
 12821      55435F5F 
 12821      20313400 
 12822 0079 01       		.byte	0x1
 12823 007a 00       		.uleb128 0
 12824 007b 5F5F474E 		.ascii "__GNUC_MINOR__ 2\0"
 12824      55435F4D 
 12824      494E4F52 
 12824      5F5F2032 
 12824      00
 12825 008c 01       		.byte	0x1
 12826 008d 00       		.uleb128 0
 12827 008e 5F5F474E 		.ascii "__GNUC_PATCHLEVEL__ 0\0"
 12827      55435F50 
 12827      41544348 
 12827      4C455645 
 12827      4C5F5F20 
 12828 00a4 01       		.byte	0x1
 12829 00a5 00       		.uleb128 0
 12830 00a6 5F5F5645 		.ascii "__VERSION__ \"14.2.0\"\0"
 12830      5253494F 
 12830      4E5F5F20 
 12830      2231342E 
 12830      322E3022 
 12831 00bb 01       		.byte	0x1
 12832 00bc 00       		.uleb128 0
 12833 00bd 5F5F4154 		.ascii "__ATOMIC_RELAXED 0\0"
 12833      4F4D4943 
 12833      5F52454C 
 12833      41584544 
 12833      203000
 12834 00d0 01       		.byte	0x1
 12835 00d1 00       		.uleb128 0
 12836 00d2 5F5F4154 		.ascii "__ATOMIC_SEQ_CST 5\0"
 12836      4F4D4943 
 12836      5F534551 
 12836      5F435354 
 12836      203500
 12837 00e5 01       		.byte	0x1
 12838 00e6 00       		.uleb128 0
 12839 00e7 5F5F4154 		.ascii "__ATOMIC_ACQUIRE 2\0"
 12839      4F4D4943 
 12839      5F414351 
 12839      55495245 
 12839      203200
 12840 00fa 01       		.byte	0x1
 12841 00fb 00       		.uleb128 0
 12842 00fc 5F5F4154 		.ascii "__ATOMIC_RELEASE 3\0"
 12842      4F4D4943 
 12842      5F52454C 
 12842      45415345 
 12842      203300
 12843 010f 01       		.byte	0x1
 12844 0110 00       		.uleb128 0
 12845 0111 5F5F4154 		.ascii "__ATOMIC_ACQ_REL 4\0"
 12845      4F4D4943 
 12845      5F414351 
 12845      5F52454C 
 12845      203400
 12846 0124 01       		.byte	0x1
 12847 0125 00       		.uleb128 0
 12848 0126 5F5F4154 		.ascii "__ATOMIC_CONSUME 1\0"
 12848      4F4D4943 
 12848      5F434F4E 
 12848      53554D45 
 12848      203100
 12849 0139 01       		.byte	0x1
 12850 013a 00       		.uleb128 0
 12851 013b 5F5F7069 		.ascii "__pic__ 1\0"
 12851      635F5F20 
 12851      3100
 12852 0145 01       		.byte	0x1
 12853 0146 00       		.uleb128 0
 12854 0147 5F5F5049 		.ascii "__PIC__ 1\0"
 12854      435F5F20 
 12854      3100
 12855 0151 01       		.byte	0x1
 12856 0152 00       		.uleb128 0
 12857 0153 5F5F4F50 		.ascii "__OPTIMIZE__ 1\0"
 12857      54494D49 
 12857      5A455F5F 
 12857      203100
 12858 0162 01       		.byte	0x1
 12859 0163 00       		.uleb128 0
 12860 0164 5F5F4649 		.ascii "__FINITE_MATH_ONLY__ 0\0"
 12860      4E495445 
 12860      5F4D4154 
 12860      485F4F4E 
 12860      4C595F5F 
 12861 017b 01       		.byte	0x1
 12862 017c 00       		.uleb128 0
 12863 017d 5F5F5349 		.ascii "__SIZEOF_INT__ 4\0"
 12863      5A454F46 
 12863      5F494E54 
 12863      5F5F2034 
 12863      00
 12864 018e 01       		.byte	0x1
 12865 018f 00       		.uleb128 0
 12866 0190 5F5F5349 		.ascii "__SIZEOF_LONG__ 4\0"
 12866      5A454F46 
 12866      5F4C4F4E 
 12866      475F5F20 
 12866      3400
 12867 01a2 01       		.byte	0x1
 12868 01a3 00       		.uleb128 0
 12869 01a4 5F5F5349 		.ascii "__SIZEOF_LONG_LONG__ 8\0"
 12869      5A454F46 
 12869      5F4C4F4E 
 12869      475F4C4F 
 12869      4E475F5F 
 12870 01bb 01       		.byte	0x1
 12871 01bc 00       		.uleb128 0
 12872 01bd 5F5F5349 		.ascii "__SIZEOF_SHORT__ 2\0"
 12872      5A454F46 
 12872      5F53484F 
 12872      52545F5F 
 12872      203200
 12873 01d0 01       		.byte	0x1
 12874 01d1 00       		.uleb128 0
 12875 01d2 5F5F5349 		.ascii "__SIZEOF_FLOAT__ 4\0"
 12875      5A454F46 
 12875      5F464C4F 
 12875      41545F5F 
 12875      203400
 12876 01e5 01       		.byte	0x1
 12877 01e6 00       		.uleb128 0
 12878 01e7 5F5F5349 		.ascii "__SIZEOF_DOUBLE__ 8\0"
 12878      5A454F46 
 12878      5F444F55 
 12878      424C455F 
 12878      5F203800 
 12879 01fb 01       		.byte	0x1
 12880 01fc 00       		.uleb128 0
 12881 01fd 5F5F5349 		.ascii "__SIZEOF_LONG_DOUBLE__ 16\0"
 12881      5A454F46 
 12881      5F4C4F4E 
 12881      475F444F 
 12881      55424C45 
 12882 0217 01       		.byte	0x1
 12883 0218 00       		.uleb128 0
 12884 0219 5F5F5349 		.ascii "__SIZEOF_SIZE_T__ 8\0"
 12884      5A454F46 
 12884      5F53495A 
 12884      455F545F 
 12884      5F203800 
 12885 022d 01       		.byte	0x1
 12886 022e 00       		.uleb128 0
 12887 022f 5F5F4348 		.ascii "__CHAR_BIT__ 8\0"
 12887      41525F42 
 12887      49545F5F 
 12887      203800
 12888 023e 01       		.byte	0x1
 12889 023f 00       		.uleb128 0
 12890 0240 5F5F4249 		.ascii "__BIGGEST_ALIGNMENT__ 16\0"
 12890      47474553 
 12890      545F414C 
 12890      49474E4D 
 12890      454E545F 
 12891 0259 01       		.byte	0x1
 12892 025a 00       		.uleb128 0
 12893 025b 5F5F4F52 		.ascii "__ORDER_LITTLE_ENDIAN__ 1234\0"
 12893      4445525F 
 12893      4C495454 
 12893      4C455F45 
 12893      4E444941 
 12894 0278 01       		.byte	0x1
 12895 0279 00       		.uleb128 0
 12896 027a 5F5F4F52 		.ascii "__ORDER_BIG_ENDIAN__ 4321\0"
 12896      4445525F 
 12896      4249475F 
 12896      454E4449 
 12896      414E5F5F 
 12897 0294 01       		.byte	0x1
 12898 0295 00       		.uleb128 0
 12899 0296 5F5F4F52 		.ascii "__ORDER_PDP_ENDIAN__ 3412\0"
 12899      4445525F 
 12899      5044505F 
 12899      454E4449 
 12899      414E5F5F 
 12900 02b0 01       		.byte	0x1
 12901 02b1 00       		.uleb128 0
 12902 02b2 5F5F4259 		.ascii "__BYTE_ORDER__ __ORDER_LITTLE_ENDIAN__\0"
 12902      54455F4F 
 12902      52444552 
 12902      5F5F205F 
 12902      5F4F5244 
 12903 02d9 01       		.byte	0x1
 12904 02da 00       		.uleb128 0
 12905 02db 5F5F464C 		.ascii "__FLOAT_WORD_ORDER__ __ORDER_LITTLE_ENDIAN__\0"
 12905      4F41545F 
 12905      574F5244 
 12905      5F4F5244 
 12905      45525F5F 
 12906 0308 01       		.byte	0x1
 12907 0309 00       		.uleb128 0
 12908 030a 5F5F5349 		.ascii "__SIZEOF_POINTER__ 8\0"
 12908      5A454F46 
 12908      5F504F49 
 12908      4E544552 
 12908      5F5F2038 
 12909 031f 01       		.byte	0x1
 12910 0320 00       		.uleb128 0
 12911 0321 5F5F474E 		.ascii "__GNUC_EXECUTION_CHARSET_NAME \"UTF-8\"\0"
 12911      55435F45 
 12911      58454355 
 12911      54494F4E 
 12911      5F434841 
 12912 0347 01       		.byte	0x1
 12913 0348 00       		.uleb128 0
 12914 0349 5F5F474E 		.ascii "__GNUC_WIDE_EXECUTION_CHARSET_NAME \"UTF-16LE\"\0"
 12914      55435F57 
 12914      4944455F 
 12914      45584543 
 12914      5554494F 
 12915 0377 01       		.byte	0x1
 12916 0378 00       		.uleb128 0
 12917 0379 5F5F5349 		.ascii "__SIZE_TYPE__ long long unsigned int\0"
 12917      5A455F54 
 12917      5950455F 
 12917      5F206C6F 
 12917      6E67206C 
 12918 039e 01       		.byte	0x1
 12919 039f 00       		.uleb128 0
 12920 03a0 5F5F5054 		.ascii "__PTRDIFF_TYPE__ long long int\0"
 12920      52444946 
 12920      465F5459 
 12920      50455F5F 
 12920      206C6F6E 
 12921 03bf 01       		.byte	0x1
 12922 03c0 00       		.uleb128 0
 12923 03c1 5F5F5743 		.ascii "__WCHAR_TYPE__ short unsigned int\0"
 12923      4841525F 
 12923      54595045 
 12923      5F5F2073 
 12923      686F7274 
 12924 03e3 01       		.byte	0x1
 12925 03e4 00       		.uleb128 0
 12926 03e5 5F5F5749 		.ascii "__WINT_TYPE__ short unsigned int\0"
 12926      4E545F54 
 12926      5950455F 
 12926      5F207368 
 12926      6F727420 
 12927 0406 01       		.byte	0x1
 12928 0407 00       		.uleb128 0
 12929 0408 5F5F494E 		.ascii "__INTMAX_TYPE__ long long int\0"
 12929      544D4158 
 12929      5F545950 
 12929      455F5F20 
 12929      6C6F6E67 
 12930 0426 01       		.byte	0x1
 12931 0427 00       		.uleb128 0
 12932 0428 5F5F5549 		.ascii "__UINTMAX_TYPE__ long long unsigned int\0"
 12932      4E544D41 
 12932      585F5459 
 12932      50455F5F 
 12932      206C6F6E 
 12933 0450 01       		.byte	0x1
 12934 0451 00       		.uleb128 0
 12935 0452 5F5F4348 		.ascii "__CHAR16_TYPE__ short unsigned int\0"
 12935      41523136 
 12935      5F545950 
 12935      455F5F20 
 12935      73686F72 
 12936 0475 01       		.byte	0x1
 12937 0476 00       		.uleb128 0
 12938 0477 5F5F4348 		.ascii "__CHAR32_TYPE__ unsigned int\0"
 12938      41523332 
 12938      5F545950 
 12938      455F5F20 
 12938      756E7369 
 12939 0494 01       		.byte	0x1
 12940 0495 00       		.uleb128 0
 12941 0496 5F5F5349 		.ascii "__SIG_ATOMIC_TYPE__ int\0"
 12941      475F4154 
 12941      4F4D4943 
 12941      5F545950 
 12941      455F5F20 
 12942 04ae 01       		.byte	0x1
 12943 04af 00       		.uleb128 0
 12944 04b0 5F5F494E 		.ascii "__INT8_TYPE__ signed char\0"
 12944      54385F54 
 12944      5950455F 
 12944      5F207369 
 12944      676E6564 
 12945 04ca 01       		.byte	0x1
 12946 04cb 00       		.uleb128 0
 12947 04cc 5F5F494E 		.ascii "__INT16_TYPE__ short int\0"
 12947      5431365F 
 12947      54595045 
 12947      5F5F2073 
 12947      686F7274 
 12948 04e5 01       		.byte	0x1
 12949 04e6 00       		.uleb128 0
 12950 04e7 5F5F494E 		.ascii "__INT32_TYPE__ int\0"
 12950      5433325F 
 12950      54595045 
 12950      5F5F2069 
 12950      6E7400
 12951 04fa 01       		.byte	0x1
 12952 04fb 00       		.uleb128 0
 12953 04fc 5F5F494E 		.ascii "__INT64_TYPE__ long long int\0"
 12953      5436345F 
 12953      54595045 
 12953      5F5F206C 
 12953      6F6E6720 
 12954 0519 01       		.byte	0x1
 12955 051a 00       		.uleb128 0
 12956 051b 5F5F5549 		.ascii "__UINT8_TYPE__ unsigned char\0"
 12956      4E54385F 
 12956      54595045 
 12956      5F5F2075 
 12956      6E736967 
 12957 0538 01       		.byte	0x1
 12958 0539 00       		.uleb128 0
 12959 053a 5F5F5549 		.ascii "__UINT16_TYPE__ short unsigned int\0"
 12959      4E543136 
 12959      5F545950 
 12959      455F5F20 
 12959      73686F72 
 12960 055d 01       		.byte	0x1
 12961 055e 00       		.uleb128 0
 12962 055f 5F5F5549 		.ascii "__UINT32_TYPE__ unsigned int\0"
 12962      4E543332 
 12962      5F545950 
 12962      455F5F20 
 12962      756E7369 
 12963 057c 01       		.byte	0x1
 12964 057d 00       		.uleb128 0
 12965 057e 5F5F5549 		.ascii "__UINT64_TYPE__ long long unsigned int\0"
 12965      4E543634 
 12965      5F545950 
 12965      455F5F20 
 12965      6C6F6E67 
 12966 05a5 01       		.byte	0x1
 12967 05a6 00       		.uleb128 0
 12968 05a7 5F5F494E 		.ascii "__INT_LEAST8_TYPE__ signed char\0"
 12968      545F4C45 
 12968      41535438 
 12968      5F545950 
 12968      455F5F20 
 12969 05c7 01       		.byte	0x1
 12970 05c8 00       		.uleb128 0
 12971 05c9 5F5F494E 		.ascii "__INT_LEAST16_TYPE__ short int\0"
 12971      545F4C45 
 12971      41535431 
 12971      365F5459 
 12971      50455F5F 
 12972 05e8 01       		.byte	0x1
 12973 05e9 00       		.uleb128 0
 12974 05ea 5F5F494E 		.ascii "__INT_LEAST32_TYPE__ int\0"
 12974      545F4C45 
 12974      41535433 
 12974      325F5459 
 12974      50455F5F 
 12975 0603 01       		.byte	0x1
 12976 0604 00       		.uleb128 0
 12977 0605 5F5F494E 		.ascii "__INT_LEAST64_TYPE__ long long int\0"
 12977      545F4C45 
 12977      41535436 
 12977      345F5459 
 12977      50455F5F 
 12978 0628 01       		.byte	0x1
 12979 0629 00       		.uleb128 0
 12980 062a 5F5F5549 		.ascii "__UINT_LEAST8_TYPE__ unsigned char\0"
 12980      4E545F4C 
 12980      45415354 
 12980      385F5459 
 12980      50455F5F 
 12981 064d 01       		.byte	0x1
 12982 064e 00       		.uleb128 0
 12983 064f 5F5F5549 		.ascii "__UINT_LEAST16_TYPE__ short unsigned int\0"
 12983      4E545F4C 
 12983      45415354 
 12983      31365F54 
 12983      5950455F 
 12984 0678 01       		.byte	0x1
 12985 0679 00       		.uleb128 0
 12986 067a 5F5F5549 		.ascii "__UINT_LEAST32_TYPE__ unsigned int\0"
 12986      4E545F4C 
 12986      45415354 
 12986      33325F54 
 12986      5950455F 
 12987 069d 01       		.byte	0x1
 12988 069e 00       		.uleb128 0
 12989 069f 5F5F5549 		.ascii "__UINT_LEAST64_TYPE__ long long unsigned int\0"
 12989      4E545F4C 
 12989      45415354 
 12989      36345F54 
 12989      5950455F 
 12990 06cc 01       		.byte	0x1
 12991 06cd 00       		.uleb128 0
 12992 06ce 5F5F494E 		.ascii "__INT_FAST8_TYPE__ signed char\0"
 12992      545F4641 
 12992      5354385F 
 12992      54595045 
 12992      5F5F2073 
 12993 06ed 01       		.byte	0x1
 12994 06ee 00       		.uleb128 0
 12995 06ef 5F5F494E 		.ascii "__INT_FAST16_TYPE__ short int\0"
 12995      545F4641 
 12995      53543136 
 12995      5F545950 
 12995      455F5F20 
 12996 070d 01       		.byte	0x1
 12997 070e 00       		.uleb128 0
 12998 070f 5F5F494E 		.ascii "__INT_FAST32_TYPE__ int\0"
 12998      545F4641 
 12998      53543332 
 12998      5F545950 
 12998      455F5F20 
 12999 0727 01       		.byte	0x1
 13000 0728 00       		.uleb128 0
 13001 0729 5F5F494E 		.ascii "__INT_FAST64_TYPE__ long long int\0"
 13001      545F4641 
 13001      53543634 
 13001      5F545950 
 13001      455F5F20 
 13002 074b 01       		.byte	0x1
 13003 074c 00       		.uleb128 0
 13004 074d 5F5F5549 		.ascii "__UINT_FAST8_TYPE__ unsigned char\0"
 13004      4E545F46 
 13004      41535438 
 13004      5F545950 
 13004      455F5F20 
 13005 076f 01       		.byte	0x1
 13006 0770 00       		.uleb128 0
 13007 0771 5F5F5549 		.ascii "__UINT_FAST16_TYPE__ short unsigned int\0"
 13007      4E545F46 
 13007      41535431 
 13007      365F5459 
 13007      50455F5F 
 13008 0799 01       		.byte	0x1
 13009 079a 00       		.uleb128 0
 13010 079b 5F5F5549 		.ascii "__UINT_FAST32_TYPE__ unsigned int\0"
 13010      4E545F46 
 13010      41535433 
 13010      325F5459 
 13010      50455F5F 
 13011 07bd 01       		.byte	0x1
 13012 07be 00       		.uleb128 0
 13013 07bf 5F5F5549 		.ascii "__UINT_FAST64_TYPE__ long long unsigned int\0"
 13013      4E545F46 
 13013      41535436 
 13013      345F5459 
 13013      50455F5F 
 13014 07eb 01       		.byte	0x1
 13015 07ec 00       		.uleb128 0
 13016 07ed 5F5F494E 		.ascii "__INTPTR_TYPE__ long long int\0"
 13016      54505452 
 13016      5F545950 
 13016      455F5F20 
 13016      6C6F6E67 
 13017 080b 01       		.byte	0x1
 13018 080c 00       		.uleb128 0
 13019 080d 5F5F5549 		.ascii "__UINTPTR_TYPE__ long long unsigned int\0"
 13019      4E545054 
 13019      525F5459 
 13019      50455F5F 
 13019      206C6F6E 
 13020 0835 01       		.byte	0x1
 13021 0836 00       		.uleb128 0
 13022 0837 5F5F4758 		.ascii "__GXX_ABI_VERSION 1019\0"
 13022      585F4142 
 13022      495F5645 
 13022      5253494F 
 13022      4E203130 
 13023 084e 01       		.byte	0x1
 13024 084f 00       		.uleb128 0
 13025 0850 5F5F5343 		.ascii "__SCHAR_MAX__ 0x7f\0"
 13025      4841525F 
 13025      4D41585F 
 13025      5F203078 
 13025      376600
 13026 0863 01       		.byte	0x1
 13027 0864 00       		.uleb128 0
 13028 0865 5F5F5348 		.ascii "__SHRT_MAX__ 0x7fff\0"
 13028      52545F4D 
 13028      41585F5F 
 13028      20307837 
 13028      66666600 
 13029 0879 01       		.byte	0x1
 13030 087a 00       		.uleb128 0
 13031 087b 5F5F494E 		.ascii "__INT_MAX__ 0x7fffffff\0"
 13031      545F4D41 
 13031      585F5F20 
 13031      30783766 
 13031      66666666 
 13032 0892 01       		.byte	0x1
 13033 0893 00       		.uleb128 0
 13034 0894 5F5F4C4F 		.ascii "__LONG_MAX__ 0x7fffffffL\0"
 13034      4E475F4D 
 13034      41585F5F 
 13034      20307837 
 13034      66666666 
 13035 08ad 01       		.byte	0x1
 13036 08ae 00       		.uleb128 0
 13037 08af 5F5F4C4F 		.ascii "__LONG_LONG_MAX__ 0x7fffffffffffffffLL\0"
 13037      4E475F4C 
 13037      4F4E475F 
 13037      4D41585F 
 13037      5F203078 
 13038 08d6 01       		.byte	0x1
 13039 08d7 00       		.uleb128 0
 13040 08d8 5F5F5743 		.ascii "__WCHAR_MAX__ 0xffff\0"
 13040      4841525F 
 13040      4D41585F 
 13040      5F203078 
 13040      66666666 
 13041 08ed 01       		.byte	0x1
 13042 08ee 00       		.uleb128 0
 13043 08ef 5F5F5743 		.ascii "__WCHAR_MIN__ 0\0"
 13043      4841525F 
 13043      4D494E5F 
 13043      5F203000 
 13044 08ff 01       		.byte	0x1
 13045 0900 00       		.uleb128 0
 13046 0901 5F5F5749 		.ascii "__WINT_MAX__ 0xffff\0"
 13046      4E545F4D 
 13046      41585F5F 
 13046      20307866 
 13046      66666600 
 13047 0915 01       		.byte	0x1
 13048 0916 00       		.uleb128 0
 13049 0917 5F5F5749 		.ascii "__WINT_MIN__ 0\0"
 13049      4E545F4D 
 13049      494E5F5F 
 13049      203000
 13050 0926 01       		.byte	0x1
 13051 0927 00       		.uleb128 0
 13052 0928 5F5F5054 		.ascii "__PTRDIFF_MAX__ 0x7fffffffffffffffLL\0"
 13052      52444946 
 13052      465F4D41 
 13052      585F5F20 
 13052      30783766 
 13053 094d 01       		.byte	0x1
 13054 094e 00       		.uleb128 0
 13055 094f 5F5F5349 		.ascii "__SIZE_MAX__ 0xffffffffffffffffULL\0"
 13055      5A455F4D 
 13055      41585F5F 
 13055      20307866 
 13055      66666666 
 13056 0972 01       		.byte	0x1
 13057 0973 00       		.uleb128 0
 13058 0974 5F5F5343 		.ascii "__SCHAR_WIDTH__ 8\0"
 13058      4841525F 
 13058      57494454 
 13058      485F5F20 
 13058      3800
 13059 0986 01       		.byte	0x1
 13060 0987 00       		.uleb128 0
 13061 0988 5F5F5348 		.ascii "__SHRT_WIDTH__ 16\0"
 13061      52545F57 
 13061      49445448 
 13061      5F5F2031 
 13061      3600
 13062 099a 01       		.byte	0x1
 13063 099b 00       		.uleb128 0
 13064 099c 5F5F494E 		.ascii "__INT_WIDTH__ 32\0"
 13064      545F5749 
 13064      4454485F 
 13064      5F203332 
 13064      00
 13065 09ad 01       		.byte	0x1
 13066 09ae 00       		.uleb128 0
 13067 09af 5F5F4C4F 		.ascii "__LONG_WIDTH__ 32\0"
 13067      4E475F57 
 13067      49445448 
 13067      5F5F2033 
 13067      3200
 13068 09c1 01       		.byte	0x1
 13069 09c2 00       		.uleb128 0
 13070 09c3 5F5F4C4F 		.ascii "__LONG_LONG_WIDTH__ 64\0"
 13070      4E475F4C 
 13070      4F4E475F 
 13070      57494454 
 13070      485F5F20 
 13071 09da 01       		.byte	0x1
 13072 09db 00       		.uleb128 0
 13073 09dc 5F5F5743 		.ascii "__WCHAR_WIDTH__ 16\0"
 13073      4841525F 
 13073      57494454 
 13073      485F5F20 
 13073      313600
 13074 09ef 01       		.byte	0x1
 13075 09f0 00       		.uleb128 0
 13076 09f1 5F5F5749 		.ascii "__WINT_WIDTH__ 16\0"
 13076      4E545F57 
 13076      49445448 
 13076      5F5F2031 
 13076      3600
 13077 0a03 01       		.byte	0x1
 13078 0a04 00       		.uleb128 0
 13079 0a05 5F5F5054 		.ascii "__PTRDIFF_WIDTH__ 64\0"
 13079      52444946 
 13079      465F5749 
 13079      4454485F 
 13079      5F203634 
 13080 0a1a 01       		.byte	0x1
 13081 0a1b 00       		.uleb128 0
 13082 0a1c 5F5F5349 		.ascii "__SIZE_WIDTH__ 64\0"
 13082      5A455F57 
 13082      49445448 
 13082      5F5F2036 
 13082      3400
 13083 0a2e 01       		.byte	0x1
 13084 0a2f 00       		.uleb128 0
 13085 0a30 5F5F4249 		.ascii "__BITINT_MAXWIDTH__ 65535\0"
 13085      54494E54 
 13085      5F4D4158 
 13085      57494454 
 13085      485F5F20 
 13086 0a4a 01       		.byte	0x1
 13087 0a4b 00       		.uleb128 0
 13088 0a4c 5F5F494E 		.ascii "__INTMAX_MAX__ 0x7fffffffffffffffLL\0"
 13088      544D4158 
 13088      5F4D4158 
 13088      5F5F2030 
 13088      78376666 
 13089 0a70 01       		.byte	0x1
 13090 0a71 00       		.uleb128 0
 13091 0a72 5F5F494E 		.ascii "__INTMAX_C(c) c ## LL\0"
 13091      544D4158 
 13091      5F432863 
 13091      29206320 
 13091      2323204C 
 13092 0a88 01       		.byte	0x1
 13093 0a89 00       		.uleb128 0
 13094 0a8a 5F5F5549 		.ascii "__UINTMAX_MAX__ 0xffffffffffffffffULL\0"
 13094      4E544D41 
 13094      585F4D41 
 13094      585F5F20 
 13094      30786666 
 13095 0ab0 01       		.byte	0x1
 13096 0ab1 00       		.uleb128 0
 13097 0ab2 5F5F5549 		.ascii "__UINTMAX_C(c) c ## ULL\0"
 13097      4E544D41 
 13097      585F4328 
 13097      63292063 
 13097      20232320 
 13098 0aca 01       		.byte	0x1
 13099 0acb 00       		.uleb128 0
 13100 0acc 5F5F494E 		.ascii "__INTMAX_WIDTH__ 64\0"
 13100      544D4158 
 13100      5F574944 
 13100      54485F5F 
 13100      20363400 
 13101 0ae0 01       		.byte	0x1
 13102 0ae1 00       		.uleb128 0
 13103 0ae2 5F5F5349 		.ascii "__SIG_ATOMIC_MAX__ 0x7fffffff\0"
 13103      475F4154 
 13103      4F4D4943 
 13103      5F4D4158 
 13103      5F5F2030 
 13104 0b00 01       		.byte	0x1
 13105 0b01 00       		.uleb128 0
 13106 0b02 5F5F5349 		.ascii "__SIG_ATOMIC_MIN__ (-__SIG_ATOMIC_MAX__ - 1)\0"
 13106      475F4154 
 13106      4F4D4943 
 13106      5F4D494E 
 13106      5F5F2028 
 13107 0b2f 01       		.byte	0x1
 13108 0b30 00       		.uleb128 0
 13109 0b31 5F5F5349 		.ascii "__SIG_ATOMIC_WIDTH__ 32\0"
 13109      475F4154 
 13109      4F4D4943 
 13109      5F574944 
 13109      54485F5F 
 13110 0b49 01       		.byte	0x1
 13111 0b4a 00       		.uleb128 0
 13112 0b4b 5F5F494E 		.ascii "__INT8_MAX__ 0x7f\0"
 13112      54385F4D 
 13112      41585F5F 
 13112      20307837 
 13112      6600
 13113 0b5d 01       		.byte	0x1
 13114 0b5e 00       		.uleb128 0
 13115 0b5f 5F5F494E 		.ascii "__INT16_MAX__ 0x7fff\0"
 13115      5431365F 
 13115      4D41585F 
 13115      5F203078 
 13115      37666666 
 13116 0b74 01       		.byte	0x1
 13117 0b75 00       		.uleb128 0
 13118 0b76 5F5F494E 		.ascii "__INT32_MAX__ 0x7fffffff\0"
 13118      5433325F 
 13118      4D41585F 
 13118      5F203078 
 13118      37666666 
 13119 0b8f 01       		.byte	0x1
 13120 0b90 00       		.uleb128 0
 13121 0b91 5F5F494E 		.ascii "__INT64_MAX__ 0x7fffffffffffffffLL\0"
 13121      5436345F 
 13121      4D41585F 
 13121      5F203078 
 13121      37666666 
 13122 0bb4 01       		.byte	0x1
 13123 0bb5 00       		.uleb128 0
 13124 0bb6 5F5F5549 		.ascii "__UINT8_MAX__ 0xff\0"
 13124      4E54385F 
 13124      4D41585F 
 13124      5F203078 
 13124      666600
 13125 0bc9 01       		.byte	0x1
 13126 0bca 00       		.uleb128 0
 13127 0bcb 5F5F5549 		.ascii "__UINT16_MAX__ 0xffff\0"
 13127      4E543136 
 13127      5F4D4158 
 13127      5F5F2030 
 13127      78666666 
 13128 0be1 01       		.byte	0x1
 13129 0be2 00       		.uleb128 0
 13130 0be3 5F5F5549 		.ascii "__UINT32_MAX__ 0xffffffffU\0"
 13130      4E543332 
 13130      5F4D4158 
 13130      5F5F2030 
 13130      78666666 
 13131 0bfe 01       		.byte	0x1
 13132 0bff 00       		.uleb128 0
 13133 0c00 5F5F5549 		.ascii "__UINT64_MAX__ 0xffffffffffffffffULL\0"
 13133      4E543634 
 13133      5F4D4158 
 13133      5F5F2030 
 13133      78666666 
 13134 0c25 01       		.byte	0x1
 13135 0c26 00       		.uleb128 0
 13136 0c27 5F5F494E 		.ascii "__INT_LEAST8_MAX__ 0x7f\0"
 13136      545F4C45 
 13136      41535438 
 13136      5F4D4158 
 13136      5F5F2030 
 13137 0c3f 01       		.byte	0x1
 13138 0c40 00       		.uleb128 0
 13139 0c41 5F5F494E 		.ascii "__INT8_C(c) c\0"
 13139      54385F43 
 13139      28632920 
 13139      6300
 13140 0c4f 01       		.byte	0x1
 13141 0c50 00       		.uleb128 0
 13142 0c51 5F5F494E 		.ascii "__INT_LEAST8_WIDTH__ 8\0"
 13142      545F4C45 
 13142      41535438 
 13142      5F574944 
 13142      54485F5F 
 13143 0c68 01       		.byte	0x1
 13144 0c69 00       		.uleb128 0
 13145 0c6a 5F5F494E 		.ascii "__INT_LEAST16_MAX__ 0x7fff\0"
 13145      545F4C45 
 13145      41535431 
 13145      365F4D41 
 13145      585F5F20 
 13146 0c85 01       		.byte	0x1
 13147 0c86 00       		.uleb128 0
 13148 0c87 5F5F494E 		.ascii "__INT16_C(c) c\0"
 13148      5431365F 
 13148      43286329 
 13148      206300
 13149 0c96 01       		.byte	0x1
 13150 0c97 00       		.uleb128 0
 13151 0c98 5F5F494E 		.ascii "__INT_LEAST16_WIDTH__ 16\0"
 13151      545F4C45 
 13151      41535431 
 13151      365F5749 
 13151      4454485F 
 13152 0cb1 01       		.byte	0x1
 13153 0cb2 00       		.uleb128 0
 13154 0cb3 5F5F494E 		.ascii "__INT_LEAST32_MAX__ 0x7fffffff\0"
 13154      545F4C45 
 13154      41535433 
 13154      325F4D41 
 13154      585F5F20 
 13155 0cd2 01       		.byte	0x1
 13156 0cd3 00       		.uleb128 0
 13157 0cd4 5F5F494E 		.ascii "__INT32_C(c) c\0"
 13157      5433325F 
 13157      43286329 
 13157      206300
 13158 0ce3 01       		.byte	0x1
 13159 0ce4 00       		.uleb128 0
 13160 0ce5 5F5F494E 		.ascii "__INT_LEAST32_WIDTH__ 32\0"
 13160      545F4C45 
 13160      41535433 
 13160      325F5749 
 13160      4454485F 
 13161 0cfe 01       		.byte	0x1
 13162 0cff 00       		.uleb128 0
 13163 0d00 5F5F494E 		.ascii "__INT_LEAST64_MAX__ 0x7fffffffffffffffLL\0"
 13163      545F4C45 
 13163      41535436 
 13163      345F4D41 
 13163      585F5F20 
 13164 0d29 01       		.byte	0x1
 13165 0d2a 00       		.uleb128 0
 13166 0d2b 5F5F494E 		.ascii "__INT64_C(c) c ## LL\0"
 13166      5436345F 
 13166      43286329 
 13166      20632023 
 13166      23204C4C 
 13167 0d40 01       		.byte	0x1
 13168 0d41 00       		.uleb128 0
 13169 0d42 5F5F494E 		.ascii "__INT_LEAST64_WIDTH__ 64\0"
 13169      545F4C45 
 13169      41535436 
 13169      345F5749 
 13169      4454485F 
 13170 0d5b 01       		.byte	0x1
 13171 0d5c 00       		.uleb128 0
 13172 0d5d 5F5F5549 		.ascii "__UINT_LEAST8_MAX__ 0xff\0"
 13172      4E545F4C 
 13172      45415354 
 13172      385F4D41 
 13172      585F5F20 
 13173 0d76 01       		.byte	0x1
 13174 0d77 00       		.uleb128 0
 13175 0d78 5F5F5549 		.ascii "__UINT8_C(c) c\0"
 13175      4E54385F 
 13175      43286329 
 13175      206300
 13176 0d87 01       		.byte	0x1
 13177 0d88 00       		.uleb128 0
 13178 0d89 5F5F5549 		.ascii "__UINT_LEAST16_MAX__ 0xffff\0"
 13178      4E545F4C 
 13178      45415354 
 13178      31365F4D 
 13178      41585F5F 
 13179 0da5 01       		.byte	0x1
 13180 0da6 00       		.uleb128 0
 13181 0da7 5F5F5549 		.ascii "__UINT16_C(c) c\0"
 13181      4E543136 
 13181      5F432863 
 13181      29206300 
 13182 0db7 01       		.byte	0x1
 13183 0db8 00       		.uleb128 0
 13184 0db9 5F5F5549 		.ascii "__UINT_LEAST32_MAX__ 0xffffffffU\0"
 13184      4E545F4C 
 13184      45415354 
 13184      33325F4D 
 13184      41585F5F 
 13185 0dda 01       		.byte	0x1
 13186 0ddb 00       		.uleb128 0
 13187 0ddc 5F5F5549 		.ascii "__UINT32_C(c) c ## U\0"
 13187      4E543332 
 13187      5F432863 
 13187      29206320 
 13187      23232055 
 13188 0df1 01       		.byte	0x1
 13189 0df2 00       		.uleb128 0
 13190 0df3 5F5F5549 		.ascii "__UINT_LEAST64_MAX__ 0xffffffffffffffffULL\0"
 13190      4E545F4C 
 13190      45415354 
 13190      36345F4D 
 13190      41585F5F 
 13191 0e1e 01       		.byte	0x1
 13192 0e1f 00       		.uleb128 0
 13193 0e20 5F5F5549 		.ascii "__UINT64_C(c) c ## ULL\0"
 13193      4E543634 
 13193      5F432863 
 13193      29206320 
 13193      23232055 
 13194 0e37 01       		.byte	0x1
 13195 0e38 00       		.uleb128 0
 13196 0e39 5F5F494E 		.ascii "__INT_FAST8_MAX__ 0x7f\0"
 13196      545F4641 
 13196      5354385F 
 13196      4D41585F 
 13196      5F203078 
 13197 0e50 01       		.byte	0x1
 13198 0e51 00       		.uleb128 0
 13199 0e52 5F5F494E 		.ascii "__INT_FAST8_WIDTH__ 8\0"
 13199      545F4641 
 13199      5354385F 
 13199      57494454 
 13199      485F5F20 
 13200 0e68 01       		.byte	0x1
 13201 0e69 00       		.uleb128 0
 13202 0e6a 5F5F494E 		.ascii "__INT_FAST16_MAX__ 0x7fff\0"
 13202      545F4641 
 13202      53543136 
 13202      5F4D4158 
 13202      5F5F2030 
 13203 0e84 01       		.byte	0x1
 13204 0e85 00       		.uleb128 0
 13205 0e86 5F5F494E 		.ascii "__INT_FAST16_WIDTH__ 16\0"
 13205      545F4641 
 13205      53543136 
 13205      5F574944 
 13205      54485F5F 
 13206 0e9e 01       		.byte	0x1
 13207 0e9f 00       		.uleb128 0
 13208 0ea0 5F5F494E 		.ascii "__INT_FAST32_MAX__ 0x7fffffff\0"
 13208      545F4641 
 13208      53543332 
 13208      5F4D4158 
 13208      5F5F2030 
 13209 0ebe 01       		.byte	0x1
 13210 0ebf 00       		.uleb128 0
 13211 0ec0 5F5F494E 		.ascii "__INT_FAST32_WIDTH__ 32\0"
 13211      545F4641 
 13211      53543332 
 13211      5F574944 
 13211      54485F5F 
 13212 0ed8 01       		.byte	0x1
 13213 0ed9 00       		.uleb128 0
 13214 0eda 5F5F494E 		.ascii "__INT_FAST64_MAX__ 0x7fffffffffffffffLL\0"
 13214      545F4641 
 13214      53543634 
 13214      5F4D4158 
 13214      5F5F2030 
 13215 0f02 01       		.byte	0x1
 13216 0f03 00       		.uleb128 0
 13217 0f04 5F5F494E 		.ascii "__INT_FAST64_WIDTH__ 64\0"
 13217      545F4641 
 13217      53543634 
 13217      5F574944 
 13217      54485F5F 
 13218 0f1c 01       		.byte	0x1
 13219 0f1d 00       		.uleb128 0
 13220 0f1e 5F5F5549 		.ascii "__UINT_FAST8_MAX__ 0xff\0"
 13220      4E545F46 
 13220      41535438 
 13220      5F4D4158 
 13220      5F5F2030 
 13221 0f36 01       		.byte	0x1
 13222 0f37 00       		.uleb128 0
 13223 0f38 5F5F5549 		.ascii "__UINT_FAST16_MAX__ 0xffff\0"
 13223      4E545F46 
 13223      41535431 
 13223      365F4D41 
 13223      585F5F20 
 13224 0f53 01       		.byte	0x1
 13225 0f54 00       		.uleb128 0
 13226 0f55 5F5F5549 		.ascii "__UINT_FAST32_MAX__ 0xffffffffU\0"
 13226      4E545F46 
 13226      41535433 
 13226      325F4D41 
 13226      585F5F20 
 13227 0f75 01       		.byte	0x1
 13228 0f76 00       		.uleb128 0
 13229 0f77 5F5F5549 		.ascii "__UINT_FAST64_MAX__ 0xffffffffffffffffULL\0"
 13229      4E545F46 
 13229      41535436 
 13229      345F4D41 
 13229      585F5F20 
 13230 0fa1 01       		.byte	0x1
 13231 0fa2 00       		.uleb128 0
 13232 0fa3 5F5F494E 		.ascii "__INTPTR_MAX__ 0x7fffffffffffffffLL\0"
 13232      54505452 
 13232      5F4D4158 
 13232      5F5F2030 
 13232      78376666 
 13233 0fc7 01       		.byte	0x1
 13234 0fc8 00       		.uleb128 0
 13235 0fc9 5F5F494E 		.ascii "__INTPTR_WIDTH__ 64\0"
 13235      54505452 
 13235      5F574944 
 13235      54485F5F 
 13235      20363400 
 13236 0fdd 01       		.byte	0x1
 13237 0fde 00       		.uleb128 0
 13238 0fdf 5F5F5549 		.ascii "__UINTPTR_MAX__ 0xffffffffffffffffULL\0"
 13238      4E545054 
 13238      525F4D41 
 13238      585F5F20 
 13238      30786666 
 13239 1005 01       		.byte	0x1
 13240 1006 00       		.uleb128 0
 13241 1007 5F5F4743 		.ascii "__GCC_IEC_559 2\0"
 13241      435F4945 
 13241      435F3535 
 13241      39203200 
 13242 1017 01       		.byte	0x1
 13243 1018 00       		.uleb128 0
 13244 1019 5F5F4743 		.ascii "__GCC_IEC_559_COMPLEX 2\0"
 13244      435F4945 
 13244      435F3535 
 13244      395F434F 
 13244      4D504C45 
 13245 1031 01       		.byte	0x1
 13246 1032 00       		.uleb128 0
 13247 1033 5F5F464C 		.ascii "__FLT_EVAL_METHOD__ 0\0"
 13247      545F4556 
 13247      414C5F4D 
 13247      4554484F 
 13247      445F5F20 
 13248 1049 01       		.byte	0x1
 13249 104a 00       		.uleb128 0
 13250 104b 5F5F464C 		.ascii "__FLT_EVAL_METHOD_TS_18661_3__ 0\0"
 13250      545F4556 
 13250      414C5F4D 
 13250      4554484F 
 13250      445F5453 
 13251 106c 01       		.byte	0x1
 13252 106d 00       		.uleb128 0
 13253 106e 5F5F4445 		.ascii "__DEC_EVAL_METHOD__ 2\0"
 13253      435F4556 
 13253      414C5F4D 
 13253      4554484F 
 13253      445F5F20 
 13254 1084 01       		.byte	0x1
 13255 1085 00       		.uleb128 0
 13256 1086 5F5F464C 		.ascii "__FLT_RADIX__ 2\0"
 13256      545F5241 
 13256      4449585F 
 13256      5F203200 
 13257 1096 01       		.byte	0x1
 13258 1097 00       		.uleb128 0
 13259 1098 5F5F464C 		.ascii "__FLT_MANT_DIG__ 24\0"
 13259      545F4D41 
 13259      4E545F44 
 13259      49475F5F 
 13259      20323400 
 13260 10ac 01       		.byte	0x1
 13261 10ad 00       		.uleb128 0
 13262 10ae 5F5F464C 		.ascii "__FLT_DIG__ 6\0"
 13262      545F4449 
 13262      475F5F20 
 13262      3600
 13263 10bc 01       		.byte	0x1
 13264 10bd 00       		.uleb128 0
 13265 10be 5F5F464C 		.ascii "__FLT_MIN_EXP__ (-125)\0"
 13265      545F4D49 
 13265      4E5F4558 
 13265      505F5F20 
 13265      282D3132 
 13266 10d5 01       		.byte	0x1
 13267 10d6 00       		.uleb128 0
 13268 10d7 5F5F464C 		.ascii "__FLT_MIN_10_EXP__ (-37)\0"
 13268      545F4D49 
 13268      4E5F3130 
 13268      5F455850 
 13268      5F5F2028 
 13269 10f0 01       		.byte	0x1
 13270 10f1 00       		.uleb128 0
 13271 10f2 5F5F464C 		.ascii "__FLT_MAX_EXP__ 128\0"
 13271      545F4D41 
 13271      585F4558 
 13271      505F5F20 
 13271      31323800 
 13272 1106 01       		.byte	0x1
 13273 1107 00       		.uleb128 0
 13274 1108 5F5F464C 		.ascii "__FLT_MAX_10_EXP__ 38\0"
 13274      545F4D41 
 13274      585F3130 
 13274      5F455850 
 13274      5F5F2033 
 13275 111e 01       		.byte	0x1
 13276 111f 00       		.uleb128 0
 13277 1120 5F5F464C 		.ascii "__FLT_DECIMAL_DIG__ 9\0"
 13277      545F4445 
 13277      43494D41 
 13277      4C5F4449 
 13277      475F5F20 
 13278 1136 01       		.byte	0x1
 13279 1137 00       		.uleb128 0
 13280 1138 5F5F464C 		.ascii "__FLT_MAX__ 3.40282346638528859811704183484516925e+38F\0"
 13280      545F4D41 
 13280      585F5F20 
 13280      332E3430 
 13280      32383233 
 13281 116f 01       		.byte	0x1
 13282 1170 00       		.uleb128 0
 13283 1171 5F5F464C 		.ascii "__FLT_NORM_MAX__ 3.40282346638528859811704183484516925e+38F\0"
 13283      545F4E4F 
 13283      524D5F4D 
 13283      41585F5F 
 13283      20332E34 
 13284 11ad 01       		.byte	0x1
 13285 11ae 00       		.uleb128 0
 13286 11af 5F5F464C 		.ascii "__FLT_MIN__ 1.17549435082228750796873653722224568e-38F\0"
 13286      545F4D49 
 13286      4E5F5F20 
 13286      312E3137 
 13286      35343934 
 13287 11e6 01       		.byte	0x1
 13288 11e7 00       		.uleb128 0
 13289 11e8 5F5F464C 		.ascii "__FLT_EPSILON__ 1.19209289550781250000000000000000000e-7F\0"
 13289      545F4550 
 13289      53494C4F 
 13289      4E5F5F20 
 13289      312E3139 
 13290 1222 01       		.byte	0x1
 13291 1223 00       		.uleb128 0
 13292 1224 5F5F464C 		.ascii "__FLT_DENORM_MIN__ 1.40129846432481707092372958328991613e-45F\0"
 13292      545F4445 
 13292      4E4F524D 
 13292      5F4D494E 
 13292      5F5F2031 
 13293 1262 01       		.byte	0x1
 13294 1263 00       		.uleb128 0
 13295 1264 5F5F464C 		.ascii "__FLT_HAS_DENORM__ 1\0"
 13295      545F4841 
 13295      535F4445 
 13295      4E4F524D 
 13295      5F5F2031 
 13296 1279 01       		.byte	0x1
 13297 127a 00       		.uleb128 0
 13298 127b 5F5F464C 		.ascii "__FLT_HAS_INFINITY__ 1\0"
 13298      545F4841 
 13298      535F494E 
 13298      46494E49 
 13298      54595F5F 
 13299 1292 01       		.byte	0x1
 13300 1293 00       		.uleb128 0
 13301 1294 5F5F464C 		.ascii "__FLT_HAS_QUIET_NAN__ 1\0"
 13301      545F4841 
 13301      535F5155 
 13301      4945545F 
 13301      4E414E5F 
 13302 12ac 01       		.byte	0x1
 13303 12ad 00       		.uleb128 0
 13304 12ae 5F5F464C 		.ascii "__FLT_IS_IEC_60559__ 1\0"
 13304      545F4953 
 13304      5F494543 
 13304      5F363035 
 13304      35395F5F 
 13305 12c5 01       		.byte	0x1
 13306 12c6 00       		.uleb128 0
 13307 12c7 5F5F4442 		.ascii "__DBL_MANT_DIG__ 53\0"
 13307      4C5F4D41 
 13307      4E545F44 
 13307      49475F5F 
 13307      20353300 
 13308 12db 01       		.byte	0x1
 13309 12dc 00       		.uleb128 0
 13310 12dd 5F5F4442 		.ascii "__DBL_DIG__ 15\0"
 13310      4C5F4449 
 13310      475F5F20 
 13310      313500
 13311 12ec 01       		.byte	0x1
 13312 12ed 00       		.uleb128 0
 13313 12ee 5F5F4442 		.ascii "__DBL_MIN_EXP__ (-1021)\0"
 13313      4C5F4D49 
 13313      4E5F4558 
 13313      505F5F20 
 13313      282D3130 
 13314 1306 01       		.byte	0x1
 13315 1307 00       		.uleb128 0
 13316 1308 5F5F4442 		.ascii "__DBL_MIN_10_EXP__ (-307)\0"
 13316      4C5F4D49 
 13316      4E5F3130 
 13316      5F455850 
 13316      5F5F2028 
 13317 1322 01       		.byte	0x1
 13318 1323 00       		.uleb128 0
 13319 1324 5F5F4442 		.ascii "__DBL_MAX_EXP__ 1024\0"
 13319      4C5F4D41 
 13319      585F4558 
 13319      505F5F20 
 13319      31303234 
 13320 1339 01       		.byte	0x1
 13321 133a 00       		.uleb128 0
 13322 133b 5F5F4442 		.ascii "__DBL_MAX_10_EXP__ 308\0"
 13322      4C5F4D41 
 13322      585F3130 
 13322      5F455850 
 13322      5F5F2033 
 13323 1352 01       		.byte	0x1
 13324 1353 00       		.uleb128 0
 13325 1354 5F5F4442 		.ascii "__DBL_DECIMAL_DIG__ 17\0"
 13325      4C5F4445 
 13325      43494D41 
 13325      4C5F4449 
 13325      475F5F20 
 13326 136b 01       		.byte	0x1
 13327 136c 00       		.uleb128 0
 13328 136d 5F5F4442 		.ascii "__DBL_MAX__ ((double)1.79769313486231570814527423731704357e+308L)\0"
 13328      4C5F4D41 
 13328      585F5F20 
 13328      2828646F 
 13328      75626C65 
 13329 13af 01       		.byte	0x1
 13330 13b0 00       		.uleb128 0
 13331 13b1 5F5F4442 		.ascii "__DBL_NORM_MAX__ ((double)1.79769313486231570814527423731704357e+308L)\0"
 13331      4C5F4E4F 
 13331      524D5F4D 
 13331      41585F5F 
 13331      20282864 
 13332 13f8 01       		.byte	0x1
 13333 13f9 00       		.uleb128 0
 13334 13fa 5F5F4442 		.ascii "__DBL_MIN__ ((double)2.22507385850720138309023271733240406e-308L)\0"
 13334      4C5F4D49 
 13334      4E5F5F20 
 13334      2828646F 
 13334      75626C65 
 13335 143c 01       		.byte	0x1
 13336 143d 00       		.uleb128 0
 13337 143e 5F5F4442 		.ascii "__DBL_EPSILON__ ((double)2.22044604925031308084726333618164062e-16L)\0"
 13337      4C5F4550 
 13337      53494C4F 
 13337      4E5F5F20 
 13337      2828646F 
 13338 1483 01       		.byte	0x1
 13339 1484 00       		.uleb128 0
 13340 1485 5F5F4442 		.ascii "__DBL_DENORM_MIN__ ((double)4.94065645841246544176568792868221372e-324L)\0"
 13340      4C5F4445 
 13340      4E4F524D 
 13340      5F4D494E 
 13340      5F5F2028 
 13341 14ce 01       		.byte	0x1
 13342 14cf 00       		.uleb128 0
 13343 14d0 5F5F4442 		.ascii "__DBL_HAS_DENORM__ 1\0"
 13343      4C5F4841 
 13343      535F4445 
 13343      4E4F524D 
 13343      5F5F2031 
 13344 14e5 01       		.byte	0x1
 13345 14e6 00       		.uleb128 0
 13346 14e7 5F5F4442 		.ascii "__DBL_HAS_INFINITY__ 1\0"
 13346      4C5F4841 
 13346      535F494E 
 13346      46494E49 
 13346      54595F5F 
 13347 14fe 01       		.byte	0x1
 13348 14ff 00       		.uleb128 0
 13349 1500 5F5F4442 		.ascii "__DBL_HAS_QUIET_NAN__ 1\0"
 13349      4C5F4841 
 13349      535F5155 
 13349      4945545F 
 13349      4E414E5F 
 13350 1518 01       		.byte	0x1
 13351 1519 00       		.uleb128 0
 13352 151a 5F5F4442 		.ascii "__DBL_IS_IEC_60559__ 1\0"
 13352      4C5F4953 
 13352      5F494543 
 13352      5F363035 
 13352      35395F5F 
 13353 1531 01       		.byte	0x1
 13354 1532 00       		.uleb128 0
 13355 1533 5F5F4C44 		.ascii "__LDBL_MANT_DIG__ 64\0"
 13355      424C5F4D 
 13355      414E545F 
 13355      4449475F 
 13355      5F203634 
 13356 1548 01       		.byte	0x1
 13357 1549 00       		.uleb128 0
 13358 154a 5F5F4C44 		.ascii "__LDBL_DIG__ 18\0"
 13358      424C5F44 
 13358      49475F5F 
 13358      20313800 
 13359 155a 01       		.byte	0x1
 13360 155b 00       		.uleb128 0
 13361 155c 5F5F4C44 		.ascii "__LDBL_MIN_EXP__ (-16381)\0"
 13361      424C5F4D 
 13361      494E5F45 
 13361      58505F5F 
 13361      20282D31 
 13362 1576 01       		.byte	0x1
 13363 1577 00       		.uleb128 0
 13364 1578 5F5F4C44 		.ascii "__LDBL_MIN_10_EXP__ (-4931)\0"
 13364      424C5F4D 
 13364      494E5F31 
 13364      305F4558 
 13364      505F5F20 
 13365 1594 01       		.byte	0x1
 13366 1595 00       		.uleb128 0
 13367 1596 5F5F4C44 		.ascii "__LDBL_MAX_EXP__ 16384\0"
 13367      424C5F4D 
 13367      41585F45 
 13367      58505F5F 
 13367      20313633 
 13368 15ad 01       		.byte	0x1
 13369 15ae 00       		.uleb128 0
 13370 15af 5F5F4C44 		.ascii "__LDBL_MAX_10_EXP__ 4932\0"
 13370      424C5F4D 
 13370      41585F31 
 13370      305F4558 
 13370      505F5F20 
 13371 15c8 01       		.byte	0x1
 13372 15c9 00       		.uleb128 0
 13373 15ca 5F5F4445 		.ascii "__DECIMAL_DIG__ 21\0"
 13373      43494D41 
 13373      4C5F4449 
 13373      475F5F20 
 13373      323100
 13374 15dd 01       		.byte	0x1
 13375 15de 00       		.uleb128 0
 13376 15df 5F5F4C44 		.ascii "__LDBL_DECIMAL_DIG__ 21\0"
 13376      424C5F44 
 13376      4543494D 
 13376      414C5F44 
 13376      49475F5F 
 13377 15f7 01       		.byte	0x1
 13378 15f8 00       		.uleb128 0
 13379 15f9 5F5F4C44 		.ascii "__LDBL_MAX__ 1.18973149535723176502126385303097021e+4932L\0"
 13379      424C5F4D 
 13379      41585F5F 
 13379      20312E31 
 13379      38393733 
 13380 1633 01       		.byte	0x1
 13381 1634 00       		.uleb128 0
 13382 1635 5F5F4C44 		.ascii "__LDBL_NORM_MAX__ 1.18973149535723176502126385303097021e+4932L\0"
 13382      424C5F4E 
 13382      4F524D5F 
 13382      4D41585F 
 13382      5F20312E 
 13383 1674 01       		.byte	0x1
 13384 1675 00       		.uleb128 0
 13385 1676 5F5F4C44 		.ascii "__LDBL_MIN__ 3.36210314311209350626267781732175260e-4932L\0"
 13385      424C5F4D 
 13385      494E5F5F 
 13385      20332E33 
 13385      36323130 
 13386 16b0 01       		.byte	0x1
 13387 16b1 00       		.uleb128 0
 13388 16b2 5F5F4C44 		.ascii "__LDBL_EPSILON__ 1.08420217248550443400745280086994171e-19L\0"
 13388      424C5F45 
 13388      5053494C 
 13388      4F4E5F5F 
 13388      20312E30 
 13389 16ee 01       		.byte	0x1
 13390 16ef 00       		.uleb128 0
 13391 16f0 5F5F4C44 		.ascii "__LDBL_DENORM_MIN__ 3.64519953188247460252840593361941982e-4951L\0"
 13391      424C5F44 
 13391      454E4F52 
 13391      4D5F4D49 
 13391      4E5F5F20 
 13392 1731 01       		.byte	0x1
 13393 1732 00       		.uleb128 0
 13394 1733 5F5F4C44 		.ascii "__LDBL_HAS_DENORM__ 1\0"
 13394      424C5F48 
 13394      41535F44 
 13394      454E4F52 
 13394      4D5F5F20 
 13395 1749 01       		.byte	0x1
 13396 174a 00       		.uleb128 0
 13397 174b 5F5F4C44 		.ascii "__LDBL_HAS_INFINITY__ 1\0"
 13397      424C5F48 
 13397      41535F49 
 13397      4E46494E 
 13397      4954595F 
 13398 1763 01       		.byte	0x1
 13399 1764 00       		.uleb128 0
 13400 1765 5F5F4C44 		.ascii "__LDBL_HAS_QUIET_NAN__ 1\0"
 13400      424C5F48 
 13400      41535F51 
 13400      55494554 
 13400      5F4E414E 
 13401 177e 01       		.byte	0x1
 13402 177f 00       		.uleb128 0
 13403 1780 5F5F4C44 		.ascii "__LDBL_IS_IEC_60559__ 1\0"
 13403      424C5F49 
 13403      535F4945 
 13403      435F3630 
 13403      3535395F 
 13404 1798 01       		.byte	0x1
 13405 1799 00       		.uleb128 0
 13406 179a 5F5F464C 		.ascii "__FLT16_MANT_DIG__ 11\0"
 13406      5431365F 
 13406      4D414E54 
 13406      5F444947 
 13406      5F5F2031 
 13407 17b0 01       		.byte	0x1
 13408 17b1 00       		.uleb128 0
 13409 17b2 5F5F464C 		.ascii "__FLT16_DIG__ 3\0"
 13409      5431365F 
 13409      4449475F 
 13409      5F203300 
 13410 17c2 01       		.byte	0x1
 13411 17c3 00       		.uleb128 0
 13412 17c4 5F5F464C 		.ascii "__FLT16_MIN_EXP__ (-13)\0"
 13412      5431365F 
 13412      4D494E5F 
 13412      4558505F 
 13412      5F20282D 
 13413 17dc 01       		.byte	0x1
 13414 17dd 00       		.uleb128 0
 13415 17de 5F5F464C 		.ascii "__FLT16_MIN_10_EXP__ (-4)\0"
 13415      5431365F 
 13415      4D494E5F 
 13415      31305F45 
 13415      58505F5F 
 13416 17f8 01       		.byte	0x1
 13417 17f9 00       		.uleb128 0
 13418 17fa 5F5F464C 		.ascii "__FLT16_MAX_EXP__ 16\0"
 13418      5431365F 
 13418      4D41585F 
 13418      4558505F 
 13418      5F203136 
 13419 180f 01       		.byte	0x1
 13420 1810 00       		.uleb128 0
 13421 1811 5F5F464C 		.ascii "__FLT16_MAX_10_EXP__ 4\0"
 13421      5431365F 
 13421      4D41585F 
 13421      31305F45 
 13421      58505F5F 
 13422 1828 01       		.byte	0x1
 13423 1829 00       		.uleb128 0
 13424 182a 5F5F464C 		.ascii "__FLT16_DECIMAL_DIG__ 5\0"
 13424      5431365F 
 13424      44454349 
 13424      4D414C5F 
 13424      4449475F 
 13425 1842 01       		.byte	0x1
 13426 1843 00       		.uleb128 0
 13427 1844 5F5F464C 		.ascii "__FLT16_MAX__ 6.55040000000000000000000000000000000e+4F16\0"
 13427      5431365F 
 13427      4D41585F 
 13427      5F20362E 
 13427      35353034 
 13428 187e 01       		.byte	0x1
 13429 187f 00       		.uleb128 0
 13430 1880 5F5F464C 		.ascii "__FLT16_NORM_MAX__ 6.55040000000000000000000000000000000e+4F16\0"
 13430      5431365F 
 13430      4E4F524D 
 13430      5F4D4158 
 13430      5F5F2036 
 13431 18bf 01       		.byte	0x1
 13432 18c0 00       		.uleb128 0
 13433 18c1 5F5F464C 		.ascii "__FLT16_MIN__ 6.10351562500000000000000000000000000e-5F16\0"
 13433      5431365F 
 13433      4D494E5F 
 13433      5F20362E 
 13433      31303335 
 13434 18fb 01       		.byte	0x1
 13435 18fc 00       		.uleb128 0
 13436 18fd 5F5F464C 		.ascii "__FLT16_EPSILON__ 9.76562500000000000000000000000000000e-4F16\0"
 13436      5431365F 
 13436      45505349 
 13436      4C4F4E5F 
 13436      5F20392E 
 13437 193b 01       		.byte	0x1
 13438 193c 00       		.uleb128 0
 13439 193d 5F5F464C 		.ascii "__FLT16_DENORM_MIN__ 5.96046447753906250000000000000000000e-8F16\0"
 13439      5431365F 
 13439      44454E4F 
 13439      524D5F4D 
 13439      494E5F5F 
 13440 197e 01       		.byte	0x1
 13441 197f 00       		.uleb128 0
 13442 1980 5F5F464C 		.ascii "__FLT16_HAS_DENORM__ 1\0"
 13442      5431365F 
 13442      4841535F 
 13442      44454E4F 
 13442      524D5F5F 
 13443 1997 01       		.byte	0x1
 13444 1998 00       		.uleb128 0
 13445 1999 5F5F464C 		.ascii "__FLT16_HAS_INFINITY__ 1\0"
 13445      5431365F 
 13445      4841535F 
 13445      494E4649 
 13445      4E495459 
 13446 19b2 01       		.byte	0x1
 13447 19b3 00       		.uleb128 0
 13448 19b4 5F5F464C 		.ascii "__FLT16_HAS_QUIET_NAN__ 1\0"
 13448      5431365F 
 13448      4841535F 
 13448      51554945 
 13448      545F4E41 
 13449 19ce 01       		.byte	0x1
 13450 19cf 00       		.uleb128 0
 13451 19d0 5F5F464C 		.ascii "__FLT16_IS_IEC_60559__ 1\0"
 13451      5431365F 
 13451      49535F49 
 13451      45435F36 
 13451      30353539 
 13452 19e9 01       		.byte	0x1
 13453 19ea 00       		.uleb128 0
 13454 19eb 5F5F464C 		.ascii "__FLT32_MANT_DIG__ 24\0"
 13454      5433325F 
 13454      4D414E54 
 13454      5F444947 
 13454      5F5F2032 
 13455 1a01 01       		.byte	0x1
 13456 1a02 00       		.uleb128 0
 13457 1a03 5F5F464C 		.ascii "__FLT32_DIG__ 6\0"
 13457      5433325F 
 13457      4449475F 
 13457      5F203600 
 13458 1a13 01       		.byte	0x1
 13459 1a14 00       		.uleb128 0
 13460 1a15 5F5F464C 		.ascii "__FLT32_MIN_EXP__ (-125)\0"
 13460      5433325F 
 13460      4D494E5F 
 13460      4558505F 
 13460      5F20282D 
 13461 1a2e 01       		.byte	0x1
 13462 1a2f 00       		.uleb128 0
 13463 1a30 5F5F464C 		.ascii "__FLT32_MIN_10_EXP__ (-37)\0"
 13463      5433325F 
 13463      4D494E5F 
 13463      31305F45 
 13463      58505F5F 
 13464 1a4b 01       		.byte	0x1
 13465 1a4c 00       		.uleb128 0
 13466 1a4d 5F5F464C 		.ascii "__FLT32_MAX_EXP__ 128\0"
 13466      5433325F 
 13466      4D41585F 
 13466      4558505F 
 13466      5F203132 
 13467 1a63 01       		.byte	0x1
 13468 1a64 00       		.uleb128 0
 13469 1a65 5F5F464C 		.ascii "__FLT32_MAX_10_EXP__ 38\0"
 13469      5433325F 
 13469      4D41585F 
 13469      31305F45 
 13469      58505F5F 
 13470 1a7d 01       		.byte	0x1
 13471 1a7e 00       		.uleb128 0
 13472 1a7f 5F5F464C 		.ascii "__FLT32_DECIMAL_DIG__ 9\0"
 13472      5433325F 
 13472      44454349 
 13472      4D414C5F 
 13472      4449475F 
 13473 1a97 01       		.byte	0x1
 13474 1a98 00       		.uleb128 0
 13475 1a99 5F5F464C 		.ascii "__FLT32_MAX__ 3.40282346638528859811704183484516925e+38F32\0"
 13475      5433325F 
 13475      4D41585F 
 13475      5F20332E 
 13475      34303238 
 13476 1ad4 01       		.byte	0x1
 13477 1ad5 00       		.uleb128 0
 13478 1ad6 5F5F464C 		.ascii "__FLT32_NORM_MAX__ 3.40282346638528859811704183484516925e+38F32\0"
 13478      5433325F 
 13478      4E4F524D 
 13478      5F4D4158 
 13478      5F5F2033 
 13479 1b16 01       		.byte	0x1
 13480 1b17 00       		.uleb128 0
 13481 1b18 5F5F464C 		.ascii "__FLT32_MIN__ 1.17549435082228750796873653722224568e-38F32\0"
 13481      5433325F 
 13481      4D494E5F 
 13481      5F20312E 
 13481      31373534 
 13482 1b53 01       		.byte	0x1
 13483 1b54 00       		.uleb128 0
 13484 1b55 5F5F464C 		.ascii "__FLT32_EPSILON__ 1.19209289550781250000000000000000000e-7F32\0"
 13484      5433325F 
 13484      45505349 
 13484      4C4F4E5F 
 13484      5F20312E 
 13485 1b93 01       		.byte	0x1
 13486 1b94 00       		.uleb128 0
 13487 1b95 5F5F464C 		.ascii "__FLT32_DENORM_MIN__ 1.40129846432481707092372958328991613e-45F32\0"
 13487      5433325F 
 13487      44454E4F 
 13487      524D5F4D 
 13487      494E5F5F 
 13488 1bd7 01       		.byte	0x1
 13489 1bd8 00       		.uleb128 0
 13490 1bd9 5F5F464C 		.ascii "__FLT32_HAS_DENORM__ 1\0"
 13490      5433325F 
 13490      4841535F 
 13490      44454E4F 
 13490      524D5F5F 
 13491 1bf0 01       		.byte	0x1
 13492 1bf1 00       		.uleb128 0
 13493 1bf2 5F5F464C 		.ascii "__FLT32_HAS_INFINITY__ 1\0"
 13493      5433325F 
 13493      4841535F 
 13493      494E4649 
 13493      4E495459 
 13494 1c0b 01       		.byte	0x1
 13495 1c0c 00       		.uleb128 0
 13496 1c0d 5F5F464C 		.ascii "__FLT32_HAS_QUIET_NAN__ 1\0"
 13496      5433325F 
 13496      4841535F 
 13496      51554945 
 13496      545F4E41 
 13497 1c27 01       		.byte	0x1
 13498 1c28 00       		.uleb128 0
 13499 1c29 5F5F464C 		.ascii "__FLT32_IS_IEC_60559__ 1\0"
 13499      5433325F 
 13499      49535F49 
 13499      45435F36 
 13499      30353539 
 13500 1c42 01       		.byte	0x1
 13501 1c43 00       		.uleb128 0
 13502 1c44 5F5F464C 		.ascii "__FLT64_MANT_DIG__ 53\0"
 13502      5436345F 
 13502      4D414E54 
 13502      5F444947 
 13502      5F5F2035 
 13503 1c5a 01       		.byte	0x1
 13504 1c5b 00       		.uleb128 0
 13505 1c5c 5F5F464C 		.ascii "__FLT64_DIG__ 15\0"
 13505      5436345F 
 13505      4449475F 
 13505      5F203135 
 13505      00
 13506 1c6d 01       		.byte	0x1
 13507 1c6e 00       		.uleb128 0
 13508 1c6f 5F5F464C 		.ascii "__FLT64_MIN_EXP__ (-1021)\0"
 13508      5436345F 
 13508      4D494E5F 
 13508      4558505F 
 13508      5F20282D 
 13509 1c89 01       		.byte	0x1
 13510 1c8a 00       		.uleb128 0
 13511 1c8b 5F5F464C 		.ascii "__FLT64_MIN_10_EXP__ (-307)\0"
 13511      5436345F 
 13511      4D494E5F 
 13511      31305F45 
 13511      58505F5F 
 13512 1ca7 01       		.byte	0x1
 13513 1ca8 00       		.uleb128 0
 13514 1ca9 5F5F464C 		.ascii "__FLT64_MAX_EXP__ 1024\0"
 13514      5436345F 
 13514      4D41585F 
 13514      4558505F 
 13514      5F203130 
 13515 1cc0 01       		.byte	0x1
 13516 1cc1 00       		.uleb128 0
 13517 1cc2 5F5F464C 		.ascii "__FLT64_MAX_10_EXP__ 308\0"
 13517      5436345F 
 13517      4D41585F 
 13517      31305F45 
 13517      58505F5F 
 13518 1cdb 01       		.byte	0x1
 13519 1cdc 00       		.uleb128 0
 13520 1cdd 5F5F464C 		.ascii "__FLT64_DECIMAL_DIG__ 17\0"
 13520      5436345F 
 13520      44454349 
 13520      4D414C5F 
 13520      4449475F 
 13521 1cf6 01       		.byte	0x1
 13522 1cf7 00       		.uleb128 0
 13523 1cf8 5F5F464C 		.ascii "__FLT64_MAX__ 1.79769313486231570814527423731704357e+308F64\0"
 13523      5436345F 
 13523      4D41585F 
 13523      5F20312E 
 13523      37393736 
 13524 1d34 01       		.byte	0x1
 13525 1d35 00       		.uleb128 0
 13526 1d36 5F5F464C 		.ascii "__FLT64_NORM_MAX__ 1.79769313486231570814527423731704357e+308F64\0"
 13526      5436345F 
 13526      4E4F524D 
 13526      5F4D4158 
 13526      5F5F2031 
 13527 1d77 01       		.byte	0x1
 13528 1d78 00       		.uleb128 0
 13529 1d79 5F5F464C 		.ascii "__FLT64_MIN__ 2.22507385850720138309023271733240406e-308F64\0"
 13529      5436345F 
 13529      4D494E5F 
 13529      5F20322E 
 13529      32323530 
 13530 1db5 01       		.byte	0x1
 13531 1db6 00       		.uleb128 0
 13532 1db7 5F5F464C 		.ascii "__FLT64_EPSILON__ 2.22044604925031308084726333618164062e-16F64\0"
 13532      5436345F 
 13532      45505349 
 13532      4C4F4E5F 
 13532      5F20322E 
 13533 1df6 01       		.byte	0x1
 13534 1df7 00       		.uleb128 0
 13535 1df8 5F5F464C 		.ascii "__FLT64_DENORM_MIN__ 4.94065645841246544176568792868221372e-324F64\0"
 13535      5436345F 
 13535      44454E4F 
 13535      524D5F4D 
 13535      494E5F5F 
 13536 1e3b 01       		.byte	0x1
 13537 1e3c 00       		.uleb128 0
 13538 1e3d 5F5F464C 		.ascii "__FLT64_HAS_DENORM__ 1\0"
 13538      5436345F 
 13538      4841535F 
 13538      44454E4F 
 13538      524D5F5F 
 13539 1e54 01       		.byte	0x1
 13540 1e55 00       		.uleb128 0
 13541 1e56 5F5F464C 		.ascii "__FLT64_HAS_INFINITY__ 1\0"
 13541      5436345F 
 13541      4841535F 
 13541      494E4649 
 13541      4E495459 
 13542 1e6f 01       		.byte	0x1
 13543 1e70 00       		.uleb128 0
 13544 1e71 5F5F464C 		.ascii "__FLT64_HAS_QUIET_NAN__ 1\0"
 13544      5436345F 
 13544      4841535F 
 13544      51554945 
 13544      545F4E41 
 13545 1e8b 01       		.byte	0x1
 13546 1e8c 00       		.uleb128 0
 13547 1e8d 5F5F464C 		.ascii "__FLT64_IS_IEC_60559__ 1\0"
 13547      5436345F 
 13547      49535F49 
 13547      45435F36 
 13547      30353539 
 13548 1ea6 01       		.byte	0x1
 13549 1ea7 00       		.uleb128 0
 13550 1ea8 5F5F464C 		.ascii "__FLT128_MANT_DIG__ 113\0"
 13550      54313238 
 13550      5F4D414E 
 13550      545F4449 
 13550      475F5F20 
 13551 1ec0 01       		.byte	0x1
 13552 1ec1 00       		.uleb128 0
 13553 1ec2 5F5F464C 		.ascii "__FLT128_DIG__ 33\0"
 13553      54313238 
 13553      5F444947 
 13553      5F5F2033 
 13553      3300
 13554 1ed4 01       		.byte	0x1
 13555 1ed5 00       		.uleb128 0
 13556 1ed6 5F5F464C 		.ascii "__FLT128_MIN_EXP__ (-16381)\0"
 13556      54313238 
 13556      5F4D494E 
 13556      5F455850 
 13556      5F5F2028 
 13557 1ef2 01       		.byte	0x1
 13558 1ef3 00       		.uleb128 0
 13559 1ef4 5F5F464C 		.ascii "__FLT128_MIN_10_EXP__ (-4931)\0"
 13559      54313238 
 13559      5F4D494E 
 13559      5F31305F 
 13559      4558505F 
 13560 1f12 01       		.byte	0x1
 13561 1f13 00       		.uleb128 0
 13562 1f14 5F5F464C 		.ascii "__FLT128_MAX_EXP__ 16384\0"
 13562      54313238 
 13562      5F4D4158 
 13562      5F455850 
 13562      5F5F2031 
 13563 1f2d 01       		.byte	0x1
 13564 1f2e 00       		.uleb128 0
 13565 1f2f 5F5F464C 		.ascii "__FLT128_MAX_10_EXP__ 4932\0"
 13565      54313238 
 13565      5F4D4158 
 13565      5F31305F 
 13565      4558505F 
 13566 1f4a 01       		.byte	0x1
 13567 1f4b 00       		.uleb128 0
 13568 1f4c 5F5F464C 		.ascii "__FLT128_DECIMAL_DIG__ 36\0"
 13568      54313238 
 13568      5F444543 
 13568      494D414C 
 13568      5F444947 
 13569 1f66 01       		.byte	0x1
 13570 1f67 00       		.uleb128 0
 13571 1f68 5F5F464C 		.ascii "__FLT128_MAX__ 1.18973149535723176508575932662800702e+4932F128\0"
 13571      54313238 
 13571      5F4D4158 
 13571      5F5F2031 
 13571      2E313839 
 13572 1fa7 01       		.byte	0x1
 13573 1fa8 00       		.uleb128 0
 13574 1fa9 5F5F464C 		.ascii "__FLT128_NORM_MAX__ 1.18973149535723176508575932662800702e+4932F128\0"
 13574      54313238 
 13574      5F4E4F52 
 13574      4D5F4D41 
 13574      585F5F20 
 13575 1fed 01       		.byte	0x1
 13576 1fee 00       		.uleb128 0
 13577 1fef 5F5F464C 		.ascii "__FLT128_MIN__ 3.36210314311209350626267781732175260e-4932F128\0"
 13577      54313238 
 13577      5F4D494E 
 13577      5F5F2033 
 13577      2E333632 
 13578 202e 01       		.byte	0x1
 13579 202f 00       		.uleb128 0
 13580 2030 5F5F464C 		.ascii "__FLT128_EPSILON__ 1.92592994438723585305597794258492732e-34F128\0"
 13580      54313238 
 13580      5F455053 
 13580      494C4F4E 
 13580      5F5F2031 
 13581 2071 01       		.byte	0x1
 13582 2072 00       		.uleb128 0
 13583 2073 5F5F464C 		.ascii "__FLT128_DENORM_MIN__ 6.47517511943802511092443895822764655e-4966F128\0"
 13583      54313238 
 13583      5F44454E 
 13583      4F524D5F 
 13583      4D494E5F 
 13584 20b9 01       		.byte	0x1
 13585 20ba 00       		.uleb128 0
 13586 20bb 5F5F464C 		.ascii "__FLT128_HAS_DENORM__ 1\0"
 13586      54313238 
 13586      5F484153 
 13586      5F44454E 
 13586      4F524D5F 
 13587 20d3 01       		.byte	0x1
 13588 20d4 00       		.uleb128 0
 13589 20d5 5F5F464C 		.ascii "__FLT128_HAS_INFINITY__ 1\0"
 13589      54313238 
 13589      5F484153 
 13589      5F494E46 
 13589      494E4954 
 13590 20ef 01       		.byte	0x1
 13591 20f0 00       		.uleb128 0
 13592 20f1 5F5F464C 		.ascii "__FLT128_HAS_QUIET_NAN__ 1\0"
 13592      54313238 
 13592      5F484153 
 13592      5F515549 
 13592      45545F4E 
 13593 210c 01       		.byte	0x1
 13594 210d 00       		.uleb128 0
 13595 210e 5F5F464C 		.ascii "__FLT128_IS_IEC_60559__ 1\0"
 13595      54313238 
 13595      5F49535F 
 13595      4945435F 
 13595      36303535 
 13596 2128 01       		.byte	0x1
 13597 2129 00       		.uleb128 0
 13598 212a 5F5F464C 		.ascii "__FLT32X_MANT_DIG__ 53\0"
 13598      54333258 
 13598      5F4D414E 
 13598      545F4449 
 13598      475F5F20 
 13599 2141 01       		.byte	0x1
 13600 2142 00       		.uleb128 0
 13601 2143 5F5F464C 		.ascii "__FLT32X_DIG__ 15\0"
 13601      54333258 
 13601      5F444947 
 13601      5F5F2031 
 13601      3500
 13602 2155 01       		.byte	0x1
 13603 2156 00       		.uleb128 0
 13604 2157 5F5F464C 		.ascii "__FLT32X_MIN_EXP__ (-1021)\0"
 13604      54333258 
 13604      5F4D494E 
 13604      5F455850 
 13604      5F5F2028 
 13605 2172 01       		.byte	0x1
 13606 2173 00       		.uleb128 0
 13607 2174 5F5F464C 		.ascii "__FLT32X_MIN_10_EXP__ (-307)\0"
 13607      54333258 
 13607      5F4D494E 
 13607      5F31305F 
 13607      4558505F 
 13608 2191 01       		.byte	0x1
 13609 2192 00       		.uleb128 0
 13610 2193 5F5F464C 		.ascii "__FLT32X_MAX_EXP__ 1024\0"
 13610      54333258 
 13610      5F4D4158 
 13610      5F455850 
 13610      5F5F2031 
 13611 21ab 01       		.byte	0x1
 13612 21ac 00       		.uleb128 0
 13613 21ad 5F5F464C 		.ascii "__FLT32X_MAX_10_EXP__ 308\0"
 13613      54333258 
 13613      5F4D4158 
 13613      5F31305F 
 13613      4558505F 
 13614 21c7 01       		.byte	0x1
 13615 21c8 00       		.uleb128 0
 13616 21c9 5F5F464C 		.ascii "__FLT32X_DECIMAL_DIG__ 17\0"
 13616      54333258 
 13616      5F444543 
 13616      494D414C 
 13616      5F444947 
 13617 21e3 01       		.byte	0x1
 13618 21e4 00       		.uleb128 0
 13619 21e5 5F5F464C 		.ascii "__FLT32X_MAX__ 1.79769313486231570814527423731704357e+308F32x\0"
 13619      54333258 
 13619      5F4D4158 
 13619      5F5F2031 
 13619      2E373937 
 13620 2223 01       		.byte	0x1
 13621 2224 00       		.uleb128 0
 13622 2225 5F5F464C 		.ascii "__FLT32X_NORM_MAX__ 1.79769313486231570814527423731704357e+308F32x\0"
 13622      54333258 
 13622      5F4E4F52 
 13622      4D5F4D41 
 13622      585F5F20 
 13623 2268 01       		.byte	0x1
 13624 2269 00       		.uleb128 0
 13625 226a 5F5F464C 		.ascii "__FLT32X_MIN__ 2.22507385850720138309023271733240406e-308F32x\0"
 13625      54333258 
 13625      5F4D494E 
 13625      5F5F2032 
 13625      2E323235 
 13626 22a8 01       		.byte	0x1
 13627 22a9 00       		.uleb128 0
 13628 22aa 5F5F464C 		.ascii "__FLT32X_EPSILON__ 2.22044604925031308084726333618164062e-16F32x\0"
 13628      54333258 
 13628      5F455053 
 13628      494C4F4E 
 13628      5F5F2032 
 13629 22eb 01       		.byte	0x1
 13630 22ec 00       		.uleb128 0
 13631 22ed 5F5F464C 		.ascii "__FLT32X_DENORM_MIN__ 4.94065645841246544176568792868221372e-324F32x\0"
 13631      54333258 
 13631      5F44454E 
 13631      4F524D5F 
 13631      4D494E5F 
 13632 2332 01       		.byte	0x1
 13633 2333 00       		.uleb128 0
 13634 2334 5F5F464C 		.ascii "__FLT32X_HAS_DENORM__ 1\0"
 13634      54333258 
 13634      5F484153 
 13634      5F44454E 
 13634      4F524D5F 
 13635 234c 01       		.byte	0x1
 13636 234d 00       		.uleb128 0
 13637 234e 5F5F464C 		.ascii "__FLT32X_HAS_INFINITY__ 1\0"
 13637      54333258 
 13637      5F484153 
 13637      5F494E46 
 13637      494E4954 
 13638 2368 01       		.byte	0x1
 13639 2369 00       		.uleb128 0
 13640 236a 5F5F464C 		.ascii "__FLT32X_HAS_QUIET_NAN__ 1\0"
 13640      54333258 
 13640      5F484153 
 13640      5F515549 
 13640      45545F4E 
 13641 2385 01       		.byte	0x1
 13642 2386 00       		.uleb128 0
 13643 2387 5F5F464C 		.ascii "__FLT32X_IS_IEC_60559__ 1\0"
 13643      54333258 
 13643      5F49535F 
 13643      4945435F 
 13643      36303535 
 13644 23a1 01       		.byte	0x1
 13645 23a2 00       		.uleb128 0
 13646 23a3 5F5F464C 		.ascii "__FLT64X_MANT_DIG__ 64\0"
 13646      54363458 
 13646      5F4D414E 
 13646      545F4449 
 13646      475F5F20 
 13647 23ba 01       		.byte	0x1
 13648 23bb 00       		.uleb128 0
 13649 23bc 5F5F464C 		.ascii "__FLT64X_DIG__ 18\0"
 13649      54363458 
 13649      5F444947 
 13649      5F5F2031 
 13649      3800
 13650 23ce 01       		.byte	0x1
 13651 23cf 00       		.uleb128 0
 13652 23d0 5F5F464C 		.ascii "__FLT64X_MIN_EXP__ (-16381)\0"
 13652      54363458 
 13652      5F4D494E 
 13652      5F455850 
 13652      5F5F2028 
 13653 23ec 01       		.byte	0x1
 13654 23ed 00       		.uleb128 0
 13655 23ee 5F5F464C 		.ascii "__FLT64X_MIN_10_EXP__ (-4931)\0"
 13655      54363458 
 13655      5F4D494E 
 13655      5F31305F 
 13655      4558505F 
 13656 240c 01       		.byte	0x1
 13657 240d 00       		.uleb128 0
 13658 240e 5F5F464C 		.ascii "__FLT64X_MAX_EXP__ 16384\0"
 13658      54363458 
 13658      5F4D4158 
 13658      5F455850 
 13658      5F5F2031 
 13659 2427 01       		.byte	0x1
 13660 2428 00       		.uleb128 0
 13661 2429 5F5F464C 		.ascii "__FLT64X_MAX_10_EXP__ 4932\0"
 13661      54363458 
 13661      5F4D4158 
 13661      5F31305F 
 13661      4558505F 
 13662 2444 01       		.byte	0x1
 13663 2445 00       		.uleb128 0
 13664 2446 5F5F464C 		.ascii "__FLT64X_DECIMAL_DIG__ 21\0"
 13664      54363458 
 13664      5F444543 
 13664      494D414C 
 13664      5F444947 
 13665 2460 01       		.byte	0x1
 13666 2461 00       		.uleb128 0
 13667 2462 5F5F464C 		.ascii "__FLT64X_MAX__ 1.18973149535723176502126385303097021e+4932F64x\0"
 13667      54363458 
 13667      5F4D4158 
 13667      5F5F2031 
 13667      2E313839 
 13668 24a1 01       		.byte	0x1
 13669 24a2 00       		.uleb128 0
 13670 24a3 5F5F464C 		.ascii "__FLT64X_NORM_MAX__ 1.18973149535723176502126385303097021e+4932F64x\0"
 13670      54363458 
 13670      5F4E4F52 
 13670      4D5F4D41 
 13670      585F5F20 
 13671 24e7 01       		.byte	0x1
 13672 24e8 00       		.uleb128 0
 13673 24e9 5F5F464C 		.ascii "__FLT64X_MIN__ 3.36210314311209350626267781732175260e-4932F64x\0"
 13673      54363458 
 13673      5F4D494E 
 13673      5F5F2033 
 13673      2E333632 
 13674 2528 01       		.byte	0x1
 13675 2529 00       		.uleb128 0
 13676 252a 5F5F464C 		.ascii "__FLT64X_EPSILON__ 1.08420217248550443400745280086994171e-19F64x\0"
 13676      54363458 
 13676      5F455053 
 13676      494C4F4E 
 13676      5F5F2031 
 13677 256b 01       		.byte	0x1
 13678 256c 00       		.uleb128 0
 13679 256d 5F5F464C 		.ascii "__FLT64X_DENORM_MIN__ 3.64519953188247460252840593361941982e-4951F64x\0"
 13679      54363458 
 13679      5F44454E 
 13679      4F524D5F 
 13679      4D494E5F 
 13680 25b3 01       		.byte	0x1
 13681 25b4 00       		.uleb128 0
 13682 25b5 5F5F464C 		.ascii "__FLT64X_HAS_DENORM__ 1\0"
 13682      54363458 
 13682      5F484153 
 13682      5F44454E 
 13682      4F524D5F 
 13683 25cd 01       		.byte	0x1
 13684 25ce 00       		.uleb128 0
 13685 25cf 5F5F464C 		.ascii "__FLT64X_HAS_INFINITY__ 1\0"
 13685      54363458 
 13685      5F484153 
 13685      5F494E46 
 13685      494E4954 
 13686 25e9 01       		.byte	0x1
 13687 25ea 00       		.uleb128 0
 13688 25eb 5F5F464C 		.ascii "__FLT64X_HAS_QUIET_NAN__ 1\0"
 13688      54363458 
 13688      5F484153 
 13688      5F515549 
 13688      45545F4E 
 13689 2606 01       		.byte	0x1
 13690 2607 00       		.uleb128 0
 13691 2608 5F5F464C 		.ascii "__FLT64X_IS_IEC_60559__ 1\0"
 13691      54363458 
 13691      5F49535F 
 13691      4945435F 
 13691      36303535 
 13692 2622 01       		.byte	0x1
 13693 2623 00       		.uleb128 0
 13694 2624 5F5F4246 		.ascii "__BFLT16_MANT_DIG__ 8\0"
 13694      4C543136 
 13694      5F4D414E 
 13694      545F4449 
 13694      475F5F20 
 13695 263a 01       		.byte	0x1
 13696 263b 00       		.uleb128 0
 13697 263c 5F5F4246 		.ascii "__BFLT16_DIG__ 2\0"
 13697      4C543136 
 13697      5F444947 
 13697      5F5F2032 
 13697      00
 13698 264d 01       		.byte	0x1
 13699 264e 00       		.uleb128 0
 13700 264f 5F5F4246 		.ascii "__BFLT16_MIN_EXP__ (-125)\0"
 13700      4C543136 
 13700      5F4D494E 
 13700      5F455850 
 13700      5F5F2028 
 13701 2669 01       		.byte	0x1
 13702 266a 00       		.uleb128 0
 13703 266b 5F5F4246 		.ascii "__BFLT16_MIN_10_EXP__ (-37)\0"
 13703      4C543136 
 13703      5F4D494E 
 13703      5F31305F 
 13703      4558505F 
 13704 2687 01       		.byte	0x1
 13705 2688 00       		.uleb128 0
 13706 2689 5F5F4246 		.ascii "__BFLT16_MAX_EXP__ 128\0"
 13706      4C543136 
 13706      5F4D4158 
 13706      5F455850 
 13706      5F5F2031 
 13707 26a0 01       		.byte	0x1
 13708 26a1 00       		.uleb128 0
 13709 26a2 5F5F4246 		.ascii "__BFLT16_MAX_10_EXP__ 38\0"
 13709      4C543136 
 13709      5F4D4158 
 13709      5F31305F 
 13709      4558505F 
 13710 26bb 01       		.byte	0x1
 13711 26bc 00       		.uleb128 0
 13712 26bd 5F5F4246 		.ascii "__BFLT16_DECIMAL_DIG__ 4\0"
 13712      4C543136 
 13712      5F444543 
 13712      494D414C 
 13712      5F444947 
 13713 26d6 01       		.byte	0x1
 13714 26d7 00       		.uleb128 0
 13715 26d8 5F5F4246 		.ascii "__BFLT16_MAX__ 3.38953138925153547590470800371487867e+38BF16\0"
 13715      4C543136 
 13715      5F4D4158 
 13715      5F5F2033 
 13715      2E333839 
 13716 2715 01       		.byte	0x1
 13717 2716 00       		.uleb128 0
 13718 2717 5F5F4246 		.ascii "__BFLT16_NORM_MAX__ 3.38953138925153547590470800371487867e+38BF16\0"
 13718      4C543136 
 13718      5F4E4F52 
 13718      4D5F4D41 
 13718      585F5F20 
 13719 2759 01       		.byte	0x1
 13720 275a 00       		.uleb128 0
 13721 275b 5F5F4246 		.ascii "__BFLT16_MIN__ 1.17549435082228750796873653722224568e-38BF16\0"
 13721      4C543136 
 13721      5F4D494E 
 13721      5F5F2031 
 13721      2E313735 
 13722 2798 01       		.byte	0x1
 13723 2799 00       		.uleb128 0
 13724 279a 5F5F4246 		.ascii "__BFLT16_EPSILON__ 7.81250000000000000000000000000000000e-3BF16\0"
 13724      4C543136 
 13724      5F455053 
 13724      494C4F4E 
 13724      5F5F2037 
 13725 27da 01       		.byte	0x1
 13726 27db 00       		.uleb128 0
 13727 27dc 5F5F4246 		.ascii "__BFLT16_DENORM_MIN__ 9.18354961579912115600575419704879436e-41BF16\0"
 13727      4C543136 
 13727      5F44454E 
 13727      4F524D5F 
 13727      4D494E5F 
 13728 2820 01       		.byte	0x1
 13729 2821 00       		.uleb128 0
 13730 2822 5F5F4246 		.ascii "__BFLT16_HAS_DENORM__ 1\0"
 13730      4C543136 
 13730      5F484153 
 13730      5F44454E 
 13730      4F524D5F 
 13731 283a 01       		.byte	0x1
 13732 283b 00       		.uleb128 0
 13733 283c 5F5F4246 		.ascii "__BFLT16_HAS_INFINITY__ 1\0"
 13733      4C543136 
 13733      5F484153 
 13733      5F494E46 
 13733      494E4954 
 13734 2856 01       		.byte	0x1
 13735 2857 00       		.uleb128 0
 13736 2858 5F5F4246 		.ascii "__BFLT16_HAS_QUIET_NAN__ 1\0"
 13736      4C543136 
 13736      5F484153 
 13736      5F515549 
 13736      45545F4E 
 13737 2873 01       		.byte	0x1
 13738 2874 00       		.uleb128 0
 13739 2875 5F5F4246 		.ascii "__BFLT16_IS_IEC_60559__ 0\0"
 13739      4C543136 
 13739      5F49535F 
 13739      4945435F 
 13739      36303535 
 13740 288f 01       		.byte	0x1
 13741 2890 00       		.uleb128 0
 13742 2891 5F5F4445 		.ascii "__DEC32_MANT_DIG__ 7\0"
 13742      4333325F 
 13742      4D414E54 
 13742      5F444947 
 13742      5F5F2037 
 13743 28a6 01       		.byte	0x1
 13744 28a7 00       		.uleb128 0
 13745 28a8 5F5F4445 		.ascii "__DEC32_MIN_EXP__ (-94)\0"
 13745      4333325F 
 13745      4D494E5F 
 13745      4558505F 
 13745      5F20282D 
 13746 28c0 01       		.byte	0x1
 13747 28c1 00       		.uleb128 0
 13748 28c2 5F5F4445 		.ascii "__DEC32_MAX_EXP__ 97\0"
 13748      4333325F 
 13748      4D41585F 
 13748      4558505F 
 13748      5F203937 
 13749 28d7 01       		.byte	0x1
 13750 28d8 00       		.uleb128 0
 13751 28d9 5F5F4445 		.ascii "__DEC32_MIN__ 1E-95DF\0"
 13751      4333325F 
 13751      4D494E5F 
 13751      5F203145 
 13751      2D393544 
 13752 28ef 01       		.byte	0x1
 13753 28f0 00       		.uleb128 0
 13754 28f1 5F5F4445 		.ascii "__DEC32_MAX__ 9.999999E96DF\0"
 13754      4333325F 
 13754      4D41585F 
 13754      5F20392E 
 13754      39393939 
 13755 290d 01       		.byte	0x1
 13756 290e 00       		.uleb128 0
 13757 290f 5F5F4445 		.ascii "__DEC32_EPSILON__ 1E-6DF\0"
 13757      4333325F 
 13757      45505349 
 13757      4C4F4E5F 
 13757      5F203145 
 13758 2928 01       		.byte	0x1
 13759 2929 00       		.uleb128 0
 13760 292a 5F5F4445 		.ascii "__DEC32_SUBNORMAL_MIN__ 0.000001E-95DF\0"
 13760      4333325F 
 13760      5355424E 
 13760      4F524D41 
 13760      4C5F4D49 
 13761 2951 01       		.byte	0x1
 13762 2952 00       		.uleb128 0
 13763 2953 5F5F4445 		.ascii "__DEC64_MANT_DIG__ 16\0"
 13763      4336345F 
 13763      4D414E54 
 13763      5F444947 
 13763      5F5F2031 
 13764 2969 01       		.byte	0x1
 13765 296a 00       		.uleb128 0
 13766 296b 5F5F4445 		.ascii "__DEC64_MIN_EXP__ (-382)\0"
 13766      4336345F 
 13766      4D494E5F 
 13766      4558505F 
 13766      5F20282D 
 13767 2984 01       		.byte	0x1
 13768 2985 00       		.uleb128 0
 13769 2986 5F5F4445 		.ascii "__DEC64_MAX_EXP__ 385\0"
 13769      4336345F 
 13769      4D41585F 
 13769      4558505F 
 13769      5F203338 
 13770 299c 01       		.byte	0x1
 13771 299d 00       		.uleb128 0
 13772 299e 5F5F4445 		.ascii "__DEC64_MIN__ 1E-383DD\0"
 13772      4336345F 
 13772      4D494E5F 
 13772      5F203145 
 13772      2D333833 
 13773 29b5 01       		.byte	0x1
 13774 29b6 00       		.uleb128 0
 13775 29b7 5F5F4445 		.ascii "__DEC64_MAX__ 9.999999999999999E384DD\0"
 13775      4336345F 
 13775      4D41585F 
 13775      5F20392E 
 13775      39393939 
 13776 29dd 01       		.byte	0x1
 13777 29de 00       		.uleb128 0
 13778 29df 5F5F4445 		.ascii "__DEC64_EPSILON__ 1E-15DD\0"
 13778      4336345F 
 13778      45505349 
 13778      4C4F4E5F 
 13778      5F203145 
 13779 29f9 01       		.byte	0x1
 13780 29fa 00       		.uleb128 0
 13781 29fb 5F5F4445 		.ascii "__DEC64_SUBNORMAL_MIN__ 0.000000000000001E-383DD\0"
 13781      4336345F 
 13781      5355424E 
 13781      4F524D41 
 13781      4C5F4D49 
 13782 2a2c 01       		.byte	0x1
 13783 2a2d 00       		.uleb128 0
 13784 2a2e 5F5F4445 		.ascii "__DEC128_MANT_DIG__ 34\0"
 13784      43313238 
 13784      5F4D414E 
 13784      545F4449 
 13784      475F5F20 
 13785 2a45 01       		.byte	0x1
 13786 2a46 00       		.uleb128 0
 13787 2a47 5F5F4445 		.ascii "__DEC128_MIN_EXP__ (-6142)\0"
 13787      43313238 
 13787      5F4D494E 
 13787      5F455850 
 13787      5F5F2028 
 13788 2a62 01       		.byte	0x1
 13789 2a63 00       		.uleb128 0
 13790 2a64 5F5F4445 		.ascii "__DEC128_MAX_EXP__ 6145\0"
 13790      43313238 
 13790      5F4D4158 
 13790      5F455850 
 13790      5F5F2036 
 13791 2a7c 01       		.byte	0x1
 13792 2a7d 00       		.uleb128 0
 13793 2a7e 5F5F4445 		.ascii "__DEC128_MIN__ 1E-6143DL\0"
 13793      43313238 
 13793      5F4D494E 
 13793      5F5F2031 
 13793      452D3631 
 13794 2a97 01       		.byte	0x1
 13795 2a98 00       		.uleb128 0
 13796 2a99 5F5F4445 		.ascii "__DEC128_MAX__ 9.999999999999999999999999999999999E6144DL\0"
 13796      43313238 
 13796      5F4D4158 
 13796      5F5F2039 
 13796      2E393939 
 13797 2ad3 01       		.byte	0x1
 13798 2ad4 00       		.uleb128 0
 13799 2ad5 5F5F4445 		.ascii "__DEC128_EPSILON__ 1E-33DL\0"
 13799      43313238 
 13799      5F455053 
 13799      494C4F4E 
 13799      5F5F2031 
 13800 2af0 01       		.byte	0x1
 13801 2af1 00       		.uleb128 0
 13802 2af2 5F5F4445 		.ascii "__DEC128_SUBNORMAL_MIN__ 0.000000000000000000000000000000001E-6143DL\0"
 13802      43313238 
 13802      5F535542 
 13802      4E4F524D 
 13802      414C5F4D 
 13803 2b37 01       		.byte	0x1
 13804 2b38 00       		.uleb128 0
 13805 2b39 5F5F5245 		.ascii "__REGISTER_PREFIX__ \0"
 13805      47495354 
 13805      45525F50 
 13805      52454649 
 13805      585F5F20 
 13806 2b4e 01       		.byte	0x1
 13807 2b4f 00       		.uleb128 0
 13808 2b50 5F5F5553 		.ascii "__USER_LABEL_PREFIX__ \0"
 13808      45525F4C 
 13808      4142454C 
 13808      5F505245 
 13808      4649585F 
 13809 2b67 01       		.byte	0x1
 13810 2b68 00       		.uleb128 0
 13811 2b69 5F5F474E 		.ascii "__GNUC_STDC_INLINE__ 1\0"
 13811      55435F53 
 13811      5444435F 
 13811      494E4C49 
 13811      4E455F5F 
 13812 2b80 01       		.byte	0x1
 13813 2b81 00       		.uleb128 0
 13814 2b82 5F5F5354 		.ascii "__STRICT_ANSI__ 1\0"
 13814      52494354 
 13814      5F414E53 
 13814      495F5F20 
 13814      3100
 13815 2b94 01       		.byte	0x1
 13816 2b95 00       		.uleb128 0
 13817 2b96 5F5F4743 		.ascii "__GCC_HAVE_SYNC_COMPARE_AND_SWAP_1 1\0"
 13817      435F4841 
 13817      56455F53 
 13817      594E435F 
 13817      434F4D50 
 13818 2bbb 01       		.byte	0x1
 13819 2bbc 00       		.uleb128 0
 13820 2bbd 5F5F4743 		.ascii "__GCC_HAVE_SYNC_COMPARE_AND_SWAP_2 1\0"
 13820      435F4841 
 13820      56455F53 
 13820      594E435F 
 13820      434F4D50 
 13821 2be2 01       		.byte	0x1
 13822 2be3 00       		.uleb128 0
 13823 2be4 5F5F4743 		.ascii "__GCC_HAVE_SYNC_COMPARE_AND_SWAP_4 1\0"
 13823      435F4841 
 13823      56455F53 
 13823      594E435F 
 13823      434F4D50 
 13824 2c09 01       		.byte	0x1
 13825 2c0a 00       		.uleb128 0
 13826 2c0b 5F5F4743 		.ascii "__GCC_HAVE_SYNC_COMPARE_AND_SWAP_8 1\0"
 13826      435F4841 
 13826      56455F53 
 13826      594E435F 
 13826      434F4D50 
 13827 2c30 01       		.byte	0x1
 13828 2c31 00       		.uleb128 0
 13829 2c32 5F5F4743 		.ascii "__GCC_HAVE_SYNC_COMPARE_AND_SWAP_16 1\0"
 13829      435F4841 
 13829      56455F53 
 13829      594E435F 
 13829      434F4D50 
 13830 2c58 01       		.byte	0x1
 13831 2c59 00       		.uleb128 0
 13832 2c5a 5F5F4743 		.ascii "__GCC_ATOMIC_BOOL_LOCK_FREE 2\0"
 13832      435F4154 
 13832      4F4D4943 
 13832      5F424F4F 
 13832      4C5F4C4F 
 13833 2c78 01       		.byte	0x1
 13834 2c79 00       		.uleb128 0
 13835 2c7a 5F5F4743 		.ascii "__GCC_ATOMIC_CHAR_LOCK_FREE 2\0"
 13835      435F4154 
 13835      4F4D4943 
 13835      5F434841 
 13835      525F4C4F 
 13836 2c98 01       		.byte	0x1
 13837 2c99 00       		.uleb128 0
 13838 2c9a 5F5F4743 		.ascii "__GCC_ATOMIC_CHAR16_T_LOCK_FREE 2\0"
 13838      435F4154 
 13838      4F4D4943 
 13838      5F434841 
 13838      5231365F 
 13839 2cbc 01       		.byte	0x1
 13840 2cbd 00       		.uleb128 0
 13841 2cbe 5F5F4743 		.ascii "__GCC_ATOMIC_CHAR32_T_LOCK_FREE 2\0"
 13841      435F4154 
 13841      4F4D4943 
 13841      5F434841 
 13841      5233325F 
 13842 2ce0 01       		.byte	0x1
 13843 2ce1 00       		.uleb128 0
 13844 2ce2 5F5F4743 		.ascii "__GCC_ATOMIC_WCHAR_T_LOCK_FREE 2\0"
 13844      435F4154 
 13844      4F4D4943 
 13844      5F574348 
 13844      41525F54 
 13845 2d03 01       		.byte	0x1
 13846 2d04 00       		.uleb128 0
 13847 2d05 5F5F4743 		.ascii "__GCC_ATOMIC_SHORT_LOCK_FREE 2\0"
 13847      435F4154 
 13847      4F4D4943 
 13847      5F53484F 
 13847      52545F4C 
 13848 2d24 01       		.byte	0x1
 13849 2d25 00       		.uleb128 0
 13850 2d26 5F5F4743 		.ascii "__GCC_ATOMIC_INT_LOCK_FREE 2\0"
 13850      435F4154 
 13850      4F4D4943 
 13850      5F494E54 
 13850      5F4C4F43 
 13851 2d43 01       		.byte	0x1
 13852 2d44 00       		.uleb128 0
 13853 2d45 5F5F4743 		.ascii "__GCC_ATOMIC_LONG_LOCK_FREE 2\0"
 13853      435F4154 
 13853      4F4D4943 
 13853      5F4C4F4E 
 13853      475F4C4F 
 13854 2d63 01       		.byte	0x1
 13855 2d64 00       		.uleb128 0
 13856 2d65 5F5F4743 		.ascii "__GCC_ATOMIC_LLONG_LOCK_FREE 2\0"
 13856      435F4154 
 13856      4F4D4943 
 13856      5F4C4C4F 
 13856      4E475F4C 
 13857 2d84 01       		.byte	0x1
 13858 2d85 00       		.uleb128 0
 13859 2d86 5F5F4743 		.ascii "__GCC_ATOMIC_TEST_AND_SET_TRUEVAL 1\0"
 13859      435F4154 
 13859      4F4D4943 
 13859      5F544553 
 13859      545F414E 
 13860 2daa 01       		.byte	0x1
 13861 2dab 00       		.uleb128 0
 13862 2dac 5F5F4743 		.ascii "__GCC_DESTRUCTIVE_SIZE 64\0"
 13862      435F4445 
 13862      53545255 
 13862      43544956 
 13862      455F5349 
 13863 2dc6 01       		.byte	0x1
 13864 2dc7 00       		.uleb128 0
 13865 2dc8 5F5F4743 		.ascii "__GCC_CONSTRUCTIVE_SIZE 64\0"
 13865      435F434F 
 13865      4E535452 
 13865      55435449 
 13865      56455F53 
 13866 2de3 01       		.byte	0x1
 13867 2de4 00       		.uleb128 0
 13868 2de5 5F5F4743 		.ascii "__GCC_ATOMIC_POINTER_LOCK_FREE 2\0"
 13868      435F4154 
 13868      4F4D4943 
 13868      5F504F49 
 13868      4E544552 
 13869 2e06 01       		.byte	0x1
 13870 2e07 00       		.uleb128 0
 13871 2e08 5F5F4841 		.ascii "__HAVE_SPECULATION_SAFE_VALUE 1\0"
 13871      56455F53 
 13871      50454355 
 13871      4C415449 
 13871      4F4E5F53 
 13872 2e28 01       		.byte	0x1
 13873 2e29 00       		.uleb128 0
 13874 2e2a 5F5F4743 		.ascii "__GCC_HAVE_DWARF2_CFI_ASM 1\0"
 13874      435F4841 
 13874      56455F44 
 13874      57415246 
 13874      325F4346 
 13875 2e46 01       		.byte	0x1
 13876 2e47 00       		.uleb128 0
 13877 2e48 5F5F5052 		.ascii "__PRAGMA_REDEFINE_EXTNAME 1\0"
 13877      41474D41 
 13877      5F524544 
 13877      4546494E 
 13877      455F4558 
 13878 2e64 01       		.byte	0x1
 13879 2e65 00       		.uleb128 0
 13880 2e66 5F5F5349 		.ascii "__SIZEOF_INT128__ 16\0"
 13880      5A454F46 
 13880      5F494E54 
 13880      3132385F 
 13880      5F203136 
 13881 2e7b 01       		.byte	0x1
 13882 2e7c 00       		.uleb128 0
 13883 2e7d 5F5F5349 		.ascii "__SIZEOF_WCHAR_T__ 2\0"
 13883      5A454F46 
 13883      5F574348 
 13883      41525F54 
 13883      5F5F2032 
 13884 2e92 01       		.byte	0x1
 13885 2e93 00       		.uleb128 0
 13886 2e94 5F5F5349 		.ascii "__SIZEOF_WINT_T__ 2\0"
 13886      5A454F46 
 13886      5F57494E 
 13886      545F545F 
 13886      5F203200 
 13887 2ea8 01       		.byte	0x1
 13888 2ea9 00       		.uleb128 0
 13889 2eaa 5F5F5349 		.ascii "__SIZEOF_PTRDIFF_T__ 8\0"
 13889      5A454F46 
 13889      5F505452 
 13889      44494646 
 13889      5F545F5F 
 13890 2ec1 01       		.byte	0x1
 13891 2ec2 00       		.uleb128 0
 13892 2ec3 5F5F616D 		.ascii "__amd64 1\0"
 13892      64363420 
 13892      3100
 13893 2ecd 01       		.byte	0x1
 13894 2ece 00       		.uleb128 0
 13895 2ecf 5F5F616D 		.ascii "__amd64__ 1\0"
 13895      6436345F 
 13895      5F203100 
 13896 2edb 01       		.byte	0x1
 13897 2edc 00       		.uleb128 0
 13898 2edd 5F5F7838 		.ascii "__x86_64 1\0"
 13898      365F3634 
 13898      203100
 13899 2ee8 01       		.byte	0x1
 13900 2ee9 00       		.uleb128 0
 13901 2eea 5F5F7838 		.ascii "__x86_64__ 1\0"
 13901      365F3634 
 13901      5F5F2031 
 13901      00
 13902 2ef7 01       		.byte	0x1
 13903 2ef8 00       		.uleb128 0
 13904 2ef9 5F5F5349 		.ascii "__SIZEOF_FLOAT80__ 16\0"
 13904      5A454F46 
 13904      5F464C4F 
 13904      41543830 
 13904      5F5F2031 
 13905 2f0f 01       		.byte	0x1
 13906 2f10 00       		.uleb128 0
 13907 2f11 5F5F5349 		.ascii "__SIZEOF_FLOAT128__ 16\0"
 13907      5A454F46 
 13907      5F464C4F 
 13907      41543132 
 13907      385F5F20 
 13908 2f28 01       		.byte	0x1
 13909 2f29 00       		.uleb128 0
 13910 2f2a 5F5F4154 		.ascii "__ATOMIC_HLE_ACQUIRE 65536\0"
 13910      4F4D4943 
 13910      5F484C45 
 13910      5F414351 
 13910      55495245 
 13911 2f45 01       		.byte	0x1
 13912 2f46 00       		.uleb128 0
 13913 2f47 5F5F4154 		.ascii "__ATOMIC_HLE_RELEASE 131072\0"
 13913      4F4D4943 
 13913      5F484C45 
 13913      5F52454C 
 13913      45415345 
 13914 2f63 01       		.byte	0x1
 13915 2f64 00       		.uleb128 0
 13916 2f65 5F5F4743 		.ascii "__GCC_ASM_FLAG_OUTPUTS__ 1\0"
 13916      435F4153 
 13916      4D5F464C 
 13916      41475F4F 
 13916      55545055 
 13917 2f80 01       		.byte	0x1
 13918 2f81 00       		.uleb128 0
 13919 2f82 5F5F6E6F 		.ascii "__nocona 1\0"
 13919      636F6E61 
 13919      203100
 13920 2f8d 01       		.byte	0x1
 13921 2f8e 00       		.uleb128 0
 13922 2f8f 5F5F6E6F 		.ascii "__nocona__ 1\0"
 13922      636F6E61 
 13922      5F5F2031 
 13922      00
 13923 2f9c 01       		.byte	0x1
 13924 2f9d 00       		.uleb128 0
 13925 2f9e 5F5F636F 		.ascii "__code_model_medium__ 1\0"
 13925      64655F6D 
 13925      6F64656C 
 13925      5F6D6564 
 13925      69756D5F 
 13926 2fb6 01       		.byte	0x1
 13927 2fb7 00       		.uleb128 0
 13928 2fb8 5F5F4D4D 		.ascii "__MMX__ 1\0"
 13928      585F5F20 
 13928      3100
 13929 2fc2 01       		.byte	0x1
 13930 2fc3 00       		.uleb128 0
 13931 2fc4 5F5F5353 		.ascii "__SSE__ 1\0"
 13931      455F5F20 
 13931      3100
 13932 2fce 01       		.byte	0x1
 13933 2fcf 00       		.uleb128 0
 13934 2fd0 5F5F5353 		.ascii "__SSE2__ 1\0"
 13934      45325F5F 
 13934      203100
 13935 2fdb 01       		.byte	0x1
 13936 2fdc 00       		.uleb128 0
 13937 2fdd 5F5F5353 		.ascii "__SSE3__ 1\0"
 13937      45335F5F 
 13937      203100
 13938 2fe8 01       		.byte	0x1
 13939 2fe9 00       		.uleb128 0
 13940 2fea 5F5F4658 		.ascii "__FXSR__ 1\0"
 13940      53525F5F 
 13940      203100
 13941 2ff5 01       		.byte	0x1
 13942 2ff6 00       		.uleb128 0
 13943 2ff7 5F5F5353 		.ascii "__SSE_MATH__ 1\0"
 13943      455F4D41 
 13943      54485F5F 
 13943      203100
 13944 3006 01       		.byte	0x1
 13945 3007 00       		.uleb128 0
 13946 3008 5F5F5353 		.ascii "__SSE2_MATH__ 1\0"
 13946      45325F4D 
 13946      4154485F 
 13946      5F203100 
 13947 3018 01       		.byte	0x1
 13948 3019 00       		.uleb128 0
 13949 301a 5F5F4D4D 		.ascii "__MMX_WITH_SSE__ 1\0"
 13949      585F5749 
 13949      54485F53 
 13949      53455F5F 
 13949      203100
 13950 302d 01       		.byte	0x1
 13951 302e 00       		.uleb128 0
 13952 302f 5F5F5345 		.ascii "__SEG_FS 1\0"
 13952      475F4653 
 13952      203100
 13953 303a 01       		.byte	0x1
 13954 303b 00       		.uleb128 0
 13955 303c 5F5F5345 		.ascii "__SEG_GS 1\0"
 13955      475F4753 
 13955      203100
 13956 3047 01       		.byte	0x1
 13957 3048 00       		.uleb128 0
 13958 3049 5F5F5345 		.ascii "__SEH__ 1\0"
 13958      485F5F20 
 13958      3100
 13959 3053 01       		.byte	0x1
 13960 3054 00       		.uleb128 0
 13961 3055 5F5F7374 		.ascii "__stdcall __attribute__((__stdcall__))\0"
 13961      6463616C 
 13961      6C205F5F 
 13961      61747472 
 13961      69627574 
 13962 307c 01       		.byte	0x1
 13963 307d 00       		.uleb128 0
 13964 307e 5F5F6661 		.ascii "__fastcall __attribute__((__fastcall__))\0"
 13964      73746361 
 13964      6C6C205F 
 13964      5F617474 
 13964      72696275 
 13965 30a7 01       		.byte	0x1
 13966 30a8 00       		.uleb128 0
 13967 30a9 5F5F7468 		.ascii "__thiscall __attribute__((__thiscall__))\0"
 13967      69736361 
 13967      6C6C205F 
 13967      5F617474 
 13967      72696275 
 13968 30d2 01       		.byte	0x1
 13969 30d3 00       		.uleb128 0
 13970 30d4 5F5F6364 		.ascii "__cdecl __attribute__((__cdecl__))\0"
 13970      65636C20 
 13970      5F5F6174 
 13970      74726962 
 13970      7574655F 
 13971 30f7 01       		.byte	0x1
 13972 30f8 00       		.uleb128 0
 13973 30f9 5F5F4758 		.ascii "__GXX_MERGED_TYPEINFO_NAMES 0\0"
 13973      585F4D45 
 13973      52474544 
 13973      5F545950 
 13973      45494E46 
 13974 3117 01       		.byte	0x1
 13975 3118 00       		.uleb128 0
 13976 3119 5F5F4758 		.ascii "__GXX_TYPEINFO_EQUALITY_INLINE 0\0"
 13976      585F5459 
 13976      5045494E 
 13976      464F5F45 
 13976      5155414C 
 13977 313a 01       		.byte	0x1
 13978 313b 00       		.uleb128 0
 13979 313c 5F5F4D53 		.ascii "__MSVCRT__ 1\0"
 13979      56435254 
 13979      5F5F2031 
 13979      00
 13980 3149 01       		.byte	0x1
 13981 314a 00       		.uleb128 0
 13982 314b 5F5F4D49 		.ascii "__MINGW32__ 1\0"
 13982      4E475733 
 13982      325F5F20 
 13982      3100
 13983 3159 01       		.byte	0x1
 13984 315a 00       		.uleb128 0
 13985 315b 5F57494E 		.ascii "_WIN32 1\0"
 13985      33322031 
 13985      00
 13986 3164 01       		.byte	0x1
 13987 3165 00       		.uleb128 0
 13988 3166 5F5F5749 		.ascii "__WIN32 1\0"
 13988      4E333220 
 13988      3100
 13989 3170 01       		.byte	0x1
 13990 3171 00       		.uleb128 0
 13991 3172 5F5F5749 		.ascii "__WIN32__ 1\0"
 13991      4E33325F 
 13991      5F203100 
 13992 317e 01       		.byte	0x1
 13993 317f 00       		.uleb128 0
 13994 3180 5F5F5749 		.ascii "__WINNT 1\0"
 13994      4E4E5420 
 13994      3100
 13995 318a 01       		.byte	0x1
 13996 318b 00       		.uleb128 0
 13997 318c 5F5F5749 		.ascii "__WINNT__ 1\0"
 13997      4E4E545F 
 13997      5F203100 
 13998 3198 01       		.byte	0x1
 13999 3199 00       		.uleb128 0
 14000 319a 5F494E54 		.ascii "_INTEGRAL_MAX_BITS 64\0"
 14000      45475241 
 14000      4C5F4D41 
 14000      585F4249 
 14000      54532036 
 14001 31b0 01       		.byte	0x1
 14002 31b1 00       		.uleb128 0
 14003 31b2 5F5F4D49 		.ascii "__MINGW64__ 1\0"
 14003      4E475736 
 14003      345F5F20 
 14003      3100
 14004 31c0 01       		.byte	0x1
 14005 31c1 00       		.uleb128 0
 14006 31c2 5F5F5749 		.ascii "__WIN64 1\0"
 14006      4E363420 
 14006      3100
 14007 31cc 01       		.byte	0x1
 14008 31cd 00       		.uleb128 0
 14009 31ce 5F5F5749 		.ascii "__WIN64__ 1\0"
 14009      4E36345F 
 14009      5F203100 
 14010 31da 01       		.byte	0x1
 14011 31db 00       		.uleb128 0
 14012 31dc 5F57494E 		.ascii "_WIN64 1\0"
 14012      36342031 
 14012      00
 14013 31e5 01       		.byte	0x1
 14014 31e6 00       		.uleb128 0
 14015 31e7 5F5F6465 		.ascii "__declspec(x) __attribute__((x))\0"
 14015      636C7370 
 14015      65632878 
 14015      29205F5F 
 14015      61747472 
 14016 3208 01       		.byte	0x1
 14017 3209 00       		.uleb128 0
 14018 320a 5F5F4445 		.ascii "__DECIMAL_BID_FORMAT__ 1\0"
 14018      43494D41 
 14018      4C5F4249 
 14018      445F464F 
 14018      524D4154 
 14019 3223 01       		.byte	0x1
 14020 3224 00       		.uleb128 0
 14021 3225 5F524545 		.ascii "_REENTRANT 1\0"
 14021      4E545241 
 14021      4E542031 
 14021      00
 14022 3232 01       		.byte	0x1
 14023 3233 00       		.uleb128 0
 14024 3234 474E555F 		.ascii "GNU_EFI_USE_MS_ABI 1\0"
 14024      4546495F 
 14024      5553455F 
 14024      4D535F41 
 14024      42492031 
 14025 3249 03       		.byte	0x3
 14026 324a 00       		.uleb128 0
 14027 324b 01       		.uleb128 0x1
 14028              		.file 11 "gnu-efi-3.0.18/inc/efi.h"
 14029 324c 03       		.byte	0x3
 14030 324d 01       		.uleb128 0x1
 14031 324e 0B       		.uleb128 0xb
 14032 324f 01       		.byte	0x1
 14033 3250 16       		.uleb128 0x16
 14034 3251 5F474E55 		.ascii "_GNU_EFI \0"
 14034      5F454649 
 14034      2000
 14035 325b 01       		.byte	0x1
 14036 325c 22       		.uleb128 0x22
 14037 325d 5F454649 		.ascii "_EFI_INCLUDE_ \0"
 14037      5F494E43 
 14037      4C554445 
 14037      5F2000
 14038 326c 01       		.byte	0x1
 14039 326d 28       		.uleb128 0x28
 14040 326e 4546495F 		.ascii "EFI_FIRMWARE_VENDOR L\"INTEL\"\0"
 14040      4649524D 
 14040      57415245 
 14040      5F56454E 
 14040      444F5220 
 14041 328b 01       		.byte	0x1
 14042 328c 29       		.uleb128 0x29
 14043 328d 4546495F 		.ascii "EFI_FIRMWARE_MAJOR_REVISION 12\0"
 14043      4649524D 
 14043      57415245 
 14043      5F4D414A 
 14043      4F525F52 
 14044 32ac 01       		.byte	0x1
 14045 32ad 2A       		.uleb128 0x2a
 14046 32ae 4546495F 		.ascii "EFI_FIRMWARE_MINOR_REVISION 33\0"
 14046      4649524D 
 14046      57415245 
 14046      5F4D494E 
 14046      4F525F52 
 14047 32cd 01       		.byte	0x1
 14048 32ce 2B       		.uleb128 0x2b
 14049 32cf 4546495F 		.ascii "EFI_FIRMWARE_REVISION ((EFI_FIRMWARE_MAJOR_REVISION <<16) | (EFI_FIRMWARE_MINOR_REVISION))
 14049      4649524D 
 14049      57415245 
 14049      5F524556 
 14049      4953494F 
 14050 332a 03       		.byte	0x3
 14051 332b 2E       		.uleb128 0x2e
 14052 332c 04       		.uleb128 0x4
 14053 332d 01       		.byte	0x1
 14054 332e 14       		.uleb128 0x14
 14055 332f 5838365F 		.ascii "X86_64_EFI_BIND \0"
 14055      36345F45 
 14055      46495F42 
 14055      494E4420 
 14055      00
 14056 3340 01       		.byte	0x1
 14057 3341 1D       		.uleb128 0x1d
 14058 3342 48415645 		.ascii "HAVE_USE_MS_ABI 1\0"
 14058      5F555345 
 14058      5F4D535F 
 14058      41424920 
 14058      3100
 14059              		.file 12 "C:/Users/victim/Documents/GitHub/MrsMajor5.0/UEFI/Backend/mingw64/lib/gcc/x86_64-w64-min
 14060 3354 03       		.byte	0x3
 14061 3355 5C       		.uleb128 0x5c
 14062 3356 0C       		.uleb128 0xc
 14063 3357 03       		.byte	0x3
 14064 3358 0B       		.uleb128 0xb
 14065 3359 02       		.uleb128 0x2
 14066 335a 01       		.byte	0x1
 14067 335b 1D       		.uleb128 0x1d
 14068 335c 5F474343 		.ascii "_GCC_STDINT_H \0"
 14068      5F535444 
 14068      494E545F 
 14068      482000
 14069 336b 02       		.byte	0x2
 14070 336c 64       		.uleb128 0x64
 14071 336d 494E5438 		.ascii "INT8_MAX\0"
 14071      5F4D4158 
 14071      00
 14072 3376 01       		.byte	0x1
 14073 3377 65       		.uleb128 0x65
 14074 3378 494E5438 		.ascii "INT8_MAX __INT8_MAX__\0"
 14074      5F4D4158 
 14074      205F5F49 
 14074      4E54385F 
 14074      4D41585F 
 14075 338e 02       		.byte	0x2
 14076 338f 66       		.uleb128 0x66
 14077 3390 494E5438 		.ascii "INT8_MIN\0"
 14077      5F4D494E 
 14077      00
 14078 3399 01       		.byte	0x1
 14079 339a 67       		.uleb128 0x67
 14080 339b 494E5438 		.ascii "INT8_MIN (-INT8_MAX - 1)\0"
 14080      5F4D494E 
 14080      20282D49 
 14080      4E54385F 
 14080      4D415820 
 14081 33b4 02       		.byte	0x2
 14082 33b5 6A       		.uleb128 0x6a
 14083 33b6 55494E54 		.ascii "UINT8_MAX\0"
 14083      385F4D41 
 14083      5800
 14084 33c0 01       		.byte	0x1
 14085 33c1 6B       		.uleb128 0x6b
 14086 33c2 55494E54 		.ascii "UINT8_MAX __UINT8_MAX__\0"
 14086      385F4D41 
 14086      58205F5F 
 14086      55494E54 
 14086      385F4D41 
 14087 33da 02       		.byte	0x2
 14088 33db 6E       		.uleb128 0x6e
 14089 33dc 494E5431 		.ascii "INT16_MAX\0"
 14089      365F4D41 
 14089      5800
 14090 33e6 01       		.byte	0x1
 14091 33e7 6F       		.uleb128 0x6f
 14092 33e8 494E5431 		.ascii "INT16_MAX __INT16_MAX__\0"
 14092      365F4D41 
 14092      58205F5F 
 14092      494E5431 
 14092      365F4D41 
 14093 3400 02       		.byte	0x2
 14094 3401 70       		.uleb128 0x70
 14095 3402 494E5431 		.ascii "INT16_MIN\0"
 14095      365F4D49 
 14095      4E00
 14096 340c 01       		.byte	0x1
 14097 340d 71       		.uleb128 0x71
 14098 340e 494E5431 		.ascii "INT16_MIN (-INT16_MAX - 1)\0"
 14098      365F4D49 
 14098      4E20282D 
 14098      494E5431 
 14098      365F4D41 
 14099 3429 02       		.byte	0x2
 14100 342a 74       		.uleb128 0x74
 14101 342b 55494E54 		.ascii "UINT16_MAX\0"
 14101      31365F4D 
 14101      415800
 14102 3436 01       		.byte	0x1
 14103 3437 75       		.uleb128 0x75
 14104 3438 55494E54 		.ascii "UINT16_MAX __UINT16_MAX__\0"
 14104      31365F4D 
 14104      4158205F 
 14104      5F55494E 
 14104      5431365F 
 14105 3452 02       		.byte	0x2
 14106 3453 78       		.uleb128 0x78
 14107 3454 494E5433 		.ascii "INT32_MAX\0"
 14107      325F4D41 
 14107      5800
 14108 345e 01       		.byte	0x1
 14109 345f 79       		.uleb128 0x79
 14110 3460 494E5433 		.ascii "INT32_MAX __INT32_MAX__\0"
 14110      325F4D41 
 14110      58205F5F 
 14110      494E5433 
 14110      325F4D41 
 14111 3478 02       		.byte	0x2
 14112 3479 7A       		.uleb128 0x7a
 14113 347a 494E5433 		.ascii "INT32_MIN\0"
 14113      325F4D49 
 14113      4E00
 14114 3484 01       		.byte	0x1
 14115 3485 7B       		.uleb128 0x7b
 14116 3486 494E5433 		.ascii "INT32_MIN (-INT32_MAX - 1)\0"
 14116      325F4D49 
 14116      4E20282D 
 14116      494E5433 
 14116      325F4D41 
 14117 34a1 02       		.byte	0x2
 14118 34a2 7E       		.uleb128 0x7e
 14119 34a3 55494E54 		.ascii "UINT32_MAX\0"
 14119      33325F4D 
 14119      415800
 14120 34ae 01       		.byte	0x1
 14121 34af 7F       		.uleb128 0x7f
 14122 34b0 55494E54 		.ascii "UINT32_MAX __UINT32_MAX__\0"
 14122      33325F4D 
 14122      4158205F 
 14122      5F55494E 
 14122      5433325F 
 14123 34ca 02       		.byte	0x2
 14124 34cb 8201     		.uleb128 0x82
 14125 34cd 494E5436 		.ascii "INT64_MAX\0"
 14125      345F4D41 
 14125      5800
 14126 34d7 01       		.byte	0x1
 14127 34d8 8301     		.uleb128 0x83
 14128 34da 494E5436 		.ascii "INT64_MAX __INT64_MAX__\0"
 14128      345F4D41 
 14128      58205F5F 
 14128      494E5436 
 14128      345F4D41 
 14129 34f2 02       		.byte	0x2
 14130 34f3 8401     		.uleb128 0x84
 14131 34f5 494E5436 		.ascii "INT64_MIN\0"
 14131      345F4D49 
 14131      4E00
 14132 34ff 01       		.byte	0x1
 14133 3500 8501     		.uleb128 0x85
 14134 3502 494E5436 		.ascii "INT64_MIN (-INT64_MAX - 1)\0"
 14134      345F4D49 
 14134      4E20282D 
 14134      494E5436 
 14134      345F4D41 
 14135 351d 02       		.byte	0x2
 14136 351e 8801     		.uleb128 0x88
 14137 3520 55494E54 		.ascii "UINT64_MAX\0"
 14137      36345F4D 
 14137      415800
 14138 352b 01       		.byte	0x1
 14139 352c 8901     		.uleb128 0x89
 14140 352e 55494E54 		.ascii "UINT64_MAX __UINT64_MAX__\0"
 14140      36345F4D 
 14140      4158205F 
 14140      5F55494E 
 14140      5436345F 
 14141 3548 02       		.byte	0x2
 14142 3549 8C01     		.uleb128 0x8c
 14143 354b 494E545F 		.ascii "INT_LEAST8_MAX\0"
 14143      4C454153 
 14143      54385F4D 
 14143      415800
 14144 355a 01       		.byte	0x1
 14145 355b 8D01     		.uleb128 0x8d
 14146 355d 494E545F 		.ascii "INT_LEAST8_MAX __INT_LEAST8_MAX__\0"
 14146      4C454153 
 14146      54385F4D 
 14146      4158205F 
 14146      5F494E54 
 14147 357f 02       		.byte	0x2
 14148 3580 8E01     		.uleb128 0x8e
 14149 3582 494E545F 		.ascii "INT_LEAST8_MIN\0"
 14149      4C454153 
 14149      54385F4D 
 14149      494E00
 14150 3591 01       		.byte	0x1
 14151 3592 8F01     		.uleb128 0x8f
 14152 3594 494E545F 		.ascii "INT_LEAST8_MIN (-INT_LEAST8_MAX - 1)\0"
 14152      4C454153 
 14152      54385F4D 
 14152      494E2028 
 14152      2D494E54 
 14153 35b9 02       		.byte	0x2
 14154 35ba 9001     		.uleb128 0x90
 14155 35bc 55494E54 		.ascii "UINT_LEAST8_MAX\0"
 14155      5F4C4541 
 14155      5354385F 
 14155      4D415800 
 14156 35cc 01       		.byte	0x1
 14157 35cd 9101     		.uleb128 0x91
 14158 35cf 55494E54 		.ascii "UINT_LEAST8_MAX __UINT_LEAST8_MAX__\0"
 14158      5F4C4541 
 14158      5354385F 
 14158      4D415820 
 14158      5F5F5549 
 14159 35f3 02       		.byte	0x2
 14160 35f4 9201     		.uleb128 0x92
 14161 35f6 494E545F 		.ascii "INT_LEAST16_MAX\0"
 14161      4C454153 
 14161      5431365F 
 14161      4D415800 
 14162 3606 01       		.byte	0x1
 14163 3607 9301     		.uleb128 0x93
 14164 3609 494E545F 		.ascii "INT_LEAST16_MAX __INT_LEAST16_MAX__\0"
 14164      4C454153 
 14164      5431365F 
 14164      4D415820 
 14164      5F5F494E 
 14165 362d 02       		.byte	0x2
 14166 362e 9401     		.uleb128 0x94
 14167 3630 494E545F 		.ascii "INT_LEAST16_MIN\0"
 14167      4C454153 
 14167      5431365F 
 14167      4D494E00 
 14168 3640 01       		.byte	0x1
 14169 3641 9501     		.uleb128 0x95
 14170 3643 494E545F 		.ascii "INT_LEAST16_MIN (-INT_LEAST16_MAX - 1)\0"
 14170      4C454153 
 14170      5431365F 
 14170      4D494E20 
 14170      282D494E 
 14171 366a 02       		.byte	0x2
 14172 366b 9601     		.uleb128 0x96
 14173 366d 55494E54 		.ascii "UINT_LEAST16_MAX\0"
 14173      5F4C4541 
 14173      53543136 
 14173      5F4D4158 
 14173      00
 14174 367e 01       		.byte	0x1
 14175 367f 9701     		.uleb128 0x97
 14176 3681 55494E54 		.ascii "UINT_LEAST16_MAX __UINT_LEAST16_MAX__\0"
 14176      5F4C4541 
 14176      53543136 
 14176      5F4D4158 
 14176      205F5F55 
 14177 36a7 02       		.byte	0x2
 14178 36a8 9801     		.uleb128 0x98
 14179 36aa 494E545F 		.ascii "INT_LEAST32_MAX\0"
 14179      4C454153 
 14179      5433325F 
 14179      4D415800 
 14180 36ba 01       		.byte	0x1
 14181 36bb 9901     		.uleb128 0x99
 14182 36bd 494E545F 		.ascii "INT_LEAST32_MAX __INT_LEAST32_MAX__\0"
 14182      4C454153 
 14182      5433325F 
 14182      4D415820 
 14182      5F5F494E 
 14183 36e1 02       		.byte	0x2
 14184 36e2 9A01     		.uleb128 0x9a
 14185 36e4 494E545F 		.ascii "INT_LEAST32_MIN\0"
 14185      4C454153 
 14185      5433325F 
 14185      4D494E00 
 14186 36f4 01       		.byte	0x1
 14187 36f5 9B01     		.uleb128 0x9b
 14188 36f7 494E545F 		.ascii "INT_LEAST32_MIN (-INT_LEAST32_MAX - 1)\0"
 14188      4C454153 
 14188      5433325F 
 14188      4D494E20 
 14188      282D494E 
 14189 371e 02       		.byte	0x2
 14190 371f 9C01     		.uleb128 0x9c
 14191 3721 55494E54 		.ascii "UINT_LEAST32_MAX\0"
 14191      5F4C4541 
 14191      53543332 
 14191      5F4D4158 
 14191      00
 14192 3732 01       		.byte	0x1
 14193 3733 9D01     		.uleb128 0x9d
 14194 3735 55494E54 		.ascii "UINT_LEAST32_MAX __UINT_LEAST32_MAX__\0"
 14194      5F4C4541 
 14194      53543332 
 14194      5F4D4158 
 14194      205F5F55 
 14195 375b 02       		.byte	0x2
 14196 375c 9E01     		.uleb128 0x9e
 14197 375e 494E545F 		.ascii "INT_LEAST64_MAX\0"
 14197      4C454153 
 14197      5436345F 
 14197      4D415800 
 14198 376e 01       		.byte	0x1
 14199 376f 9F01     		.uleb128 0x9f
 14200 3771 494E545F 		.ascii "INT_LEAST64_MAX __INT_LEAST64_MAX__\0"
 14200      4C454153 
 14200      5436345F 
 14200      4D415820 
 14200      5F5F494E 
 14201 3795 02       		.byte	0x2
 14202 3796 A001     		.uleb128 0xa0
 14203 3798 494E545F 		.ascii "INT_LEAST64_MIN\0"
 14203      4C454153 
 14203      5436345F 
 14203      4D494E00 
 14204 37a8 01       		.byte	0x1
 14205 37a9 A101     		.uleb128 0xa1
 14206 37ab 494E545F 		.ascii "INT_LEAST64_MIN (-INT_LEAST64_MAX - 1)\0"
 14206      4C454153 
 14206      5436345F 
 14206      4D494E20 
 14206      282D494E 
 14207 37d2 02       		.byte	0x2
 14208 37d3 A201     		.uleb128 0xa2
 14209 37d5 55494E54 		.ascii "UINT_LEAST64_MAX\0"
 14209      5F4C4541 
 14209      53543634 
 14209      5F4D4158 
 14209      00
 14210 37e6 01       		.byte	0x1
 14211 37e7 A301     		.uleb128 0xa3
 14212 37e9 55494E54 		.ascii "UINT_LEAST64_MAX __UINT_LEAST64_MAX__\0"
 14212      5F4C4541 
 14212      53543634 
 14212      5F4D4158 
 14212      205F5F55 
 14213 380f 02       		.byte	0x2
 14214 3810 A501     		.uleb128 0xa5
 14215 3812 494E545F 		.ascii "INT_FAST8_MAX\0"
 14215      46415354 
 14215      385F4D41 
 14215      5800
 14216 3820 01       		.byte	0x1
 14217 3821 A601     		.uleb128 0xa6
 14218 3823 494E545F 		.ascii "INT_FAST8_MAX __INT_FAST8_MAX__\0"
 14218      46415354 
 14218      385F4D41 
 14218      58205F5F 
 14218      494E545F 
 14219 3843 02       		.byte	0x2
 14220 3844 A701     		.uleb128 0xa7
 14221 3846 494E545F 		.ascii "INT_FAST8_MIN\0"
 14221      46415354 
 14221      385F4D49 
 14221      4E00
 14222 3854 01       		.byte	0x1
 14223 3855 A801     		.uleb128 0xa8
 14224 3857 494E545F 		.ascii "INT_FAST8_MIN (-INT_FAST8_MAX - 1)\0"
 14224      46415354 
 14224      385F4D49 
 14224      4E20282D 
 14224      494E545F 
 14225 387a 02       		.byte	0x2
 14226 387b A901     		.uleb128 0xa9
 14227 387d 55494E54 		.ascii "UINT_FAST8_MAX\0"
 14227      5F464153 
 14227      54385F4D 
 14227      415800
 14228 388c 01       		.byte	0x1
 14229 388d AA01     		.uleb128 0xaa
 14230 388f 55494E54 		.ascii "UINT_FAST8_MAX __UINT_FAST8_MAX__\0"
 14230      5F464153 
 14230      54385F4D 
 14230      4158205F 
 14230      5F55494E 
 14231 38b1 02       		.byte	0x2
 14232 38b2 AB01     		.uleb128 0xab
 14233 38b4 494E545F 		.ascii "INT_FAST16_MAX\0"
 14233      46415354 
 14233      31365F4D 
 14233      415800
 14234 38c3 01       		.byte	0x1
 14235 38c4 AC01     		.uleb128 0xac
 14236 38c6 494E545F 		.ascii "INT_FAST16_MAX __INT_FAST16_MAX__\0"
 14236      46415354 
 14236      31365F4D 
 14236      4158205F 
 14236      5F494E54 
 14237 38e8 02       		.byte	0x2
 14238 38e9 AD01     		.uleb128 0xad
 14239 38eb 494E545F 		.ascii "INT_FAST16_MIN\0"
 14239      46415354 
 14239      31365F4D 
 14239      494E00
 14240 38fa 01       		.byte	0x1
 14241 38fb AE01     		.uleb128 0xae
 14242 38fd 494E545F 		.ascii "INT_FAST16_MIN (-INT_FAST16_MAX - 1)\0"
 14242      46415354 
 14242      31365F4D 
 14242      494E2028 
 14242      2D494E54 
 14243 3922 02       		.byte	0x2
 14244 3923 AF01     		.uleb128 0xaf
 14245 3925 55494E54 		.ascii "UINT_FAST16_MAX\0"
 14245      5F464153 
 14245      5431365F 
 14245      4D415800 
 14246 3935 01       		.byte	0x1
 14247 3936 B001     		.uleb128 0xb0
 14248 3938 55494E54 		.ascii "UINT_FAST16_MAX __UINT_FAST16_MAX__\0"
 14248      5F464153 
 14248      5431365F 
 14248      4D415820 
 14248      5F5F5549 
 14249 395c 02       		.byte	0x2
 14250 395d B101     		.uleb128 0xb1
 14251 395f 494E545F 		.ascii "INT_FAST32_MAX\0"
 14251      46415354 
 14251      33325F4D 
 14251      415800
 14252 396e 01       		.byte	0x1
 14253 396f B201     		.uleb128 0xb2
 14254 3971 494E545F 		.ascii "INT_FAST32_MAX __INT_FAST32_MAX__\0"
 14254      46415354 
 14254      33325F4D 
 14254      4158205F 
 14254      5F494E54 
 14255 3993 02       		.byte	0x2
 14256 3994 B301     		.uleb128 0xb3
 14257 3996 494E545F 		.ascii "INT_FAST32_MIN\0"
 14257      46415354 
 14257      33325F4D 
 14257      494E00
 14258 39a5 01       		.byte	0x1
 14259 39a6 B401     		.uleb128 0xb4
 14260 39a8 494E545F 		.ascii "INT_FAST32_MIN (-INT_FAST32_MAX - 1)\0"
 14260      46415354 
 14260      33325F4D 
 14260      494E2028 
 14260      2D494E54 
 14261 39cd 02       		.byte	0x2
 14262 39ce B501     		.uleb128 0xb5
 14263 39d0 55494E54 		.ascii "UINT_FAST32_MAX\0"
 14263      5F464153 
 14263      5433325F 
 14263      4D415800 
 14264 39e0 01       		.byte	0x1
 14265 39e1 B601     		.uleb128 0xb6
 14266 39e3 55494E54 		.ascii "UINT_FAST32_MAX __UINT_FAST32_MAX__\0"
 14266      5F464153 
 14266      5433325F 
 14266      4D415820 
 14266      5F5F5549 
 14267 3a07 02       		.byte	0x2
 14268 3a08 B701     		.uleb128 0xb7
 14269 3a0a 494E545F 		.ascii "INT_FAST64_MAX\0"
 14269      46415354 
 14269      36345F4D 
 14269      415800
 14270 3a19 01       		.byte	0x1
 14271 3a1a B801     		.uleb128 0xb8
 14272 3a1c 494E545F 		.ascii "INT_FAST64_MAX __INT_FAST64_MAX__\0"
 14272      46415354 
 14272      36345F4D 
 14272      4158205F 
 14272      5F494E54 
 14273 3a3e 02       		.byte	0x2
 14274 3a3f B901     		.uleb128 0xb9
 14275 3a41 494E545F 		.ascii "INT_FAST64_MIN\0"
 14275      46415354 
 14275      36345F4D 
 14275      494E00
 14276 3a50 01       		.byte	0x1
 14277 3a51 BA01     		.uleb128 0xba
 14278 3a53 494E545F 		.ascii "INT_FAST64_MIN (-INT_FAST64_MAX - 1)\0"
 14278      46415354 
 14278      36345F4D 
 14278      494E2028 
 14278      2D494E54 
 14279 3a78 02       		.byte	0x2
 14280 3a79 BB01     		.uleb128 0xbb
 14281 3a7b 55494E54 		.ascii "UINT_FAST64_MAX\0"
 14281      5F464153 
 14281      5436345F 
 14281      4D415800 
 14282 3a8b 01       		.byte	0x1
 14283 3a8c BC01     		.uleb128 0xbc
 14284 3a8e 55494E54 		.ascii "UINT_FAST64_MAX __UINT_FAST64_MAX__\0"
 14284      5F464153 
 14284      5436345F 
 14284      4D415820 
 14284      5F5F5549 
 14285 3ab2 02       		.byte	0x2
 14286 3ab3 BF01     		.uleb128 0xbf
 14287 3ab5 494E5450 		.ascii "INTPTR_MAX\0"
 14287      54525F4D 
 14287      415800
 14288 3ac0 01       		.byte	0x1
 14289 3ac1 C001     		.uleb128 0xc0
 14290 3ac3 494E5450 		.ascii "INTPTR_MAX __INTPTR_MAX__\0"
 14290      54525F4D 
 14290      4158205F 
 14290      5F494E54 
 14290      5054525F 
 14291 3add 02       		.byte	0x2
 14292 3ade C101     		.uleb128 0xc1
 14293 3ae0 494E5450 		.ascii "INTPTR_MIN\0"
 14293      54525F4D 
 14293      494E00
 14294 3aeb 01       		.byte	0x1
 14295 3aec C201     		.uleb128 0xc2
 14296 3aee 494E5450 		.ascii "INTPTR_MIN (-INTPTR_MAX - 1)\0"
 14296      54525F4D 
 14296      494E2028 
 14296      2D494E54 
 14296      5054525F 
 14297 3b0b 02       		.byte	0x2
 14298 3b0c C501     		.uleb128 0xc5
 14299 3b0e 55494E54 		.ascii "UINTPTR_MAX\0"
 14299      5054525F 
 14299      4D415800 
 14300 3b1a 01       		.byte	0x1
 14301 3b1b C601     		.uleb128 0xc6
 14302 3b1d 55494E54 		.ascii "UINTPTR_MAX __UINTPTR_MAX__\0"
 14302      5054525F 
 14302      4D415820 
 14302      5F5F5549 
 14302      4E545054 
 14303 3b39 02       		.byte	0x2
 14304 3b3a C901     		.uleb128 0xc9
 14305 3b3c 494E544D 		.ascii "INTMAX_MAX\0"
 14305      41585F4D 
 14305      415800
 14306 3b47 01       		.byte	0x1
 14307 3b48 CA01     		.uleb128 0xca
 14308 3b4a 494E544D 		.ascii "INTMAX_MAX __INTMAX_MAX__\0"
 14308      41585F4D 
 14308      4158205F 
 14308      5F494E54 
 14308      4D41585F 
 14309 3b64 02       		.byte	0x2
 14310 3b65 CB01     		.uleb128 0xcb
 14311 3b67 494E544D 		.ascii "INTMAX_MIN\0"
 14311      41585F4D 
 14311      494E00
 14312 3b72 01       		.byte	0x1
 14313 3b73 CC01     		.uleb128 0xcc
 14314 3b75 494E544D 		.ascii "INTMAX_MIN (-INTMAX_MAX - 1)\0"
 14314      41585F4D 
 14314      494E2028 
 14314      2D494E54 
 14314      4D41585F 
 14315 3b92 02       		.byte	0x2
 14316 3b93 CD01     		.uleb128 0xcd
 14317 3b95 55494E54 		.ascii "UINTMAX_MAX\0"
 14317      4D41585F 
 14317      4D415800 
 14318 3ba1 01       		.byte	0x1
 14319 3ba2 CE01     		.uleb128 0xce
 14320 3ba4 55494E54 		.ascii "UINTMAX_MAX __UINTMAX_MAX__\0"
 14320      4D41585F 
 14320      4D415820 
 14320      5F5F5549 
 14320      4E544D41 
 14321 3bc0 02       		.byte	0x2
 14322 3bc1 D201     		.uleb128 0xd2
 14323 3bc3 50545244 		.ascii "PTRDIFF_MAX\0"
 14323      4946465F 
 14323      4D415800 
 14324 3bcf 01       		.byte	0x1
 14325 3bd0 D301     		.uleb128 0xd3
 14326 3bd2 50545244 		.ascii "PTRDIFF_MAX __PTRDIFF_MAX__\0"
 14326      4946465F 
 14326      4D415820 
 14326      5F5F5054 
 14326      52444946 
 14327 3bee 02       		.byte	0x2
 14328 3bef D401     		.uleb128 0xd4
 14329 3bf1 50545244 		.ascii "PTRDIFF_MIN\0"
 14329      4946465F 
 14329      4D494E00 
 14330 3bfd 01       		.byte	0x1
 14331 3bfe D501     		.uleb128 0xd5
 14332 3c00 50545244 		.ascii "PTRDIFF_MIN (-PTRDIFF_MAX - 1)\0"
 14332      4946465F 
 14332      4D494E20 
 14332      282D5054 
 14332      52444946 
 14333 3c1f 02       		.byte	0x2
 14334 3c20 D701     		.uleb128 0xd7
 14335 3c22 5349475F 		.ascii "SIG_ATOMIC_MAX\0"
 14335      41544F4D 
 14335      49435F4D 
 14335      415800
 14336 3c31 01       		.byte	0x1
 14337 3c32 D801     		.uleb128 0xd8
 14338 3c34 5349475F 		.ascii "SIG_ATOMIC_MAX __SIG_ATOMIC_MAX__\0"
 14338      41544F4D 
 14338      49435F4D 
 14338      4158205F 
 14338      5F534947 
 14339 3c56 02       		.byte	0x2
 14340 3c57 D901     		.uleb128 0xd9
 14341 3c59 5349475F 		.ascii "SIG_ATOMIC_MIN\0"
 14341      41544F4D 
 14341      49435F4D 
 14341      494E00
 14342 3c68 01       		.byte	0x1
 14343 3c69 DA01     		.uleb128 0xda
 14344 3c6b 5349475F 		.ascii "SIG_ATOMIC_MIN __SIG_ATOMIC_MIN__\0"
 14344      41544F4D 
 14344      49435F4D 
 14344      494E205F 
 14344      5F534947 
 14345 3c8d 02       		.byte	0x2
 14346 3c8e DC01     		.uleb128 0xdc
 14347 3c90 53495A45 		.ascii "SIZE_MAX\0"
 14347      5F4D4158 
 14347      00
 14348 3c99 01       		.byte	0x1
 14349 3c9a DD01     		.uleb128 0xdd
 14350 3c9c 53495A45 		.ascii "SIZE_MAX __SIZE_MAX__\0"
 14350      5F4D4158 
 14350      205F5F53 
 14350      495A455F 
 14350      4D41585F 
 14351 3cb2 02       		.byte	0x2
 14352 3cb3 DF01     		.uleb128 0xdf
 14353 3cb5 57434841 		.ascii "WCHAR_MAX\0"
 14353      525F4D41 
 14353      5800
 14354 3cbf 01       		.byte	0x1
 14355 3cc0 E001     		.uleb128 0xe0
 14356 3cc2 57434841 		.ascii "WCHAR_MAX __WCHAR_MAX__\0"
 14356      525F4D41 
 14356      58205F5F 
 14356      57434841 
 14356      525F4D41 
 14357 3cda 02       		.byte	0x2
 14358 3cdb E101     		.uleb128 0xe1
 14359 3cdd 57434841 		.ascii "WCHAR_MIN\0"
 14359      525F4D49 
 14359      4E00
 14360 3ce7 01       		.byte	0x1
 14361 3ce8 E201     		.uleb128 0xe2
 14362 3cea 57434841 		.ascii "WCHAR_MIN __WCHAR_MIN__\0"
 14362      525F4D49 
 14362      4E205F5F 
 14362      57434841 
 14362      525F4D49 
 14363 3d02 02       		.byte	0x2
 14364 3d03 E401     		.uleb128 0xe4
 14365 3d05 57494E54 		.ascii "WINT_MAX\0"
 14365      5F4D4158 
 14365      00
 14366 3d0e 01       		.byte	0x1
 14367 3d0f E501     		.uleb128 0xe5
 14368 3d11 57494E54 		.ascii "WINT_MAX __WINT_MAX__\0"
 14368      5F4D4158 
 14368      205F5F57 
 14368      494E545F 
 14368      4D41585F 
 14369 3d27 02       		.byte	0x2
 14370 3d28 E601     		.uleb128 0xe6
 14371 3d2a 57494E54 		.ascii "WINT_MIN\0"
 14371      5F4D494E 
 14371      00
 14372 3d33 01       		.byte	0x1
 14373 3d34 E701     		.uleb128 0xe7
 14374 3d36 57494E54 		.ascii "WINT_MIN __WINT_MIN__\0"
 14374      5F4D494E 
 14374      205F5F57 
 14374      494E545F 
 14374      4D494E5F 
 14375 3d4c 02       		.byte	0x2
 14376 3d4d EF01     		.uleb128 0xef
 14377 3d4f 494E5438 		.ascii "INT8_C\0"
 14377      5F4300
 14378 3d56 01       		.byte	0x1
 14379 3d57 F001     		.uleb128 0xf0
 14380 3d59 494E5438 		.ascii "INT8_C(c) __INT8_C(c)\0"
 14380      5F432863 
 14380      29205F5F 
 14380      494E5438 
 14380      5F432863 
 14381 3d6f 02       		.byte	0x2
 14382 3d70 F101     		.uleb128 0xf1
 14383 3d72 494E5431 		.ascii "INT16_C\0"
 14383      365F4300 
 14384 3d7a 01       		.byte	0x1
 14385 3d7b F201     		.uleb128 0xf2
 14386 3d7d 494E5431 		.ascii "INT16_C(c) __INT16_C(c)\0"
 14386      365F4328 
 14386      6329205F 
 14386      5F494E54 
 14386      31365F43 
 14387 3d95 02       		.byte	0x2
 14388 3d96 F301     		.uleb128 0xf3
 14389 3d98 494E5433 		.ascii "INT32_C\0"
 14389      325F4300 
 14390 3da0 01       		.byte	0x1
 14391 3da1 F401     		.uleb128 0xf4
 14392 3da3 494E5433 		.ascii "INT32_C(c) __INT32_C(c)\0"
 14392      325F4328 
 14392      6329205F 
 14392      5F494E54 
 14392      33325F43 
 14393 3dbb 02       		.byte	0x2
 14394 3dbc F501     		.uleb128 0xf5
 14395 3dbe 494E5436 		.ascii "INT64_C\0"
 14395      345F4300 
 14396 3dc6 01       		.byte	0x1
 14397 3dc7 F601     		.uleb128 0xf6
 14398 3dc9 494E5436 		.ascii "INT64_C(c) __INT64_C(c)\0"
 14398      345F4328 
 14398      6329205F 
 14398      5F494E54 
 14398      36345F43 
 14399 3de1 02       		.byte	0x2
 14400 3de2 F701     		.uleb128 0xf7
 14401 3de4 55494E54 		.ascii "UINT8_C\0"
 14401      385F4300 
 14402 3dec 01       		.byte	0x1
 14403 3ded F801     		.uleb128 0xf8
 14404 3def 55494E54 		.ascii "UINT8_C(c) __UINT8_C(c)\0"
 14404      385F4328 
 14404      6329205F 
 14404      5F55494E 
 14404      54385F43 
 14405 3e07 02       		.byte	0x2
 14406 3e08 F901     		.uleb128 0xf9
 14407 3e0a 55494E54 		.ascii "UINT16_C\0"
 14407      31365F43 
 14407      00
 14408 3e13 01       		.byte	0x1
 14409 3e14 FA01     		.uleb128 0xfa
 14410 3e16 55494E54 		.ascii "UINT16_C(c) __UINT16_C(c)\0"
 14410      31365F43 
 14410      28632920 
 14410      5F5F5549 
 14410      4E543136 
 14411 3e30 02       		.byte	0x2
 14412 3e31 FB01     		.uleb128 0xfb
 14413 3e33 55494E54 		.ascii "UINT32_C\0"
 14413      33325F43 
 14413      00
 14414 3e3c 01       		.byte	0x1
 14415 3e3d FC01     		.uleb128 0xfc
 14416 3e3f 55494E54 		.ascii "UINT32_C(c) __UINT32_C(c)\0"
 14416      33325F43 
 14416      28632920 
 14416      5F5F5549 
 14416      4E543332 
 14417 3e59 02       		.byte	0x2
 14418 3e5a FD01     		.uleb128 0xfd
 14419 3e5c 55494E54 		.ascii "UINT64_C\0"
 14419      36345F43 
 14419      00
 14420 3e65 01       		.byte	0x1
 14421 3e66 FE01     		.uleb128 0xfe
 14422 3e68 55494E54 		.ascii "UINT64_C(c) __UINT64_C(c)\0"
 14422      36345F43 
 14422      28632920 
 14422      5F5F5549 
 14422      4E543634 
 14423 3e82 02       		.byte	0x2
 14424 3e83 FF01     		.uleb128 0xff
 14425 3e85 494E544D 		.ascii "INTMAX_C\0"
 14425      41585F43 
 14425      00
 14426 3e8e 01       		.byte	0x1
 14427 3e8f 8002     		.uleb128 0x100
 14428 3e91 494E544D 		.ascii "INTMAX_C(c) __INTMAX_C(c)\0"
 14428      41585F43 
 14428      28632920 
 14428      5F5F494E 
 14428      544D4158 
 14429 3eab 02       		.byte	0x2
 14430 3eac 8102     		.uleb128 0x101
 14431 3eae 55494E54 		.ascii "UINTMAX_C\0"
 14431      4D41585F 
 14431      4300
 14432 3eb8 01       		.byte	0x1
 14433 3eb9 8202     		.uleb128 0x102
 14434 3ebb 55494E54 		.ascii "UINTMAX_C(c) __UINTMAX_C(c)\0"
 14434      4D41585F 
 14434      43286329 
 14434      205F5F55 
 14434      494E544D 
 14435 3ed7 04       		.byte	0x4
 14436 3ed8 01       		.byte	0x1
 14437 3ed9 0D       		.uleb128 0xd
 14438 3eda 5F474343 		.ascii "_GCC_WRAP_STDINT_H \0"
 14438      5F575241 
 14438      505F5354 
 14438      44494E54 
 14438      5F482000 
 14439 3eee 04       		.byte	0x4
 14440              		.file 13 "C:/Users/victim/Documents/GitHub/MrsMajor5.0/UEFI/Backend/mingw64/lib/gcc/x86_64-w64-min
 14441 3eef 03       		.byte	0x3
 14442 3ef0 63       		.uleb128 0x63
 14443 3ef1 0D       		.uleb128 0xd
 14444              		.file 14 "C:/Users/victim/Documents/GitHub/MrsMajor5.0/UEFI/Backend/mingw64/include/stddef.h"
 14445 3ef2 03       		.byte	0x3
 14446 3ef3 01       		.uleb128 0x1
 14447 3ef4 0E       		.uleb128 0xe
 14448              		.file 15 "C:/Users/victim/Documents/GitHub/MrsMajor5.0/UEFI/Backend/mingw64/include/crtdefs.h"
 14449 3ef5 03       		.byte	0x3
 14450 3ef6 07       		.uleb128 0x7
 14451 3ef7 0F       		.uleb128 0xf
 14452 3ef8 01       		.byte	0x1
 14453 3ef9 08       		.uleb128 0x8
 14454 3efa 5F494E43 		.ascii "_INC_CRTDEFS \0"
 14454      5F435254 
 14454      44454653 
 14454      2000
 14455 3f08 03       		.byte	0x3
 14456 3f09 0A       		.uleb128 0xa
 14457 3f0a 03       		.uleb128 0x3
 14458 3f0b 01       		.byte	0x1
 14459 3f0c 08       		.uleb128 0x8
 14460 3f0d 5F494E43 		.ascii "_INC_CORECRT \0"
 14460      5F434F52 
 14460      45435254 
 14460      2000
 14461              		.file 16 "C:/Users/victim/Documents/GitHub/MrsMajor5.0/UEFI/Backend/mingw64/include/_mingw.h"
 14462 3f1b 03       		.byte	0x3
 14463 3f1c 0A       		.uleb128 0xa
 14464 3f1d 10       		.uleb128 0x10
 14465 3f1e 01       		.byte	0x1
 14466 3f1f 08       		.uleb128 0x8
 14467 3f20 5F494E43 		.ascii "_INC__MINGW_H \0"
 14467      5F5F4D49 
 14467      4E47575F 
 14467      482000
 14468              		.file 17 "C:/Users/victim/Documents/GitHub/MrsMajor5.0/UEFI/Backend/mingw64/include/_mingw_mac.h"
 14469 3f2f 03       		.byte	0x3
 14470 3f30 0A       		.uleb128 0xa
 14471 3f31 11       		.uleb128 0x11
 14472 3f32 01       		.byte	0x1
 14473 3f33 08       		.uleb128 0x8
 14474 3f34 5F494E43 		.ascii "_INC_CRTDEFS_MACRO \0"
 14474      5F435254 
 14474      44454653 
 14474      5F4D4143 
 14474      524F2000 
 14475 3f48 01       		.byte	0x1
 14476 3f49 0A       		.uleb128 0xa
 14477 3f4a 5F5F5354 		.ascii "__STRINGIFY(x) #x\0"
 14477      52494E47 
 14477      49465928 
 14477      78292023 
 14477      7800
 14478 3f5c 01       		.byte	0x1
 14479 3f5d 0B       		.uleb128 0xb
 14480 3f5e 5F5F4D49 		.ascii "__MINGW64_STRINGIFY(x) __STRINGIFY(x)\0"
 14480      4E475736 
 14480      345F5354 
 14480      52494E47 
 14480      49465928 
 14481 3f84 01       		.byte	0x1
 14482 3f85 0E       		.uleb128 0xe
 14483 3f86 5F5F4D49 		.ascii "__MINGW64_VERSION_MAJOR 13\0"
 14483      4E475736 
 14483      345F5645 
 14483      5253494F 
 14483      4E5F4D41 
 14484 3fa1 01       		.byte	0x1
 14485 3fa2 0F       		.uleb128 0xf
 14486 3fa3 5F5F4D49 		.ascii "__MINGW64_VERSION_MINOR 0\0"
 14486      4E475736 
 14486      345F5645 
 14486      5253494F 
 14486      4E5F4D49 
 14487 3fbd 01       		.byte	0x1
 14488 3fbe 10       		.uleb128 0x10
 14489 3fbf 5F5F4D49 		.ascii "__MINGW64_VERSION_BUGFIX 0\0"
 14489      4E475736 
 14489      345F5645 
 14489      5253494F 
 14489      4E5F4255 
 14490 3fda 01       		.byte	0x1
 14491 3fdb 18       		.uleb128 0x18
 14492 3fdc 5F5F4D49 		.ascii "__MINGW64_VERSION_RC 0\0"
 14492      4E475736 
 14492      345F5645 
 14492      5253494F 
 14492      4E5F5243 
 14493 3ff3 01       		.byte	0x1
 14494 3ff4 1A       		.uleb128 0x1a
 14495 3ff5 5F5F4D49 		.ascii "__MINGW64_VERSION_STR __MINGW64_STRINGIFY(__MINGW64_VERSION_MAJOR) \".\" __MINGW64_STRINGI
 14495      4E475736 
 14495      345F5645 
 14495      5253494F 
 14495      4E5F5354 
 14496 409b 01       		.byte	0x1
 14497 409c 21       		.uleb128 0x21
 14498 409d 5F5F4D49 		.ascii "__MINGW64_VERSION_STATE \"alpha\"\0"
 14498      4E475736 
 14498      345F5645 
 14498      5253494F 
 14498      4E5F5354 
 14499 40bd 01       		.byte	0x1
 14500 40be 27       		.uleb128 0x27
 14501 40bf 5F5F4D49 		.ascii "__MINGW32_MAJOR_VERSION 3\0"
 14501      4E475733 
 14501      325F4D41 
 14501      4A4F525F 
 14501      56455253 
 14502 40d9 01       		.byte	0x1
 14503 40da 28       		.uleb128 0x28
 14504 40db 5F5F4D49 		.ascii "__MINGW32_MINOR_VERSION 11\0"
 14504      4E475733 
 14504      325F4D49 
 14504      4E4F525F 
 14504      56455253 
 14505 40f6 01       		.byte	0x1
 14506 40f7 3E       		.uleb128 0x3e
 14507 40f8 5F4D5F41 		.ascii "_M_AMD64 100\0"
 14507      4D443634 
 14507      20313030 
 14507      00
 14508 4105 01       		.byte	0x1
 14509 4106 3F       		.uleb128 0x3f
 14510 4107 5F4D5F58 		.ascii "_M_X64 100\0"
 14510      36342031 
 14510      303000
 14511 4112 02       		.byte	0x2
 14512 4113 63       		.uleb128 0x63
 14513 4114 5F00     		.ascii "_\0"
 14514 4116 01       		.byte	0x1
 14515 4117 64       		.uleb128 0x64
 14516 4118 5F203100 		.ascii "_ 1\0"
 14517 411c 01       		.byte	0x1
 14518 411d 68       		.uleb128 0x68
 14519 411e 5F5F4D49 		.ascii "__MINGW_USE_UNDERSCORE_PREFIX 0\0"
 14519      4E47575F 
 14519      5553455F 
 14519      554E4445 
 14519      5253434F 
 14520 413e 02       		.byte	0x2
 14521 413f 6A       		.uleb128 0x6a
 14522 4140 5F00     		.ascii "_\0"
 14523 4142 01       		.byte	0x1
 14524 4143 77       		.uleb128 0x77
 14525 4144 5F5F4D49 		.ascii "__MINGW_IMP_SYMBOL(sym) __imp_ ##sym\0"
 14525      4E47575F 
 14525      494D505F 
 14525      53594D42 
 14525      4F4C2873 
 14526 4169 01       		.byte	0x1
 14527 416a 78       		.uleb128 0x78
 14528 416b 5F5F4D49 		.ascii "__MINGW_IMP_LSYMBOL(sym) __imp_ ##sym\0"
 14528      4E47575F 
 14528      494D505F 
 14528      4C53594D 
 14528      424F4C28 
 14529 4191 01       		.byte	0x1
 14530 4192 79       		.uleb128 0x79
 14531 4193 5F5F4D49 		.ascii "__MINGW_USYMBOL(sym) sym\0"
 14531      4E47575F 
 14531      5553594D 
 14531      424F4C28 
 14531      73796D29 
 14532 41ac 01       		.byte	0x1
 14533 41ad 7A       		.uleb128 0x7a
 14534 41ae 5F5F4D49 		.ascii "__MINGW_LSYMBOL(sym) _ ##sym\0"
 14534      4E47575F 
 14534      4C53594D 
 14534      424F4C28 
 14534      73796D29 
 14535 41cb 01       		.byte	0x1
 14536 41cc 8201     		.uleb128 0x82
 14537 41ce 5F5F4D49 		.ascii "__MINGW_ASM_CALL(func) __asm__(__MINGW64_STRINGIFY(__MINGW_USYMBOL(func)))\0"
 14537      4E47575F 
 14537      41534D5F 
 14537      43414C4C 
 14537      2866756E 
 14538 4219 01       		.byte	0x1
 14539 421a 8301     		.uleb128 0x83
 14540 421c 5F5F4D49 		.ascii "__MINGW_ASM_CRT_CALL(func) __asm__(__STRINGIFY(func))\0"
 14540      4E47575F 
 14540      41534D5F 
 14540      4352545F 
 14540      43414C4C 
 14541 4252 02       		.byte	0x2
 14542 4253 9D01     		.uleb128 0x9d
 14543 4255 5F5F4D49 		.ascii "__MINGW_EXTENSION\0"
 14543      4E47575F 
 14543      45585445 
 14543      4E53494F 
 14543      4E00
 14544 4267 01       		.byte	0x1
 14545 4268 A301     		.uleb128 0xa3
 14546 426a 5F5F4D49 		.ascii "__MINGW_EXTENSION __extension__\0"
 14546      4E47575F 
 14546      45585445 
 14546      4E53494F 
 14546      4E205F5F 
 14547 428a 01       		.byte	0x1
 14548 428b AB01     		.uleb128 0xab
 14549 428d 5F5F4338 		.ascii "__C89_NAMELESS __MINGW_EXTENSION\0"
 14549      395F4E41 
 14549      4D454C45 
 14549      5353205F 
 14549      5F4D494E 
 14550 42ae 01       		.byte	0x1
 14551 42af AC01     		.uleb128 0xac
 14552 42b1 5F5F4338 		.ascii "__C89_NAMELESSSTRUCTNAME \0"
 14552      395F4E41 
 14552      4D454C45 
 14552      53535354 
 14552      52554354 
 14553 42cb 01       		.byte	0x1
 14554 42cc AD01     		.uleb128 0xad
 14555 42ce 5F5F4338 		.ascii "__C89_NAMELESSSTRUCTNAME1 \0"
 14555      395F4E41 
 14555      4D454C45 
 14555      53535354 
 14555      52554354 
 14556 42e9 01       		.byte	0x1
 14557 42ea AE01     		.uleb128 0xae
 14558 42ec 5F5F4338 		.ascii "__C89_NAMELESSSTRUCTNAME2 \0"
 14558      395F4E41 
 14558      4D454C45 
 14558      53535354 
 14558      52554354 
 14559 4307 01       		.byte	0x1
 14560 4308 AF01     		.uleb128 0xaf
 14561 430a 5F5F4338 		.ascii "__C89_NAMELESSSTRUCTNAME3 \0"
 14561      395F4E41 
 14561      4D454C45 
 14561      53535354 
 14561      52554354 
 14562 4325 01       		.byte	0x1
 14563 4326 B001     		.uleb128 0xb0
 14564 4328 5F5F4338 		.ascii "__C89_NAMELESSSTRUCTNAME4 \0"
 14564      395F4E41 
 14564      4D454C45 
 14564      53535354 
 14564      52554354 
 14565 4343 01       		.byte	0x1
 14566 4344 B101     		.uleb128 0xb1
 14567 4346 5F5F4338 		.ascii "__C89_NAMELESSSTRUCTNAME5 \0"
 14567      395F4E41 
 14567      4D454C45 
 14567      53535354 
 14567      52554354 
 14568 4361 01       		.byte	0x1
 14569 4362 B201     		.uleb128 0xb2
 14570 4364 5F5F4338 		.ascii "__C89_NAMELESSUNIONNAME \0"
 14570      395F4E41 
 14570      4D454C45 
 14570      5353554E 
 14570      494F4E4E 
 14571 437d 01       		.byte	0x1
 14572 437e B301     		.uleb128 0xb3
 14573 4380 5F5F4338 		.ascii "__C89_NAMELESSUNIONNAME1 \0"
 14573      395F4E41 
 14573      4D454C45 
 14573      5353554E 
 14573      494F4E4E 
 14574 439a 01       		.byte	0x1
 14575 439b B401     		.uleb128 0xb4
 14576 439d 5F5F4338 		.ascii "__C89_NAMELESSUNIONNAME2 \0"
 14576      395F4E41 
 14576      4D454C45 
 14576      5353554E 
 14576      494F4E4E 
 14577 43b7 01       		.byte	0x1
 14578 43b8 B501     		.uleb128 0xb5
 14579 43ba 5F5F4338 		.ascii "__C89_NAMELESSUNIONNAME3 \0"
 14579      395F4E41 
 14579      4D454C45 
 14579      5353554E 
 14579      494F4E4E 
 14580 43d4 01       		.byte	0x1
 14581 43d5 B601     		.uleb128 0xb6
 14582 43d7 5F5F4338 		.ascii "__C89_NAMELESSUNIONNAME4 \0"
 14582      395F4E41 
 14582      4D454C45 
 14582      5353554E 
 14582      494F4E4E 
 14583 43f1 01       		.byte	0x1
 14584 43f2 B701     		.uleb128 0xb7
 14585 43f4 5F5F4338 		.ascii "__C89_NAMELESSUNIONNAME5 \0"
 14585      395F4E41 
 14585      4D454C45 
 14585      5353554E 
 14585      494F4E4E 
 14586 440e 01       		.byte	0x1
 14587 440f B801     		.uleb128 0xb8
 14588 4411 5F5F4338 		.ascii "__C89_NAMELESSUNIONNAME6 \0"
 14588      395F4E41 
 14588      4D454C45 
 14588      5353554E 
 14588      494F4E4E 
 14589 442b 01       		.byte	0x1
 14590 442c B901     		.uleb128 0xb9
 14591 442e 5F5F4338 		.ascii "__C89_NAMELESSUNIONNAME7 \0"
 14591      395F4E41 
 14591      4D454C45 
 14591      5353554E 
 14591      494F4E4E 
 14592 4448 01       		.byte	0x1
 14593 4449 BA01     		.uleb128 0xba
 14594 444b 5F5F4338 		.ascii "__C89_NAMELESSUNIONNAME8 \0"
 14594      395F4E41 
 14594      4D454C45 
 14594      5353554E 
 14594      494F4E4E 
 14595 4465 01       		.byte	0x1
 14596 4466 BE01     		.uleb128 0xbe
 14597 4468 5F5F474E 		.ascii "__GNU_EXTENSION __MINGW_EXTENSION\0"
 14597      555F4558 
 14597      54454E53 
 14597      494F4E20 
 14597      5F5F4D49 
 14598 448a 01       		.byte	0x1
 14599 448b C301     		.uleb128 0xc3
 14600 448d 5F5F4D49 		.ascii "__MINGW_HAVE_ANSI_C99_PRINTF 1\0"
 14600      4E47575F 
 14600      48415645 
 14600      5F414E53 
 14600      495F4339 
 14601 44ac 01       		.byte	0x1
 14602 44ad C401     		.uleb128 0xc4
 14603 44af 5F5F4D49 		.ascii "__MINGW_HAVE_WIDE_C99_PRINTF 1\0"
 14603      4E47575F 
 14603      48415645 
 14603      5F574944 
 14603      455F4339 
 14604 44ce 01       		.byte	0x1
 14605 44cf C501     		.uleb128 0xc5
 14606 44d1 5F5F4D49 		.ascii "__MINGW_HAVE_ANSI_C99_SCANF 1\0"
 14606      4E47575F 
 14606      48415645 
 14606      5F414E53 
 14606      495F4339 
 14607 44ef 01       		.byte	0x1
 14608 44f0 C601     		.uleb128 0xc6
 14609 44f2 5F5F4D49 		.ascii "__MINGW_HAVE_WIDE_C99_SCANF 1\0"
 14609      4E47575F 
 14609      48415645 
 14609      5F574944 
 14609      455F4339 
 14610 4510 01       		.byte	0x1
 14611 4511 CB01     		.uleb128 0xcb
 14612 4513 5F5F4D49 		.ascii "__MINGW_POISON_NAME(__IFACE) __IFACE ##_layout_has_not_been_verified_and_its_declaration_i
 14612      4E47575F 
 14612      504F4953 
 14612      4F4E5F4E 
 14612      414D4528 
 14613 4585 01       		.byte	0x1
 14614 4586 D101     		.uleb128 0xd1
 14615 4588 5F5F4D53 		.ascii "__MSABI_LONG(x) x ## l\0"
 14615      4142495F 
 14615      4C4F4E47 
 14615      28782920 
 14615      78202323 
 14616 459f 01       		.byte	0x1
 14617 45a0 D801     		.uleb128 0xd8
 14618 45a2 5F5F4D49 		.ascii "__MINGW_GCC_VERSION (__GNUC__ * 10000 + __GNUC_MINOR__ * 100 + __GNUC_PATCHLEVEL__)\0"
 14618      4E47575F 
 14618      4743435F 
 14618      56455253 
 14618      494F4E20 
 14619 45f6 01       		.byte	0x1
 14620 45f7 E001     		.uleb128 0xe0
 14621 45f9 5F5F4D49 		.ascii "__MINGW_GNUC_PREREQ(major,minor) (__GNUC__ > (major) || (__GNUC__ == (major) && __GNUC_MIN
 14621      4E47575F 
 14621      474E5543 
 14621      5F505245 
 14621      52455128 
 14622 4665 01       		.byte	0x1
 14623 4666 EB01     		.uleb128 0xeb
 14624 4668 5F5F4D49 		.ascii "__MINGW_MSC_PREREQ(major,minor) 0\0"
 14624      4E47575F 
 14624      4D53435F 
 14624      50524552 
 14624      4551286D 
 14625 468a 01       		.byte	0x1
 14626 468b F701     		.uleb128 0xf7
 14627 468d 5F5F4D49 		.ascii "__MINGW_ATTRIB_DEPRECATED_STR(X) \0"
 14627      4E47575F 
 14627      41545452 
 14627      49425F44 
 14627      45505245 
 14628 46af 01       		.byte	0x1
 14629 46b0 FA01     		.uleb128 0xfa
 14630 46b2 5F5F4D49 		.ascii "__MINGW_SEC_WARN_STR \"This function or variable may be unsafe, use _CRT_SECURE_NO_WARNING
 14630      4E47575F 
 14630      5345435F 
 14630      5741524E 
 14630      5F535452 
 14631 4725 01       		.byte	0x1
 14632 4726 FD01     		.uleb128 0xfd
 14633 4728 5F5F4D49 		.ascii "__MINGW_MSVC2005_DEPREC_STR \"This POSIX function is deprecated beginning in Visual C++ 20
 14633      4E47575F 
 14633      4D535643 
 14633      32303035 
 14633      5F444550 
 14634 47bb 01       		.byte	0x1
 14635 47bc 8102     		.uleb128 0x101
 14636 47be 5F5F4D49 		.ascii "__MINGW_ATTRIB_DEPRECATED_MSVC2005 __MINGW_ATTRIB_DEPRECATED_STR(__MINGW_MSVC2005_DEPREC_S
 14636      4E47575F 
 14636      41545452 
 14636      49425F44 
 14636      45505245 
 14637 481c 01       		.byte	0x1
 14638 481d 8802     		.uleb128 0x108
 14639 481f 5F5F4D49 		.ascii "__MINGW_ATTRIB_DEPRECATED_SEC_WARN __MINGW_ATTRIB_DEPRECATED_STR(__MINGW_SEC_WARN_STR)\0"
 14639      4E47575F 
 14639      41545452 
 14639      49425F44 
 14639      45505245 
 14640 4876 01       		.byte	0x1
 14641 4877 9B02     		.uleb128 0x11b
 14642 4879 5F5F4D49 		.ascii "__MINGW_MS_PRINTF(__format,__args) __attribute__((__format__(__ms_printf__, __format,__arg
 14642      4E47575F 
 14642      4D535F50 
 14642      52494E54 
 14642      46285F5F 
 14643 48d8 01       		.byte	0x1
 14644 48d9 9E02     		.uleb128 0x11e
 14645 48db 5F5F4D49 		.ascii "__MINGW_MS_SCANF(__format,__args) __attribute__((__format__(__ms_scanf__, __format,__args)
 14645      4E47575F 
 14645      4D535F53 
 14645      43414E46 
 14645      285F5F66 
 14646 4938 01       		.byte	0x1
 14647 4939 A102     		.uleb128 0x121
 14648 493b 5F5F4D49 		.ascii "__MINGW_GNU_PRINTF(__format,__args) __attribute__((__format__(__gnu_printf__,__format,__ar
 14648      4E47575F 
 14648      474E555F 
 14648      5052494E 
 14648      5446285F 
 14649 499b 01       		.byte	0x1
 14650 499c A402     		.uleb128 0x124
 14651 499e 5F5F4D49 		.ascii "__MINGW_GNU_SCANF(__format,__args) __attribute__((__format__(__gnu_scanf__, __format,__arg
 14651      4E47575F 
 14651      474E555F 
 14651      5343414E 
 14651      46285F5F 
 14652 49fd 02       		.byte	0x2
 14653 49fe A802     		.uleb128 0x128
 14654 4a00 5F5F6D69 		.ascii "__mingw_ovr\0"
 14654      6E67775F 
 14654      6F767200 
 14655 4a0c 01       		.byte	0x1
 14656 4a0d AD02     		.uleb128 0x12d
 14657 4a0f 5F5F6D69 		.ascii "__mingw_ovr static __attribute__ ((__unused__)) __inline__ __cdecl\0"
 14657      6E67775F 
 14657      6F767220 
 14657      73746174 
 14657      6963205F 
 14658 4a52 01       		.byte	0x1
 14659 4a53 B402     		.uleb128 0x134
 14660 4a55 5F5F6D69 		.ascii "__mingw_attribute_artificial __attribute__((__artificial__))\0"
 14660      6E67775F 
 14660      61747472 
 14660      69627574 
 14660      655F6172 
 14661 4a92 01       		.byte	0x1
 14662 4a93 BA02     		.uleb128 0x13a
 14663 4a95 5F5F4D49 		.ascii "__MINGW_SELECTANY __attribute__((__selectany__))\0"
 14663      4E47575F 
 14663      53454C45 
 14663      4354414E 
 14663      59205F5F 
 14664 4ac6 01       		.byte	0x1
 14665 4ac7 D302     		.uleb128 0x153
 14666 4ac9 5F5F4D49 		.ascii "__MINGW_FORTIFY_LEVEL 0\0"
 14666      4E47575F 
 14666      464F5254 
 14666      4946595F 
 14666      4C455645 
 14667 4ae1 01       		.byte	0x1
 14668 4ae2 FB02     		.uleb128 0x17b
 14669 4ae4 5F5F6D69 		.ascii "__mingw_bos_ovr __mingw_ovr\0"
 14669      6E67775F 
 14669      626F735F 
 14669      6F767220 
 14669      5F5F6D69 
 14670 4b00 01       		.byte	0x1
 14671 4b01 8803     		.uleb128 0x188
 14672 4b03 5F5F4D49 		.ascii "__MINGW_FORTIFY_VA_ARG 0\0"
 14672      4E47575F 
 14672      464F5254 
 14672      4946595F 
 14672      56415F41 
 14673 4b1c 02       		.byte	0x2
 14674 4b1d 8B03     		.uleb128 0x18b
 14675 4b1f 5F5F6861 		.ascii "__has_builtin\0"
 14675      735F6275 
 14675      696C7469 
 14675      6E00
 14676 4b2d 04       		.byte	0x4
 14677              		.file 18 "C:/Users/victim/Documents/GitHub/MrsMajor5.0/UEFI/Backend/mingw64/include/_mingw_secapi.
 14678 4b2e 03       		.byte	0x3
 14679 4b2f 0B       		.uleb128 0xb
 14680 4b30 12       		.uleb128 0x12
 14681 4b31 01       		.byte	0x1
 14682 4b32 08       		.uleb128 0x8
 14683 4b33 5F494E43 		.ascii "_INC_MINGW_SECAPI \0"
 14683      5F4D494E 
 14683      47575F53 
 14683      45434150 
 14683      492000
 14684 4b46 02       		.byte	0x2
 14685 4b47 1D       		.uleb128 0x1d
 14686 4b48 5F435254 		.ascii "_CRT_SECURE_CPP_OVERLOAD_SECURE_NAMES\0"
 14686      5F534543 
 14686      5552455F 
 14686      4350505F 
 14686      4F564552 
 14687 4b6e 02       		.byte	0x2
 14688 4b6f 1E       		.uleb128 0x1e
 14689 4b70 5F435254 		.ascii "_CRT_SECURE_CPP_OVERLOAD_SECURE_NAMES_MEMORY\0"
 14689      5F534543 
 14689      5552455F 
 14689      4350505F 
 14689      4F564552 
 14690 4b9d 02       		.byte	0x2
 14691 4b9e 1F       		.uleb128 0x1f
 14692 4b9f 5F435254 		.ascii "_CRT_SECURE_CPP_OVERLOAD_STANDARD_NAMES\0"
 14692      5F534543 
 14692      5552455F 
 14692      4350505F 
 14692      4F564552 
 14693 4bc7 02       		.byte	0x2
 14694 4bc8 20       		.uleb128 0x20
 14695 4bc9 5F435254 		.ascii "_CRT_SECURE_CPP_OVERLOAD_STANDARD_NAMES_COUNT\0"
 14695      5F534543 
 14695      5552455F 
 14695      4350505F 
 14695      4F564552 
 14696 4bf7 02       		.byte	0x2
 14697 4bf8 21       		.uleb128 0x21
 14698 4bf9 5F435254 		.ascii "_CRT_SECURE_CPP_OVERLOAD_STANDARD_NAMES_MEMORY\0"
 14698      5F534543 
 14698      5552455F 
 14698      4350505F 
 14698      4F564552 
 14699 4c28 01       		.byte	0x1
 14700 4c29 22       		.uleb128 0x22
 14701 4c2a 5F435254 		.ascii "_CRT_SECURE_CPP_OVERLOAD_SECURE_NAMES 0\0"
 14701      5F534543 
 14701      5552455F 
 14701      4350505F 
 14701      4F564552 
 14702 4c52 01       		.byte	0x1
 14703 4c53 23       		.uleb128 0x23
 14704 4c54 5F435254 		.ascii "_CRT_SECURE_CPP_OVERLOAD_SECURE_NAMES_MEMORY 0\0"
 14704      5F534543 
 14704      5552455F 
 14704      4350505F 
 14704      4F564552 
 14705 4c83 01       		.byte	0x1
 14706 4c84 24       		.uleb128 0x24
 14707 4c85 5F435254 		.ascii "_CRT_SECURE_CPP_OVERLOAD_STANDARD_NAMES 0\0"
 14707      5F534543 
 14707      5552455F 
 14707      4350505F 
 14707      4F564552 
 14708 4caf 01       		.byte	0x1
 14709 4cb0 25       		.uleb128 0x25
 14710 4cb1 5F435254 		.ascii "_CRT_SECURE_CPP_OVERLOAD_STANDARD_NAMES_COUNT 0\0"
 14710      5F534543 
 14710      5552455F 
 14710      4350505F 
 14710      4F564552 
 14711 4ce1 01       		.byte	0x1
 14712 4ce2 26       		.uleb128 0x26
 14713 4ce3 5F435254 		.ascii "_CRT_SECURE_CPP_OVERLOAD_STANDARD_NAMES_MEMORY 0\0"
 14713      5F534543 
 14713      5552455F 
 14713      4350505F 
 14713      4F564552 
 14714 4d14 01       		.byte	0x1
 14715 4d15 29       		.uleb128 0x29
 14716 4d16 5F5F4D49 		.ascii "__MINGW_CRT_NAME_CONCAT2(sym) ::sym ##_s\0"
 14716      4E47575F 
 14716      4352545F 
 14716      4E414D45 
 14716      5F434F4E 
 14717 4d3f 01       		.byte	0x1
 14718 4d40 45       		.uleb128 0x45
 14719 4d41 5F5F4352 		.ascii "__CRT_SECURE_CPP_OVERLOAD_STANDARD_NAMES_MEMORY_0_3_(__ret,__func,__type1,__attrib1,__arg1
 14719      545F5345 
 14719      43555245 
 14719      5F435050 
 14719      5F4F5645 
 14720 4e60 04       		.byte	0x4
 14721 4e61 01       		.byte	0x1
 14722 4e62 18       		.uleb128 0x18
 14723 4e63 5F5F4C4F 		.ascii "__LONG32 long\0"
 14723      4E473332 
 14723      206C6F6E 
 14723      6700
 14724 4e71 01       		.byte	0x1
 14725 4e72 2C       		.uleb128 0x2c
 14726 4e73 5F5F4D49 		.ascii "__MINGW_IMPORT extern __attribute__ ((__dllimport__))\0"
 14726      4E47575F 
 14726      494D504F 
 14726      52542065 
 14726      78746572 
 14727 4ea9 02       		.byte	0x2
 14728 4eaa 2F       		.uleb128 0x2f
 14729 4eab 5F5F5553 		.ascii "__USE_CRTIMP\0"
 14729      455F4352 
 14729      54494D50 
 14729      00
 14730 4eb8 01       		.byte	0x1
 14731 4eb9 31       		.uleb128 0x31
 14732 4eba 5F5F5553 		.ascii "__USE_CRTIMP 1\0"
 14732      455F4352 
 14732      54494D50 
 14732      203100
 14733 4ec9 01       		.byte	0x1
 14734 4eca 34       		.uleb128 0x34
 14735 4ecb 5F435254 		.ascii "_CRTIMP __attribute__ ((__dllimport__))\0"
 14735      494D5020 
 14735      5F5F6174 
 14735      74726962 
 14735      7574655F 
 14736 4ef3 01       		.byte	0x1
 14737 4ef4 39       		.uleb128 0x39
 14738 4ef5 5F5F4445 		.ascii "__DECLSPEC_SUPPORTED \0"
 14738      434C5350 
 14738      45435F53 
 14738      5550504F 
 14738      52544544 
 14739 4f0b 01       		.byte	0x1
 14740 4f0c 46       		.uleb128 0x46
 14741 4f0d 5553455F 		.ascii "USE___UUIDOF 0\0"
 14741      5F5F5555 
 14741      49444F46 
 14741      203000
 14742 4f1c 01       		.byte	0x1
 14743 4f1d 4A       		.uleb128 0x4a
 14744 4f1e 5F696E6C 		.ascii "_inline __inline\0"
 14744      696E6520 
 14744      5F5F696E 
 14744      6C696E65 
 14744      00
 14745 4f2f 01       		.byte	0x1
 14746 4f30 53       		.uleb128 0x53
 14747 4f31 5F5F4352 		.ascii "__CRT_INLINE extern inline __attribute__((__gnu_inline__))\0"
 14747      545F494E 
 14747      4C494E45 
 14747      20657874 
 14747      65726E20 
 14748 4f6c 01       		.byte	0x1
 14749 4f6d 5A       		.uleb128 0x5a
 14750 4f6e 5F5F4D49 		.ascii "__MINGW_INTRIN_INLINE extern __inline__ __attribute__((__always_inline__,__gnu_inline__))\
 14750      4E47575F 
 14750      494E5452 
 14750      494E5F49 
 14750      4E4C494E 
 14751 4fc8 01       		.byte	0x1
 14752 4fc9 68       		.uleb128 0x68
 14753 4fca 5F5F554E 		.ascii "__UNUSED_PARAM(x) x __attribute__ ((__unused__))\0"
 14753      55534544 
 14753      5F504152 
 14753      414D2878 
 14753      29207820 
 14754 4ffb 01       		.byte	0x1
 14755 4ffc 77       		.uleb128 0x77
 14756 4ffd 5F5F7265 		.ascii "__restrict_arr __restrict\0"
 14756      73747269 
 14756      63745F61 
 14756      7272205F 
 14756      5F726573 
 14757 5017 01       		.byte	0x1
 14758 5018 8701     		.uleb128 0x87
 14759 501a 5F5F4D49 		.ascii "__MINGW_ATTRIB_NORETURN __attribute__ ((__noreturn__))\0"
 14759      4E47575F 
 14759      41545452 
 14759      49425F4E 
 14759      4F524554 
 14760 5051 01       		.byte	0x1
 14761 5052 8801     		.uleb128 0x88
 14762 5054 5F5F4D49 		.ascii "__MINGW_ATTRIB_CONST __attribute__ ((__const__))\0"
 14762      4E47575F 
 14762      41545452 
 14762      49425F43 
 14762      4F4E5354 
 14763 5085 01       		.byte	0x1
 14764 5086 9201     		.uleb128 0x92
 14765 5088 5F5F4D49 		.ascii "__MINGW_ATTRIB_MALLOC __attribute__ ((__malloc__))\0"
 14765      4E47575F 
 14765      41545452 
 14765      49425F4D 
 14765      414C4C4F 
 14766 50bb 01       		.byte	0x1
 14767 50bc 9301     		.uleb128 0x93
 14768 50be 5F5F4D49 		.ascii "__MINGW_ATTRIB_PURE __attribute__ ((__pure__))\0"
 14768      4E47575F 
 14768      41545452 
 14768      49425F50 
 14768      55524520 
 14769 50ed 01       		.byte	0x1
 14770 50ee A001     		.uleb128 0xa0
 14771 50f0 5F5F4D49 		.ascii "__MINGW_ATTRIB_NONNULL(arg) __attribute__ ((__nonnull__ (arg)))\0"
 14771      4E47575F 
 14771      41545452 
 14771      49425F4E 
 14771      4F4E4E55 
 14772 5130 01       		.byte	0x1
 14773 5131 A601     		.uleb128 0xa6
 14774 5133 5F5F4D49 		.ascii "__MINGW_ATTRIB_UNUSED __attribute__ ((__unused__))\0"
 14774      4E47575F 
 14774      41545452 
 14774      49425F55 
 14774      4E555345 
 14775 5166 01       		.byte	0x1
 14776 5167 AC01     		.uleb128 0xac
 14777 5169 5F5F4D49 		.ascii "__MINGW_ATTRIB_USED __attribute__ ((__used__))\0"
 14777      4E47575F 
 14777      41545452 
 14777      49425F55 
 14777      53454420 
 14778 5198 01       		.byte	0x1
 14779 5199 AD01     		.uleb128 0xad
 14780 519b 5F5F4D49 		.ascii "__MINGW_ATTRIB_DEPRECATED __attribute__ ((__deprecated__))\0"
 14780      4E47575F 
 14780      41545452 
 14780      49425F44 
 14780      45505245 
 14781 51d6 01       		.byte	0x1
 14782 51d7 AF01     		.uleb128 0xaf
 14783 51d9 5F5F4D49 		.ascii "__MINGW_ATTRIB_DEPRECATED_MSG(x) __attribute__ ((__deprecated__(x)))\0"
 14783      4E47575F 
 14783      41545452 
 14783      49425F44 
 14783      45505245 
 14784 521e 01       		.byte	0x1
 14785 521f BE01     		.uleb128 0xbe
 14786 5221 5F5F4D49 		.ascii "__MINGW_NOTHROW __attribute__ ((__nothrow__))\0"
 14786      4E47575F 
 14786      4E4F5448 
 14786      524F5720 
 14786      5F5F6174 
 14787 524f 01       		.byte	0x1
 14788 5250 C601     		.uleb128 0xc6
 14789 5252 5F5F4D49 		.ascii "__MINGW_ATTRIB_NO_OPTIMIZE __attribute__((__optimize__ (\"0\")))\0"
 14789      4E47575F 
 14789      41545452 
 14789      49425F4E 
 14789      4F5F4F50 
 14790 5291 01       		.byte	0x1
 14791 5292 CC01     		.uleb128 0xcc
 14792 5294 5F5F4D49 		.ascii "__MINGW_PRAGMA_PARAM(x) _Pragma (#x)\0"
 14792      4E47575F 
 14792      50524147 
 14792      4D415F50 
 14792      4152414D 
 14793 52b9 01       		.byte	0x1
 14794 52ba D301     		.uleb128 0xd3
 14795 52bc 5F5F4D49 		.ascii "__MINGW_BROKEN_INTERFACE(x) __MINGW_PRAGMA_PARAM(message (\"Interface \" _CRT_STRINGIZE(x)
 14795      4E47575F 
 14795      42524F4B 
 14795      454E5F49 
 14795      4E544552 
 14796 5331 01       		.byte	0x1
 14797 5332 DE01     		.uleb128 0xde
 14798 5334 5F5F4D53 		.ascii "__MSVCRT_VERSION__ 0x700\0"
 14798      56435254 
 14798      5F564552 
 14798      53494F4E 
 14798      5F5F2030 
 14799 534d 01       		.byte	0x1
 14800 534e E801     		.uleb128 0xe8
 14801 5350 5F57494E 		.ascii "_WIN32_WINNT 0x601\0"
 14801      33325F57 
 14801      494E4E54 
 14801      20307836 
 14801      303100
 14802 5363 01       		.byte	0x1
 14803 5364 EC01     		.uleb128 0xec
 14804 5366 5F494E54 		.ascii "_INT128_DEFINED \0"
 14804      3132385F 
 14804      44454649 
 14804      4E454420 
 14804      00
 14805 5377 01       		.byte	0x1
 14806 5378 EE01     		.uleb128 0xee
 14807 537a 5F5F696E 		.ascii "__int8 char\0"
 14807      74382063 
 14807      68617200 
 14808 5386 01       		.byte	0x1
 14809 5387 EF01     		.uleb128 0xef
 14810 5389 5F5F696E 		.ascii "__int16 short\0"
 14810      74313620 
 14810      73686F72 
 14810      7400
 14811 5397 01       		.byte	0x1
 14812 5398 F001     		.uleb128 0xf0
 14813 539a 5F5F696E 		.ascii "__int32 int\0"
 14813      74333220 
 14813      696E7400 
 14814 53a6 01       		.byte	0x1
 14815 53a7 F101     		.uleb128 0xf1
 14816 53a9 5F5F696E 		.ascii "__int64 long long\0"
 14816      74363420 
 14816      6C6F6E67 
 14816      206C6F6E 
 14816      6700
 14817 53bb 01       		.byte	0x1
 14818 53bc FF01     		.uleb128 0xff
 14819 53be 5F5F7074 		.ascii "__ptr32 \0"
 14819      72333220 
 14819      00
 14820 53c7 01       		.byte	0x1
 14821 53c8 8002     		.uleb128 0x100
 14822 53ca 5F5F7074 		.ascii "__ptr64 \0"
 14822      72363420 
 14822      00
 14823 53d3 01       		.byte	0x1
 14824 53d4 8202     		.uleb128 0x102
 14825 53d6 5F5F756E 		.ascii "__unaligned \0"
 14825      616C6967 
 14825      6E656420 
 14825      00
 14826 53e3 01       		.byte	0x1
 14827 53e4 8502     		.uleb128 0x105
 14828 53e6 5F5F7736 		.ascii "__w64 \0"
 14828      342000
 14829 53ed 01       		.byte	0x1
 14830 53ee 8A02     		.uleb128 0x10a
 14831 53f0 5F5F666F 		.ascii "__forceinline extern __inline__ __attribute__((__always_inline__,__gnu_inline__))\0"
 14831      72636569 
 14831      6E6C696E 
 14831      65206578 
 14831      7465726E 
 14832 5442 01       		.byte	0x1
 14833 5443 9602     		.uleb128 0x116
 14834 5445 5F5F6E6F 		.ascii "__nothrow \0"
 14834      7468726F 
 14834      772000
 14835              		.file 19 "C:/Users/victim/Documents/GitHub/MrsMajor5.0/UEFI/Backend/mingw64/include/vadefs.h"
 14836 5450 03       		.byte	0x3
 14837 5451 9A02     		.uleb128 0x11a
 14838 5453 13       		.uleb128 0x13
 14839 5454 01       		.byte	0x1
 14840 5455 07       		.uleb128 0x7
 14841 5456 5F494E43 		.ascii "_INC_VADEFS \0"
 14841      5F564144 
 14841      45465320 
 14841      00
 14842 5463 03       		.byte	0x3
 14843 5464 09       		.uleb128 0x9
 14844 5465 10       		.uleb128 0x10
 14845 5466 01       		.byte	0x1
 14846 5467 8A05     		.uleb128 0x28a
 14847 5469 4D494E47 		.ascii "MINGW_SDK_INIT \0"
 14847      575F5344 
 14847      4B5F494E 
 14847      49542000 
 14848 5479 01       		.byte	0x1
 14849 547a 8E05     		.uleb128 0x28e
 14850 547c 4D494E47 		.ascii "MINGW_HAS_SECURE_API 1\0"
 14850      575F4841 
 14850      535F5345 
 14850      43555245 
 14850      5F415049 
 14851 5493 01       		.byte	0x1
 14852 5494 9105     		.uleb128 0x291
 14853 5496 5F5F5354 		.ascii "__STDC_SECURE_LIB__ 200411L\0"
 14853      44435F53 
 14853      45435552 
 14853      455F4C49 
 14853      425F5F20 
 14854 54b2 01       		.byte	0x1
 14855 54b3 9205     		.uleb128 0x292
 14856 54b5 5F5F474F 		.ascii "__GOT_SECURE_LIB__ __STDC_SECURE_LIB__\0"
 14856      545F5345 
 14856      43555245 
 14856      5F4C4942 
 14856      5F5F205F 
 14857              		.file 20 "C:/Users/victim/Documents/GitHub/MrsMajor5.0/UEFI/Backend/mingw64/include/sdks/_mingw_dd
 14858 54dc 03       		.byte	0x3
 14859 54dd 9505     		.uleb128 0x295
 14860 54df 14       		.uleb128 0x14
 14861 54e0 01       		.byte	0x1
 14862 54e1 02       		.uleb128 0x2
 14863 54e2 4D494E47 		.ascii "MINGW_DDK_H \0"
 14863      575F4444 
 14863      4B5F4820 
 14863      00
 14864 54ef 01       		.byte	0x1
 14865 54f0 04       		.uleb128 0x4
 14866 54f1 4D494E47 		.ascii "MINGW_HAS_DDK_H 1\0"
 14866      575F4841 
 14866      535F4444 
 14866      4B5F4820 
 14866      3100
 14867 5503 04       		.byte	0x4
 14868 5504 04       		.byte	0x4
 14869 5505 02       		.byte	0x2
 14870 5506 0C       		.uleb128 0xc
 14871 5507 5F435254 		.ascii "_CRT_PACKING\0"
 14871      5F504143 
 14871      4B494E47 
 14871      00
 14872 5514 01       		.byte	0x1
 14873 5515 0D       		.uleb128 0xd
 14874 5516 5F435254 		.ascii "_CRT_PACKING 8\0"
 14874      5F504143 
 14874      4B494E47 
 14874      203800
 14875 5525 01       		.byte	0x1
 14876 5526 17       		.uleb128 0x17
 14877 5527 5F5F474E 		.ascii "__GNUC_VA_LIST \0"
 14877      55435F56 
 14877      415F4C49 
 14877      53542000 
 14878 5537 01       		.byte	0x1
 14879 5538 1D       		.uleb128 0x1d
 14880 5539 5F56415F 		.ascii "_VA_LIST_DEFINED \0"
 14880      4C495354 
 14880      5F444546 
 14880      494E4544 
 14880      2000
 14881 554b 01       		.byte	0x1
 14882 554c 2A       		.uleb128 0x2a
 14883 554d 5F414444 		.ascii "_ADDRESSOF(v) (&(v))\0"
 14883      52455353 
 14883      4F462876 
 14883      29202826 
 14883      28762929 
 14884 5562 01       		.byte	0x1
 14885 5563 30       		.uleb128 0x30
 14886 5564 5F637274 		.ascii "_crt_va_start(v,l) __builtin_va_start(v,l)\0"
 14886      5F76615F 
 14886      73746172 
 14886      7428762C 
 14886      6C29205F 
 14887 558f 01       		.byte	0x1
 14888 5590 31       		.uleb128 0x31
 14889 5591 5F637274 		.ascii "_crt_va_arg(v,l) __builtin_va_arg(v,l)\0"
 14889      5F76615F 
 14889      61726728 
 14889      762C6C29 
 14889      205F5F62 
 14890 55b8 01       		.byte	0x1
 14891 55b9 32       		.uleb128 0x32
 14892 55ba 5F637274 		.ascii "_crt_va_end(v) __builtin_va_end(v)\0"
 14892      5F76615F 
 14892      656E6428 
 14892      7629205F 
 14892      5F627569 
 14893 55dd 01       		.byte	0x1
 14894 55de 33       		.uleb128 0x33
 14895 55df 5F637274 		.ascii "_crt_va_copy(d,s) __builtin_va_copy(d,s)\0"
 14895      5F76615F 
 14895      636F7079 
 14895      28642C73 
 14895      29205F5F 
 14896 5608 04       		.byte	0x4
 14897 5609 01       		.byte	0x1
 14898 560a 9D02     		.uleb128 0x11d
 14899 560c 5F5F4352 		.ascii "__CRT_STRINGIZE(_Value) #_Value\0"
 14899      545F5354 
 14899      52494E47 
 14899      495A4528 
 14899      5F56616C 
 14900 562c 01       		.byte	0x1
 14901 562d 9E02     		.uleb128 0x11e
 14902 562f 5F435254 		.ascii "_CRT_STRINGIZE(_Value) __CRT_STRINGIZE(_Value)\0"
 14902      5F535452 
 14902      494E4749 
 14902      5A45285F 
 14902      56616C75 
 14903 565e 01       		.byte	0x1
 14904 565f A202     		.uleb128 0x122
 14905 5661 5F5F4352 		.ascii "__CRT_WIDE(_String) L ## _String\0"
 14905      545F5749 
 14905      4445285F 
 14905      53747269 
 14905      6E672920 
 14906 5682 01       		.byte	0x1
 14907 5683 A302     		.uleb128 0x123
 14908 5685 5F435254 		.ascii "_CRT_WIDE(_String) __CRT_WIDE(_String)\0"
 14908      5F574944 
 14908      45285F53 
 14908      7472696E 
 14908      6729205F 
 14909 56ac 01       		.byte	0x1
 14910 56ad A702     		.uleb128 0x127
 14911 56af 5F573634 		.ascii "_W64 \0"
 14911      2000
 14912 56b5 01       		.byte	0x1
 14913 56b6 AE02     		.uleb128 0x12e
 14914 56b8 5F435254 		.ascii "_CRTIMP_NOIA64 _CRTIMP\0"
 14914      494D505F 
 14914      4E4F4941 
 14914      3634205F 
 14914      43525449 
 14915 56cf 01       		.byte	0x1
 14916 56d0 B302     		.uleb128 0x133
 14917 56d2 5F435254 		.ascii "_CRTIMP2 _CRTIMP\0"
 14917      494D5032 
 14917      205F4352 
 14917      54494D50 
 14917      00
 14918 56e3 01       		.byte	0x1
 14919 56e4 B702     		.uleb128 0x137
 14920 56e6 5F435254 		.ascii "_CRTIMP_ALTERNATIVE _CRTIMP\0"
 14920      494D505F 
 14920      414C5445 
 14920      524E4154 
 14920      49564520 
 14921 5702 01       		.byte	0x1
 14922 5703 B802     		.uleb128 0x138
 14923 5705 5F435254 		.ascii "_CRT_ALTERNATIVE_IMPORTED \0"
 14923      5F414C54 
 14923      45524E41 
 14923      54495645 
 14923      5F494D50 
 14924 5720 01       		.byte	0x1
 14925 5721 BC02     		.uleb128 0x13c
 14926 5723 5F4D5254 		.ascii "_MRTIMP2 _CRTIMP\0"
 14926      494D5032 
 14926      205F4352 
 14926      54494D50 
 14926      00
 14927 5734 01       		.byte	0x1
 14928 5735 C502     		.uleb128 0x145
 14929 5737 5F444C4C 		.ascii "_DLL \0"
 14929      2000
 14930 573d 01       		.byte	0x1
 14931 573e C902     		.uleb128 0x149
 14932 5740 5F4D5420 		.ascii "_MT \0"
 14932      00
 14933 5745 01       		.byte	0x1
 14934 5746 CD02     		.uleb128 0x14d
 14935 5748 5F4D4352 		.ascii "_MCRTIMP _CRTIMP\0"
 14935      54494D50 
 14935      205F4352 
 14935      54494D50 
 14935      00
 14936 5759 01       		.byte	0x1
 14937 575a D102     		.uleb128 0x151
 14938 575c 5F435254 		.ascii "_CRTIMP_PURE _CRTIMP\0"
 14938      494D505F 
 14938      50555245 
 14938      205F4352 
 14938      54494D50 
 14939 5771 01       		.byte	0x1
 14940 5772 D502     		.uleb128 0x155
 14941 5774 5F50474C 		.ascii "_PGLOBAL \0"
 14941      4F42414C 
 14941      2000
 14942 577e 01       		.byte	0x1
 14943 577f D902     		.uleb128 0x159
 14944 5781 5F41474C 		.ascii "_AGLOBAL \0"
 14944      4F42414C 
 14944      2000
 14945 578b 01       		.byte	0x1
 14946 578c DC02     		.uleb128 0x15c
 14947 578e 5F534543 		.ascii "_SECURECRT_FILL_BUFFER_PATTERN 0xFD\0"
 14947      55524543 
 14947      52545F46 
 14947      494C4C5F 
 14947      42554646 
 14948 57b2 01       		.byte	0x1
 14949 57b3 DD02     		.uleb128 0x15d
 14950 57b5 5F435254 		.ascii "_CRT_DEPRECATE_TEXT(_Text) __declspec(deprecated)\0"
 14950      5F444550 
 14950      52454341 
 14950      54455F54 
 14950      45585428 
 14951 57e7 01       		.byte	0x1
 14952 57e8 E002     		.uleb128 0x160
 14953 57ea 5F435254 		.ascii "_CRT_INSECURE_DEPRECATE_MEMORY(_Replacement) \0"
 14953      5F494E53 
 14953      45435552 
 14953      455F4445 
 14953      50524543 
 14954 5818 01       		.byte	0x1
 14955 5819 E402     		.uleb128 0x164
 14956 581b 5F435254 		.ascii "_CRT_INSECURE_DEPRECATE_GLOBALS(_Replacement) \0"
 14956      5F494E53 
 14956      45435552 
 14956      455F4445 
 14956      50524543 
 14957 584a 01       		.byte	0x1
 14958 584b E802     		.uleb128 0x168
 14959 584d 5F435254 		.ascii "_CRT_MANAGED_HEAP_DEPRECATE \0"
 14959      5F4D414E 
 14959      41474544 
 14959      5F484541 
 14959      505F4445 
 14960 586a 01       		.byte	0x1
 14961 586b EC02     		.uleb128 0x16c
 14962 586d 5F435254 		.ascii "_CRT_OBSOLETE(_NewItem) \0"
 14962      5F4F4253 
 14962      4F4C4554 
 14962      45285F4E 
 14962      65774974 
 14963 5886 01       		.byte	0x1
 14964 5887 F802     		.uleb128 0x178
 14965 5889 5F434F4E 		.ascii "_CONST_RETURN \0"
 14965      53545F52 
 14965      45545552 
 14965      4E2000
 14966 5898 01       		.byte	0x1
 14967 5899 FD02     		.uleb128 0x17d
 14968 589b 554E414C 		.ascii "UNALIGNED __unaligned\0"
 14968      49474E45 
 14968      44205F5F 
 14968      756E616C 
 14968      69676E65 
 14969 58b1 01       		.byte	0x1
 14970 58b2 8703     		.uleb128 0x187
 14971 58b4 5F435254 		.ascii "_CRT_ALIGN(x) __attribute__ ((__aligned__ (x)))\0"
 14971      5F414C49 
 14971      474E2878 
 14971      29205F5F 
 14971      61747472 
 14972 58e4 01       		.byte	0x1
 14973 58e5 8E03     		.uleb128 0x18e
 14974 58e7 5F5F4352 		.ascii "__CRTDECL __cdecl\0"
 14974      54444543 
 14974      4C205F5F 
 14974      63646563 
 14974      6C00
 14975 58f9 01       		.byte	0x1
 14976 58fa 9103     		.uleb128 0x191
 14977 58fc 5F415247 		.ascii "_ARGMAX 100\0"
 14977      4D415820 
 14977      31303000 
 14978 5908 01       		.byte	0x1
 14979 5909 9403     		.uleb128 0x194
 14980 590b 5F545255 		.ascii "_TRUNCATE ((size_t)-1)\0"
 14980      4E434154 
 14980      45202828 
 14980      73697A65 
 14980      5F74292D 
 14981 5922 01       		.byte	0x1
 14982 5923 9803     		.uleb128 0x198
 14983 5925 5F435254 		.ascii "_CRT_UNUSED(x) (void)x\0"
 14983      5F554E55 
 14983      53454428 
 14983      78292028 
 14983      766F6964 
 14984 593c 01       		.byte	0x1
 14985 593d AD03     		.uleb128 0x1ad
 14986 593f 5F5F5553 		.ascii "__USE_MINGW_ANSI_STDIO 1\0"
 14986      455F4D49 
 14986      4E47575F 
 14986      414E5349 
 14986      5F535444 
 14987 5958 01       		.byte	0x1
 14988 5959 B403     		.uleb128 0x1b4
 14989 595b 5F5F5553 		.ascii "__USE_MINGW_ANSI_STDIO 1\0"
 14989      455F4D49 
 14989      4E47575F 
 14989      414E5349 
 14989      5F535444 
 14990 5974 02       		.byte	0x2
 14991 5975 C603     		.uleb128 0x1c6
 14992 5977 5F435254 		.ascii "_CRT_glob\0"
 14992      5F676C6F 
 14992      6200
 14993 5981 01       		.byte	0x1
 14994 5982 C703     		.uleb128 0x1c7
 14995 5984 5F435254 		.ascii "_CRT_glob _dowildcard\0"
 14995      5F676C6F 
 14995      62205F64 
 14995      6F77696C 
 14995      64636172 
 14996 599a 01       		.byte	0x1
 14997 599b D703     		.uleb128 0x1d7
 14998 599d 5F5F414E 		.ascii "__ANONYMOUS_DEFINED \0"
 14998      4F4E594D 
 14998      4F55535F 
 14998      44454649 
 14998      4E454420 
 14999 59b2 01       		.byte	0x1
 15000 59b3 D803     		.uleb128 0x1d8
 15001 59b5 5F414E4F 		.ascii "_ANONYMOUS_UNION __MINGW_EXTENSION\0"
 15001      4E594D4F 
 15001      55535F55 
 15001      4E494F4E 
 15001      205F5F4D 
 15002 59d8 01       		.byte	0x1
 15003 59d9 D903     		.uleb128 0x1d9
 15004 59db 5F414E4F 		.ascii "_ANONYMOUS_STRUCT __MINGW_EXTENSION\0"
 15004      4E594D4F 
 15004      55535F53 
 15004      54525543 
 15004      54205F5F 
 15005 59ff 01       		.byte	0x1
 15006 5a00 DB03     		.uleb128 0x1db
 15007 5a02 5F554E49 		.ascii "_UNION_NAME(x) \0"
 15007      4F4E5F4E 
 15007      414D4528 
 15007      78292000 
 15008 5a12 01       		.byte	0x1
 15009 5a13 DC03     		.uleb128 0x1dc
 15010 5a15 5F535452 		.ascii "_STRUCT_NAME(x) \0"
 15010      5543545F 
 15010      4E414D45 
 15010      28782920 
 15010      00
 15011 5a26 01       		.byte	0x1
 15012 5a27 F003     		.uleb128 0x1f0
 15013 5a29 44554D4D 		.ascii "DUMMYUNIONNAME \0"
 15013      59554E49 
 15013      4F4E4E41 
 15013      4D452000 
 15014 5a39 01       		.byte	0x1
 15015 5a3a F103     		.uleb128 0x1f1
 15016 5a3c 44554D4D 		.ascii "DUMMYUNIONNAME1 \0"
 15016      59554E49 
 15016      4F4E4E41 
 15016      4D453120 
 15016      00
 15017 5a4d 01       		.byte	0x1
 15018 5a4e F203     		.uleb128 0x1f2
 15019 5a50 44554D4D 		.ascii "DUMMYUNIONNAME2 \0"
 15019      59554E49 
 15019      4F4E4E41 
 15019      4D453220 
 15019      00
 15020 5a61 01       		.byte	0x1
 15021 5a62 F303     		.uleb128 0x1f3
 15022 5a64 44554D4D 		.ascii "DUMMYUNIONNAME3 \0"
 15022      59554E49 
 15022      4F4E4E41 
 15022      4D453320 
 15022      00
 15023 5a75 01       		.byte	0x1
 15024 5a76 F403     		.uleb128 0x1f4
 15025 5a78 44554D4D 		.ascii "DUMMYUNIONNAME4 \0"
 15025      59554E49 
 15025      4F4E4E41 
 15025      4D453420 
 15025      00
 15026 5a89 01       		.byte	0x1
 15027 5a8a F503     		.uleb128 0x1f5
 15028 5a8c 44554D4D 		.ascii "DUMMYUNIONNAME5 \0"
 15028      59554E49 
 15028      4F4E4E41 
 15028      4D453520 
 15028      00
 15029 5a9d 01       		.byte	0x1
 15030 5a9e F603     		.uleb128 0x1f6
 15031 5aa0 44554D4D 		.ascii "DUMMYUNIONNAME6 \0"
 15031      59554E49 
 15031      4F4E4E41 
 15031      4D453620 
 15031      00
 15032 5ab1 01       		.byte	0x1
 15033 5ab2 F703     		.uleb128 0x1f7
 15034 5ab4 44554D4D 		.ascii "DUMMYUNIONNAME7 \0"
 15034      59554E49 
 15034      4F4E4E41 
 15034      4D453720 
 15034      00
 15035 5ac5 01       		.byte	0x1
 15036 5ac6 F803     		.uleb128 0x1f8
 15037 5ac8 44554D4D 		.ascii "DUMMYUNIONNAME8 \0"
 15037      59554E49 
 15037      4F4E4E41 
 15037      4D453820 
 15037      00
 15038 5ad9 01       		.byte	0x1
 15039 5ada F903     		.uleb128 0x1f9
 15040 5adc 44554D4D 		.ascii "DUMMYUNIONNAME9 \0"
 15040      59554E49 
 15040      4F4E4E41 
 15040      4D453920 
 15040      00
 15041 5aed 01       		.byte	0x1
 15042 5aee 8604     		.uleb128 0x206
 15043 5af0 44554D4D 		.ascii "DUMMYSTRUCTNAME \0"
 15043      59535452 
 15043      5543544E 
 15043      414D4520 
 15043      00
 15044 5b01 01       		.byte	0x1
 15045 5b02 8704     		.uleb128 0x207
 15046 5b04 44554D4D 		.ascii "DUMMYSTRUCTNAME1 \0"
 15046      59535452 
 15046      5543544E 
 15046      414D4531 
 15046      2000
 15047 5b16 01       		.byte	0x1
 15048 5b17 8804     		.uleb128 0x208
 15049 5b19 44554D4D 		.ascii "DUMMYSTRUCTNAME2 \0"
 15049      59535452 
 15049      5543544E 
 15049      414D4532 
 15049      2000
 15050 5b2b 01       		.byte	0x1
 15051 5b2c 8904     		.uleb128 0x209
 15052 5b2e 44554D4D 		.ascii "DUMMYSTRUCTNAME3 \0"
 15052      59535452 
 15052      5543544E 
 15052      414D4533 
 15052      2000
 15053 5b40 01       		.byte	0x1
 15054 5b41 8A04     		.uleb128 0x20a
 15055 5b43 44554D4D 		.ascii "DUMMYSTRUCTNAME4 \0"
 15055      59535452 
 15055      5543544E 
 15055      414D4534 
 15055      2000
 15056 5b55 01       		.byte	0x1
 15057 5b56 8B04     		.uleb128 0x20b
 15058 5b58 44554D4D 		.ascii "DUMMYSTRUCTNAME5 \0"
 15058      59535452 
 15058      5543544E 
 15058      414D4535 
 15058      2000
 15059 5b6a 01       		.byte	0x1
 15060 5b6b B304     		.uleb128 0x233
 15061 5b6d 5F5F4352 		.ascii "__CRT_UUID_DECL(type,l,w1,w2,b1,b2,b3,b4,b5,b6,b7,b8) \0"
 15061      545F5555 
 15061      49445F44 
 15061      45434C28 
 15061      74797065 
 15062 5ba4 01       		.byte	0x1
 15063 5ba5 BF04     		.uleb128 0x23f
 15064 5ba7 5F5F4D49 		.ascii "__MINGW_DEBUGBREAK_IMPL !__has_builtin(__debugbreak)\0"
 15064      4E47575F 
 15064      44454255 
 15064      47425245 
 15064      414B5F49 
 15065 5bdc 01       		.byte	0x1
 15066 5bdd D404     		.uleb128 0x254
 15067 5bdf 5F5F4D49 		.ascii "__MINGW_FASTFAIL_IMPL !__has_builtin(__fastfail)\0"
 15067      4E47575F 
 15067      46415354 
 15067      4641494C 
 15067      5F494D50 
 15068 5c10 01       		.byte	0x1
 15069 5c11 EC04     		.uleb128 0x26c
 15070 5c13 5F5F4D49 		.ascii "__MINGW_PREFETCH_IMPL !__has_builtin(__prefetch)\0"
 15070      4E47575F 
 15070      50524546 
 15070      45544348 
 15070      5F494D50 
 15071 5c44 04       		.byte	0x4
 15072 5c45 02       		.byte	0x2
 15073 5c46 0D       		.uleb128 0xd
 15074 5c47 5F435254 		.ascii "_CRT_PACKING\0"
 15074      5F504143 
 15074      4B494E47 
 15074      00
 15075 5c54 01       		.byte	0x1
 15076 5c55 0E       		.uleb128 0xe
 15077 5c56 5F435254 		.ascii "_CRT_PACKING 8\0"
 15077      5F504143 
 15077      4B494E47 
 15077      203800
 15078 5c65 01       		.byte	0x1
 15079 5c66 18       		.uleb128 0x18
 15080 5c67 5F435254 		.ascii "_CRTNOALIAS \0"
 15080      4E4F414C 
 15080      49415320 
 15080      00
 15081 5c74 01       		.byte	0x1
 15082 5c75 1C       		.uleb128 0x1c
 15083 5c76 5F435254 		.ascii "_CRTRESTRICT \0"
 15083      52455354 
 15083      52494354 
 15083      2000
 15084 5c84 01       		.byte	0x1
 15085 5c85 20       		.uleb128 0x20
 15086 5c86 5F53495A 		.ascii "_SIZE_T_DEFINED \0"
 15086      455F545F 
 15086      44454649 
 15086      4E454420 
 15086      00
 15087 5c97 02       		.byte	0x2
 15088 5c98 21       		.uleb128 0x21
 15089 5c99 73697A65 		.ascii "size_t\0"
 15089      5F7400
 15090 5ca0 01       		.byte	0x1
 15091 5ca1 2A       		.uleb128 0x2a
 15092 5ca2 5F535349 		.ascii "_SSIZE_T_DEFINED \0"
 15092      5A455F54 
 15092      5F444546 
 15092      494E4544 
 15092      2000
 15093 5cb4 02       		.byte	0x2
 15094 5cb5 2B       		.uleb128 0x2b
 15095 5cb6 7373697A 		.ascii "ssize_t\0"
 15095      655F7400 
 15096 5cbe 01       		.byte	0x1
 15097 5cbf 35       		.uleb128 0x35
 15098 5cc0 5F525349 		.ascii "_RSIZE_T_DEFINED \0"
 15098      5A455F54 
 15098      5F444546 
 15098      494E4544 
 15098      2000
 15099 5cd2 01       		.byte	0x1
 15100 5cd3 39       		.uleb128 0x39
 15101 5cd4 5F494E54 		.ascii "_INTPTR_T_DEFINED \0"
 15101      5054525F 
 15101      545F4445 
 15101      46494E45 
 15101      442000
 15102 5ce7 01       		.byte	0x1
 15103 5ce8 3B       		.uleb128 0x3b
 15104 5ce9 5F5F696E 		.ascii "__intptr_t_defined \0"
 15104      74707472 
 15104      5F745F64 
 15104      6566696E 
 15104      65642000 
 15105 5cfd 02       		.byte	0x2
 15106 5cfe 3C       		.uleb128 0x3c
 15107 5cff 696E7470 		.ascii "intptr_t\0"
 15107      74725F74 
 15107      00
 15108 5d08 01       		.byte	0x1
 15109 5d09 46       		.uleb128 0x46
 15110 5d0a 5F55494E 		.ascii "_UINTPTR_T_DEFINED \0"
 15110      54505452 
 15110      5F545F44 
 15110      4546494E 
 15110      45442000 
 15111 5d1e 01       		.byte	0x1
 15112 5d1f 48       		.uleb128 0x48
 15113 5d20 5F5F7569 		.ascii "__uintptr_t_defined \0"
 15113      6E747074 
 15113      725F745F 
 15113      64656669 
 15113      6E656420 
 15114 5d35 02       		.byte	0x2
 15115 5d36 49       		.uleb128 0x49
 15116 5d37 75696E74 		.ascii "uintptr_t\0"
 15116      7074725F 
 15116      7400
 15117 5d41 01       		.byte	0x1
 15118 5d42 53       		.uleb128 0x53
 15119 5d43 5F505452 		.ascii "_PTRDIFF_T_DEFINED \0"
 15119      44494646 
 15119      5F545F44 
 15119      4546494E 
 15119      45442000 
 15120 5d57 01       		.byte	0x1
 15121 5d58 55       		.uleb128 0x55
 15122 5d59 5F505452 		.ascii "_PTRDIFF_T_ \0"
 15122      44494646 
 15122      5F545F20 
 15122      00
 15123 5d66 02       		.byte	0x2
 15124 5d67 56       		.uleb128 0x56
 15125 5d68 70747264 		.ascii "ptrdiff_t\0"
 15125      6966665F 
 15125      7400
 15126 5d72 01       		.byte	0x1
 15127 5d73 60       		.uleb128 0x60
 15128 5d74 5F574348 		.ascii "_WCHAR_T_DEFINED \0"
 15128      41525F54 
 15128      5F444546 
 15128      494E4544 
 15128      2000
 15129 5d86 01       		.byte	0x1
 15130 5d87 67       		.uleb128 0x67
 15131 5d88 5F574354 		.ascii "_WCTYPE_T_DEFINED \0"
 15131      5950455F 
 15131      545F4445 
 15131      46494E45 
 15131      442000
 15132 5d9b 01       		.byte	0x1
 15133 5d9c 69       		.uleb128 0x69
 15134 5d9d 5F57494E 		.ascii "_WINT_T \0"
 15134      545F5420 
 15134      00
 15135 5da6 01       		.byte	0x1
 15136 5da7 70       		.uleb128 0x70
 15137 5da8 5F455252 		.ascii "_ERRCODE_DEFINED \0"
 15137      434F4445 
 15137      5F444546 
 15137      494E4544 
 15137      2000
 15138 5dba 01       		.byte	0x1
 15139 5dbb 75       		.uleb128 0x75
 15140 5dbc 5F54494D 		.ascii "_TIME32_T_DEFINED \0"
 15140      4533325F 
 15140      545F4445 
 15140      46494E45 
 15140      442000
 15141 5dcf 01       		.byte	0x1
 15142 5dd0 7A       		.uleb128 0x7a
 15143 5dd1 5F54494D 		.ascii "_TIME64_T_DEFINED \0"
 15143      4536345F 
 15143      545F4445 
 15143      46494E45 
 15143      442000
 15144 5de4 01       		.byte	0x1
 15145 5de5 8601     		.uleb128 0x86
 15146 5de7 5F54494D 		.ascii "_TIME_T_DEFINED \0"
 15146      455F545F 
 15146      44454649 
 15146      4E454420 
 15146      00
 15147 5df8 01       		.byte	0x1
 15148 5df9 8F01     		.uleb128 0x8f
 15149 5dfb 5F435254 		.ascii "_CRT_SECURE_CPP_NOTHROW throw()\0"
 15149      5F534543 
 15149      5552455F 
 15149      4350505F 
 15149      4E4F5448 
 15150 5e1b 01       		.byte	0x1
 15151 5e1c 8602     		.uleb128 0x106
 15152 5e1e 5F5F4445 		.ascii "__DEFINE_CPP_OVERLOAD_SECURE_FUNC_0_0(__ret,__func,__dsttype,__dst) \0"
 15152      46494E45 
 15152      5F435050 
 15152      5F4F5645 
 15152      524C4F41 
 15153 5e63 01       		.byte	0x1
 15154 5e64 8702     		.uleb128 0x107
 15155 5e66 5F5F4445 		.ascii "__DEFINE_CPP_OVERLOAD_SECURE_FUNC_0_1(__ret,__func,__dsttype,__dst,__type1,__arg1) \0"
 15155      46494E45 
 15155      5F435050 
 15155      5F4F5645 
 15155      524C4F41 
 15156 5eba 01       		.byte	0x1
 15157 5ebb 8802     		.uleb128 0x108
 15158 5ebd 5F5F4445 		.ascii "__DEFINE_CPP_OVERLOAD_SECURE_FUNC_0_2(__ret,__func,__dsttype,__dst,__type1,__arg1,__type2,
 15158      46494E45 
 15158      5F435050 
 15158      5F4F5645 
 15158      524C4F41 
 15159 5f20 01       		.byte	0x1
 15160 5f21 8902     		.uleb128 0x109
 15161 5f23 5F5F4445 		.ascii "__DEFINE_CPP_OVERLOAD_SECURE_FUNC_0_3(__ret,__func,__dsttype,__dst,__type1,__arg1,__type2,
 15161      46494E45 
 15161      5F435050 
 15161      5F4F5645 
 15161      524C4F41 
 15162 5f95 01       		.byte	0x1
 15163 5f96 8A02     		.uleb128 0x10a
 15164 5f98 5F5F4445 		.ascii "__DEFINE_CPP_OVERLOAD_SECURE_FUNC_0_4(__ret,__func,__dsttype,__dst,__type1,__arg1,__type2,
 15164      46494E45 
 15164      5F435050 
 15164      5F4F5645 
 15164      524C4F41 
 15165 6019 01       		.byte	0x1
 15166 601a 8B02     		.uleb128 0x10b
 15167 601c 5F5F4445 		.ascii "__DEFINE_CPP_OVERLOAD_SECURE_FUNC_1_1(__ret,__func,__type0,__arg0,__dsttype,__dst,__type1,
 15167      46494E45 
 15167      5F435050 
 15167      5F4F5645 
 15167      524C4F41 
 15168 607f 01       		.byte	0x1
 15169 6080 8C02     		.uleb128 0x10c
 15170 6082 5F5F4445 		.ascii "__DEFINE_CPP_OVERLOAD_SECURE_FUNC_1_2(__ret,__func,__type0,__arg0,__dsttype,__dst,__type1,
 15170      46494E45 
 15170      5F435050 
 15170      5F4F5645 
 15170      524C4F41 
 15171 60f4 01       		.byte	0x1
 15172 60f5 8D02     		.uleb128 0x10d
 15173 60f7 5F5F4445 		.ascii "__DEFINE_CPP_OVERLOAD_SECURE_FUNC_1_3(__ret,__func,__type0,__arg0,__dsttype,__dst,__type1,
 15173      46494E45 
 15173      5F435050 
 15173      5F4F5645 
 15173      524C4F41 
 15174 6178 01       		.byte	0x1
 15175 6179 8E02     		.uleb128 0x10e
 15176 617b 5F5F4445 		.ascii "__DEFINE_CPP_OVERLOAD_SECURE_FUNC_2_0(__ret,__func,__type1,__arg1,__type2,__arg2,__dsttype
 15176      46494E45 
 15176      5F435050 
 15176      5F4F5645 
 15176      524C4F41 
 15177 61de 01       		.byte	0x1
 15178 61df 8F02     		.uleb128 0x10f
 15179 61e1 5F5F4445 		.ascii "__DEFINE_CPP_OVERLOAD_SECURE_FUNC_0_1_ARGLIST(__ret,__func,__vfunc,__dsttype,__dst,__type1
 15179      46494E45 
 15179      5F435050 
 15179      5F4F5645 
 15179      524C4F41 
 15180 6245 01       		.byte	0x1
 15181 6246 9002     		.uleb128 0x110
 15182 6248 5F5F4445 		.ascii "__DEFINE_CPP_OVERLOAD_SECURE_FUNC_0_2_ARGLIST(__ret,__func,__vfunc,__dsttype,__dst,__type1
 15182      46494E45 
 15182      5F435050 
 15182      5F4F5645 
 15182      524C4F41 
 15183 62bb 01       		.byte	0x1
 15184 62bc 9102     		.uleb128 0x111
 15185 62be 5F5F4445 		.ascii "__DEFINE_CPP_OVERLOAD_SECURE_FUNC_SPLITPATH(__ret,__func,__dsttype,__src) \0"
 15185      46494E45 
 15185      5F435050 
 15185      5F4F5645 
 15185      524C4F41 
 15186 6309 01       		.byte	0x1
 15187 630a 9502     		.uleb128 0x115
 15188 630c 5F5F4445 		.ascii "__DEFINE_CPP_OVERLOAD_STANDARD_FUNC_0_0(__ret_type,__ret_policy,__decl_spec,__name,__dst_a
 15188      46494E45 
 15188      5F435050 
 15188      5F4F5645 
 15188      524C4F41 
 15189 640c 01       		.byte	0x1
 15190 640d 9702     		.uleb128 0x117
 15191 640f 5F5F4445 		.ascii "__DEFINE_CPP_OVERLOAD_STANDARD_FUNC_0_1(__ret_type,__ret_policy,__decl_spec,__name,__dst_a
 15191      46494E45 
 15191      5F435050 
 15191      5F4F5645 
 15191      524C4F41 
 15192 654c 01       		.byte	0x1
 15193 654d 9902     		.uleb128 0x119
 15194 654f 5F5F4445 		.ascii "__DEFINE_CPP_OVERLOAD_STANDARD_FUNC_0_2(__ret_type,__ret_policy,__decl_spec,__name,__dst_a
 15194      46494E45 
 15194      5F435050 
 15194      5F4F5645 
 15194      524C4F41 
 15195 669f 01       		.byte	0x1
 15196 66a0 9B02     		.uleb128 0x11b
 15197 66a2 5F5F4445 		.ascii "__DEFINE_CPP_OVERLOAD_STANDARD_FUNC_0_3(__ret_type,__ret_policy,__decl_spec,__name,__dst_a
 15197      46494E45 
 15197      5F435050 
 15197      5F4F5645 
 15197      524C4F41 
 15198 681a 01       		.byte	0x1
 15199 681b 9D02     		.uleb128 0x11d
 15200 681d 5F5F4445 		.ascii "__DEFINE_CPP_OVERLOAD_STANDARD_FUNC_0_4(__ret_type,__ret_policy,__decl_spec,__name,__dst_a
 15200      46494E45 
 15200      5F435050 
 15200      5F4F5645 
 15200      524C4F41 
 15201 69bd 01       		.byte	0x1
 15202 69be A603     		.uleb128 0x1a6
 15203 69c0 5F5F4445 		.ascii "__DEFINE_CPP_OVERLOAD_STANDARD_FUNC_0_0_EX(__ret_type,__ret_policy,__decl_spec,__name,__se
 15203      46494E45 
 15203      5F435050 
 15203      5F4F5645 
 15203      524C4F41 
 15204 6a3f 01       		.byte	0x1
 15205 6a40 A703     		.uleb128 0x1a7
 15206 6a42 5F5F4445 		.ascii "__DEFINE_CPP_OVERLOAD_STANDARD_FUNC_0_1_EX(__ret_type,__ret_policy,__decl_spec,__name,__se
 15206      46494E45 
 15206      5F435050 
 15206      5F4F5645 
 15206      524C4F41 
 15207 6ad4 01       		.byte	0x1
 15208 6ad5 A803     		.uleb128 0x1a8
 15209 6ad7 5F5F4445 		.ascii "__DEFINE_CPP_OVERLOAD_STANDARD_FUNC_0_2_EX(__ret_type,__ret_policy,__decl_spec,__name,__se
 15209      46494E45 
 15209      5F435050 
 15209      5F4F5645 
 15209      524C4F41 
 15210 6b7c 01       		.byte	0x1
 15211 6b7d A903     		.uleb128 0x1a9
 15212 6b7f 5F5F4445 		.ascii "__DEFINE_CPP_OVERLOAD_STANDARD_FUNC_0_3_EX(__ret_type,__ret_policy,__decl_spec,__name,__se
 15212      46494E45 
 15212      5F435050 
 15212      5F4F5645 
 15212      524C4F41 
 15213 6c37 01       		.byte	0x1
 15214 6c38 AA03     		.uleb128 0x1aa
 15215 6c3a 5F5F4445 		.ascii "__DEFINE_CPP_OVERLOAD_STANDARD_FUNC_0_4_EX(__ret_type,__ret_policy,__decl_spec,__name,__se
 15215      46494E45 
 15215      5F435050 
 15215      5F4F5645 
 15215      524C4F41 
 15216 6d05 01       		.byte	0x1
 15217 6d06 BA03     		.uleb128 0x1ba
 15218 6d08 5F544147 		.ascii "_TAGLC_ID_DEFINED \0"
 15218      4C435F49 
 15218      445F4445 
 15218      46494E45 
 15218      442000
 15219 6d1b 01       		.byte	0x1
 15220 6d1c C303     		.uleb128 0x1c3
 15221 6d1e 5F544852 		.ascii "_THREADLOCALEINFO \0"
 15221      4541444C 
 15221      4F43414C 
 15221      45494E46 
 15221      4F2000
 15222 6d31 01       		.byte	0x1
 15223 6d32 E603     		.uleb128 0x1e6
 15224 6d34 5F5F6372 		.ascii "__crt_typefix(ctype) \0"
 15224      745F7479 
 15224      70656669 
 15224      78286374 
 15224      79706529 
 15225 6d4a 01       		.byte	0x1
 15226 6d4b F003     		.uleb128 0x1f0
 15227 6d4d 5F435254 		.ascii "_CRT_USE_WINAPI_FAMILY_DESKTOP_APP \0"
 15227      5F555345 
 15227      5F57494E 
 15227      4150495F 
 15227      46414D49 
 15228 6d71 04       		.byte	0x4
 15229 6d72 04       		.byte	0x4
 15230 6d73 01       		.byte	0x1
 15231 6d74 0A       		.uleb128 0xa
 15232 6d75 5F494E43 		.ascii "_INC_STDDEF \0"
 15232      5F535444 
 15232      44454620 
 15232      00
 15233 6d82 01       		.byte	0x1
 15234 6d83 11       		.uleb128 0x11
 15235 6d84 5F435254 		.ascii "_CRT_ERRNO_DEFINED \0"
 15235      5F455252 
 15235      4E4F5F44 
 15235      4546494E 
 15235      45442000 
 15236 6d98 01       		.byte	0x1
 15237 6d99 13       		.uleb128 0x13
 15238 6d9a 6572726E 		.ascii "errno (*_errno())\0"
 15238      6F20282A 
 15238      5F657272 
 15238      6E6F2829 
 15238      2900
 15239 6dac 01       		.byte	0x1
 15240 6dad 19       		.uleb128 0x19
 15241 6dae 5F746872 		.ascii "_threadid (__threadid())\0"
 15241      65616469 
 15241      6420285F 
 15241      5F746872 
 15241      65616469 
 15242 6dc7 01       		.byte	0x1
 15243 6dc8 31       		.uleb128 0x31
 15244 6dc9 5F535444 		.ascii "_STDDEF_H \0"
 15244      4445465F 
 15244      482000
 15245 6dd4 01       		.byte	0x1
 15246 6dd5 32       		.uleb128 0x32
 15247 6dd6 5F535444 		.ascii "_STDDEF_H_ \0"
 15247      4445465F 
 15247      485F2000 
 15248 6de2 01       		.byte	0x1
 15249 6de3 34       		.uleb128 0x34
 15250 6de4 5F414E53 		.ascii "_ANSI_STDDEF_H \0"
 15250      495F5354 
 15250      44444546 
 15250      5F482000 
 15251 6df4 01       		.byte	0x1
 15252 6df5 36       		.uleb128 0x36
 15253 6df6 5F5F5354 		.ascii "__STDDEF_H__ \0"
 15253      44444546 
 15253      5F485F5F 
 15253      2000
 15254 6e04 02       		.byte	0x2
 15255 6e05 A301     		.uleb128 0xa3
 15256 6e07 5F5F6E65 		.ascii "__need_ptrdiff_t\0"
 15256      65645F70 
 15256      74726469 
 15256      66665F74 
 15256      00
 15257 6e18 02       		.byte	0x2
 15258 6e19 F001     		.uleb128 0xf0
 15259 6e1b 5F5F6E65 		.ascii "__need_size_t\0"
 15259      65645F73 
 15259      697A655F 
 15259      7400
 15260 6e29 02       		.byte	0x2
 15261 6e2a D102     		.uleb128 0x151
 15262 6e2c 5F5F6E65 		.ascii "__need_wchar_t\0"
 15262      65645F77 
 15262      63686172 
 15262      5F7400
 15263 6e3b 02       		.byte	0x2
 15264 6e3c 8A03     		.uleb128 0x18a
 15265 6e3e 4E554C4C 		.ascii "NULL\0"
 15265      00
 15266 6e43 01       		.byte	0x1
 15267 6e44 8F03     		.uleb128 0x18f
 15268 6e46 4E554C4C 		.ascii "NULL ((void *)0)\0"
 15268      20282876 
 15268      6F696420 
 15268      2A293029 
 15268      00
 15269 6e57 02       		.byte	0x2
 15270 6e58 9903     		.uleb128 0x199
 15271 6e5a 5F5F6E65 		.ascii "__need_NULL\0"
 15271      65645F4E 
 15271      554C4C00 
 15272 6e66 01       		.byte	0x1
 15273 6e67 9E03     		.uleb128 0x19e
 15274 6e69 6F666673 		.ascii "offsetof(TYPE,MEMBER) __builtin_offsetof (TYPE, MEMBER)\0"
 15274      65746F66 
 15274      28545950 
 15274      452C4D45 
 15274      4D424552 
 15275 6ea1 01       		.byte	0x1
 15276 6ea2 A303     		.uleb128 0x1a3
 15277 6ea4 5F474343 		.ascii "_GCC_MAX_ALIGN_T \0"
 15277      5F4D4158 
 15277      5F414C49 
 15277      474E5F54 
 15277      2000
 15278 6eb6 01       		.byte	0x1
 15279 6eb7 A403     		.uleb128 0x1a4
 15280 6eb9 5F5F434C 		.ascii "__CLANG_MAX_ALIGN_T_DEFINED \0"
 15280      414E475F 
 15280      4D41585F 
 15280      414C4947 
 15280      4E5F545F 
 15281 6ed6 04       		.byte	0x4
 15282 6ed7 04       		.byte	0x4
 15283 6ed8 01       		.byte	0x1
 15284 6ed9 66       		.uleb128 0x66
 15285 6eda 57434841 		.ascii "WCHAR CHAR16\0"
 15285      52204348 
 15285      41523136 
 15285      00
 15286 6ee7 02       		.byte	0x2
 15287 6ee8 77       		.uleb128 0x77
 15288 6ee9 564F4944 		.ascii "VOID\0"
 15288      00
 15289 6eee 01       		.byte	0x1
 15290 6eef 8401     		.uleb128 0x84
 15291 6ef1 504F5354 		.ascii "POST_CODE(_Data) \0"
 15291      5F434F44 
 15291      45285F44 
 15291      61746129 
 15291      2000
 15292 6f03 01       		.byte	0x1
 15293 6f04 8801     		.uleb128 0x88
 15294 6f06 45464945 		.ascii "EFIERR(a) (0x8000000000000000 | a)\0"
 15294      52522861 
 15294      29202830 
 15294      78383030 
 15294      30303030 
 15295 6f29 01       		.byte	0x1
 15296 6f2a 8901     		.uleb128 0x89
 15297 6f2c 4546495F 		.ascii "EFI_ERROR_MASK 0x8000000000000000\0"
 15297      4552524F 
 15297      525F4D41 
 15297      534B2030 
 15297      78383030 
 15298 6f4e 01       		.byte	0x1
 15299 6f4f 8A01     		.uleb128 0x8a
 15300 6f51 45464945 		.ascii "EFIERR_OEM(a) (0xc000000000000000 | a)\0"
 15300      52525F4F 
 15300      454D2861 
 15300      29202830 
 15300      78633030 
 15301 6f78 01       		.byte	0x1
 15302 6f79 8D01     		.uleb128 0x8d
 15303 6f7b 4241445F 		.ascii "BAD_POINTER 0xFBFBFBFBFBFBFBFB\0"
 15303      504F494E 
 15303      54455220 
 15303      30784642 
 15303      46424642 
 15304 6f9a 01       		.byte	0x1
 15305 6f9b 8E01     		.uleb128 0x8e
 15306 6f9d 4D41585F 		.ascii "MAX_ADDRESS 0xFFFFFFFFFFFFFFFF\0"
 15306      41444452 
 15306      45535320 
 15306      30784646 
 15306      46464646 
 15307 6fbc 01       		.byte	0x1
 15308 6fbd 9301     		.uleb128 0x93
 15309 6fbf 42524541 		.ascii "BREAKPOINT() while (TRUE);\0"
 15309      4B504F49 
 15309      4E542829 
 15309      20776869 
 15309      6C652028 
 15310 6fda 01       		.byte	0x1
 15311 6fdb 9A01     		.uleb128 0x9a
 15312 6fdd 4D494E5F 		.ascii "MIN_ALIGNMENT_SIZE 4\0"
 15312      414C4947 
 15312      4E4D454E 
 15312      545F5349 
 15312      5A452034 
 15313 6ff2 01       		.byte	0x1
 15314 6ff3 9C01     		.uleb128 0x9c
 15315 6ff5 414C4947 		.ascii "ALIGN_VARIABLE(Value,Adjustment) (UINTN)Adjustment = 0; if((UINTN)Value % MIN_ALIGNMENT_SI
 15315      4E5F5641 
 15315      52494142 
 15315      4C452856 
 15315      616C7565 
 15316 70ca 01       		.byte	0x1
 15317 70cb A701     		.uleb128 0xa7
 15318 70cd 4546495F 		.ascii "EFI_SIGNATURE_16(A,B) ((A) | (B<<8))\0"
 15318      5349474E 
 15318      41545552 
 15318      455F3136 
 15318      28412C42 
 15319 70f2 01       		.byte	0x1
 15320 70f3 A801     		.uleb128 0xa8
 15321 70f5 4546495F 		.ascii "EFI_SIGNATURE_32(A,B,C,D) (EFI_SIGNATURE_16(A,B) | (EFI_SIGNATURE_16(C,D) << 16))\0"
 15321      5349474E 
 15321      41545552 
 15321      455F3332 
 15321      28412C42 
 15322 7147 01       		.byte	0x1
 15323 7148 A901     		.uleb128 0xa9
 15324 714a 4546495F 		.ascii "EFI_SIGNATURE_64(A,B,C,D,E,F,G,H) (EFI_SIGNATURE_32(A,B,C,D) | ((UINT64)(EFI_SIGNATURE_32(
 15324      5349474E 
 15324      41545552 
 15324      455F3634 
 15324      28412C42 
 15325 71b6 01       		.byte	0x1
 15326 71b7 B101     		.uleb128 0xb1
 15327 71b9 4558504F 		.ascii "EXPORTAPI \0"
 15327      52544150 
 15327      492000
 15328 71c4 01       		.byte	0x1
 15329 71c5 C201     		.uleb128 0xc2
 15330 71c7 45464941 		.ascii "EFIAPI __attribute__((ms_abi))\0"
 15330      5049205F 
 15330      5F617474 
 15330      72696275 
 15330      74655F5F 
 15331 71e6 01       		.byte	0x1
 15332 71e7 C801     		.uleb128 0xc8
 15333 71e9 424F4F54 		.ascii "BOOTSERVICE \0"
 15333      53455256 
 15333      49434520 
 15333      00
 15334 71f6 01       		.byte	0x1
 15335 71f7 CB01     		.uleb128 0xcb
 15336 71f9 52554E54 		.ascii "RUNTIMESERVICE \0"
 15336      494D4553 
 15336      45525649 
 15336      43452000 
 15337 7209 01       		.byte	0x1
 15338 720a CC01     		.uleb128 0xcc
 15339 720c 52554E54 		.ascii "RUNTIMEFUNCTION \0"
 15339      494D4546 
 15339      554E4354 
 15339      494F4E20 
 15339      00
 15340 721d 01       		.byte	0x1
 15341 721e CF01     		.uleb128 0xcf
 15342 7220 52554E54 		.ascii "RUNTIME_CODE(a) alloc_text(\"rtcode\", a)\0"
 15342      494D455F 
 15342      434F4445 
 15342      28612920 
 15342      616C6C6F 
 15343 7248 01       		.byte	0x1
 15344 7249 D001     		.uleb128 0xd0
 15345 724b 42454749 		.ascii "BEGIN_RUNTIME_DATA() data_seg(\"rtdata\")\0"
 15345      4E5F5255 
 15345      4E54494D 
 15345      455F4441 
 15345      54412829 
 15346 7273 01       		.byte	0x1
 15347 7274 D101     		.uleb128 0xd1
 15348 7276 454E445F 		.ascii "END_RUNTIME_DATA() data_seg(\"\")\0"
 15348      52554E54 
 15348      494D455F 
 15348      44415441 
 15348      28292064 
 15349 7296 01       		.byte	0x1
 15350 7297 D301     		.uleb128 0xd3
 15351 7299 564F4C41 		.ascii "VOLATILE volatile\0"
 15351      54494C45 
 15351      20766F6C 
 15351      6174696C 
 15351      6500
 15352 72ab 01       		.byte	0x1
 15353 72ac D501     		.uleb128 0xd5
 15354 72ae 4D454D4F 		.ascii "MEMORY_FENCE() \0"
 15354      52595F46 
 15354      454E4345 
 15354      28292000 
 15355 72be 01       		.byte	0x1
 15356 72bf 8502     		.uleb128 0x105
 15357 72c1 4546495F 		.ascii "EFI_DRIVER_ENTRY_POINT(InitFunction) UINTN InitializeDriver ( VOID *ImageHandle, VOID *Sys
 15357      44524956 
 15357      45525F45 
 15357      4E545259 
 15357      5F504F49 
 15358 73ce 01       		.byte	0x1
 15359 73cf 9702     		.uleb128 0x117
 15360 73d1 4C4F4144 		.ascii "LOAD_INTERNAL_DRIVER(_if,type,name,entry) (_if)->LoadInternal(type, name, entry)\0"
 15360      5F494E54 
 15360      45524E41 
 15360      4C5F4452 
 15360      49564552 
 15361 7422 01       		.byte	0x1
 15362 7423 A602     		.uleb128 0x126
 15363 7425 494E5445 		.ascii "INTERFACE_DECL(x) struct x\0"
 15363      52464143 
 15363      455F4445 
 15363      434C2878 
 15363      29207374 
 15364 7440 01       		.byte	0x1
 15365 7441 AE02     		.uleb128 0x12e
 15366 7443 75656669 		.ascii "uefi_call_wrapper(func,va_num,...) func(__VA_ARGS__)\0"
 15366      5F63616C 
 15366      6C5F7772 
 15366      61707065 
 15366      72286675 
 15367 7478 01       		.byte	0x1
 15368 7479 8303     		.uleb128 0x183
 15369 747b 4546495F 		.ascii "EFI_FUNCTION __attribute__((ms_abi))\0"
 15369      46554E43 
 15369      54494F4E 
 15369      205F5F61 
 15369      74747269 
 15370 74a0 04       		.byte	0x4
 15371              		.file 21 "gnu-efi-3.0.18/inc/eficompiler.h"
 15372 74a1 03       		.byte	0x3
 15373 74a2 41       		.uleb128 0x41
 15374 74a3 15       		.uleb128 0x15
 15375 74a4 01       		.byte	0x1
 15376 74a5 12       		.uleb128 0x12
 15377 74a6 4546495F 		.ascii "EFI_UNUSED __attribute__((__unused__))\0"
 15377      554E5553 
 15377      4544205F 
 15377      5F617474 
 15377      72696275 
 15378 74cd 01       		.byte	0x1
 15379 74ce 1B       		.uleb128 0x1b
 15380 74cf 4546495F 		.ascii "EFI_NO_TAIL_CALL __attribute__((optimize(\"no-optimize-sibling-calls\")))\0"
 15380      4E4F5F54 
 15380      41494C5F 
 15380      43414C4C 
 15380      205F5F61 
 15381 7517 01       		.byte	0x1
 15382 7518 25       		.uleb128 0x25
 15383 7519 4546495F 		.ascii "EFI_OPTNONE __attribute__((__optimize__(\"0\")))\0"
 15383      4F50544E 
 15383      4F4E4520 
 15383      5F5F6174 
 15383      74726962 
 15384 7548 01       		.byte	0x1
 15385 7549 2C       		.uleb128 0x2c
 15386 754a 4546495F 		.ascii "EFI_ALIGN(x) __attribute__((__aligned__(x)))\0"
 15386      414C4947 
 15386      4E287829 
 15386      205F5F61 
 15386      74747269 
 15387 7577 01       		.byte	0x1
 15388 7578 30       		.uleb128 0x30
 15389 7579 414C4947 		.ascii "ALIGN(x) EFI_ALIGN(x)\0"
 15389      4E287829 
 15389      20454649 
 15389      5F414C49 
 15389      474E2878 
 15390 758f 01       		.byte	0x1
 15391 7590 36       		.uleb128 0x36
 15392 7591 4546495F 		.ascii "EFI_NORETURN __attribute__((noreturn))\0"
 15392      4E4F5245 
 15392      5455524E 
 15392      205F5F61 
 15392      74747269 
 15393 75b8 04       		.byte	0x4
 15394 75b9 03       		.byte	0x3
 15395 75ba 42       		.uleb128 0x42
 15396 75bb 05       		.uleb128 0x5
 15397 75bc 01       		.byte	0x1
 15398 75bd 02       		.uleb128 0x2
 15399 75be 5F454649 		.ascii "_EFI_DEF_H \0"
 15399      5F444546 
 15399      5F482000 
 15400 75ca 01       		.byte	0x1
 15401 75cb 22       		.uleb128 0x22
 15402 75cc 434F4E53 		.ascii "CONST const\0"
 15402      5420636F 
 15402      6E737400 
 15403 75d8 01       		.byte	0x1
 15404 75d9 29       		.uleb128 0x29
 15405 75da 54525545 		.ascii "TRUE ((BOOLEAN) 1)\0"
 15405      20282842 
 15405      4F4F4C45 
 15405      414E2920 
 15405      312900
 15406 75ed 01       		.byte	0x1
 15407 75ee 2A       		.uleb128 0x2a
 15408 75ef 46414C53 		.ascii "FALSE ((BOOLEAN) 0)\0"
 15408      45202828 
 15408      424F4F4C 
 15408      45414E29 
 15408      20302900 
 15409 7603 01       		.byte	0x1
 15410 7604 4B       		.uleb128 0x4b
 15411 7605 494E2000 		.ascii "IN \0"
 15412 7609 01       		.byte	0x1
 15413 760a 4C       		.uleb128 0x4c
 15414 760b 4F555420 		.ascii "OUT \0"
 15414      00
 15415 7610 01       		.byte	0x1
 15416 7611 4D       		.uleb128 0x4d
 15417 7612 4F505449 		.ascii "OPTIONAL \0"
 15417      4F4E414C 
 15417      2000
 15418 761c 01       		.byte	0x1
 15419 761d 70       		.uleb128 0x70
 15420 761e 4546495F 		.ascii "EFI_TIME_ADJUST_DAYLIGHT 0x01\0"
 15420      54494D45 
 15420      5F41444A 
 15420      5553545F 
 15420      4441594C 
 15421 763c 01       		.byte	0x1
 15422 763d 71       		.uleb128 0x71
 15423 763e 4546495F 		.ascii "EFI_TIME_IN_DAYLIGHT 0x02\0"
 15423      54494D45 
 15423      5F494E5F 
 15423      4441594C 
 15423      49474854 
 15424 7658 01       		.byte	0x1
 15425 7659 74       		.uleb128 0x74
 15426 765a 4546495F 		.ascii "EFI_UNSPECIFIED_TIMEZONE 0x07FF\0"
 15426      554E5350 
 15426      45434946 
 15426      4945445F 
 15426      54494D45 
 15427 767a 01       		.byte	0x1
 15428 767b C001     		.uleb128 0xc0
 15429 767d 4546495F 		.ascii "EFI_MEMORY_UC 0x0000000000000001\0"
 15429      4D454D4F 
 15429      52595F55 
 15429      43203078 
 15429      30303030 
 15430 769e 01       		.byte	0x1
 15431 769f C101     		.uleb128 0xc1
 15432 76a1 4546495F 		.ascii "EFI_MEMORY_WC 0x0000000000000002\0"
 15432      4D454D4F 
 15432      52595F57 
 15432      43203078 
 15432      30303030 
 15433 76c2 01       		.byte	0x1
 15434 76c3 C201     		.uleb128 0xc2
 15435 76c5 4546495F 		.ascii "EFI_MEMORY_WT 0x0000000000000004\0"
 15435      4D454D4F 
 15435      52595F57 
 15435      54203078 
 15435      30303030 
 15436 76e6 01       		.byte	0x1
 15437 76e7 C301     		.uleb128 0xc3
 15438 76e9 4546495F 		.ascii "EFI_MEMORY_WB 0x0000000000000008\0"
 15438      4D454D4F 
 15438      52595F57 
 15438      42203078 
 15438      30303030 
 15439 770a 01       		.byte	0x1
 15440 770b C401     		.uleb128 0xc4
 15441 770d 4546495F 		.ascii "EFI_MEMORY_UCE 0x0000000000000010\0"
 15441      4D454D4F 
 15441      52595F55 
 15441      43452030 
 15441      78303030 
 15442 772f 01       		.byte	0x1
 15443 7730 C701     		.uleb128 0xc7
 15444 7732 4546495F 		.ascii "EFI_MEMORY_WP 0x0000000000001000\0"
 15444      4D454D4F 
 15444      52595F57 
 15444      50203078 
 15444      30303030 
 15445 7753 01       		.byte	0x1
 15446 7754 C801     		.uleb128 0xc8
 15447 7756 4546495F 		.ascii "EFI_MEMORY_RP 0x0000000000002000\0"
 15447      4D454D4F 
 15447      52595F52 
 15447      50203078 
 15447      30303030 
 15448 7777 01       		.byte	0x1
 15449 7778 C901     		.uleb128 0xc9
 15450 777a 4546495F 		.ascii "EFI_MEMORY_XP 0x0000000000004000\0"
 15450      4D454D4F 
 15450      52595F58 
 15450      50203078 
 15450      30303030 
 15451 779b 01       		.byte	0x1
 15452 779c CA01     		.uleb128 0xca
 15453 779e 4546495F 		.ascii "EFI_MEMORY_RO 0x0000000000020000\0"
 15453      4D454D4F 
 15453      52595F52 
 15453      4F203078 
 15453      30303030 
 15454 77bf 01       		.byte	0x1
 15455 77c0 CD01     		.uleb128 0xcd
 15456 77c2 4546495F 		.ascii "EFI_MEMORY_NV 0x0000000000008000\0"
 15456      4D454D4F 
 15456      52595F4E 
 15456      56203078 
 15456      30303030 
 15457 77e3 01       		.byte	0x1
 15458 77e4 CE01     		.uleb128 0xce
 15459 77e6 4546495F 		.ascii "EFI_MEMORY_RUNTIME 0x8000000000000000\0"
 15459      4D454D4F 
 15459      52595F52 
 15459      554E5449 
 15459      4D452030 
 15460 780c 01       		.byte	0x1
 15461 780d D101     		.uleb128 0xd1
 15462 780f 4546495F 		.ascii "EFI_MEMORY_MORE_RELIABLE 0x0000000000010000\0"
 15462      4D454D4F 
 15462      52595F4D 
 15462      4F52455F 
 15462      52454C49 
 15463 783b 01       		.byte	0x1
 15464 783c D201     		.uleb128 0xd2
 15465 783e 4546495F 		.ascii "EFI_MEMORY_SP 0x0000000000040000\0"
 15465      4D454D4F 
 15465      52595F53 
 15465      50203078 
 15465      30303030 
 15466 785f 01       		.byte	0x1
 15467 7860 D301     		.uleb128 0xd3
 15468 7862 4546495F 		.ascii "EFI_MEMORY_CPU_CRYPTO 0x0000000000080000\0"
 15468      4D454D4F 
 15468      52595F43 
 15468      50555F43 
 15468      52595054 
 15469 788b 01       		.byte	0x1
 15470 788c D401     		.uleb128 0xd4
 15471 788e 4546495F 		.ascii "EFI_MEMORY_ISA_VALID 0x4000000000000000\0"
 15471      4D454D4F 
 15471      52595F49 
 15471      53415F56 
 15471      414C4944 
 15472 78b6 01       		.byte	0x1
 15473 78b7 D501     		.uleb128 0xd5
 15474 78b9 4546495F 		.ascii "EFI_MEMORY_ISA_MASK 0x0FFFF00000000000\0"
 15474      4D454D4F 
 15474      52595F49 
 15474      53415F4D 
 15474      41534B20 
 15475 78e0 01       		.byte	0x1
 15476 78e1 D801     		.uleb128 0xd8
 15477 78e3 4546495F 		.ascii "EFI_MEMORY_DESCRIPTOR_VERSION 1\0"
 15477      4D454D4F 
 15477      52595F44 
 15477      45534352 
 15477      4950544F 
 15478 7903 01       		.byte	0x1
 15479 7904 E701     		.uleb128 0xe7
 15480 7906 49534F5F 		.ascii "ISO_639_2_ENTRY_SIZE 3\0"
 15480      3633395F 
 15480      325F454E 
 15480      5452595F 
 15480      53495A45 
 15481 791d 01       		.byte	0x1
 15482 791e ED01     		.uleb128 0xed
 15483 7920 4546495F 		.ascii "EFI_PAGE_SIZE 4096\0"
 15483      50414745 
 15483      5F53495A 
 15483      45203430 
 15483      393600
 15484 7933 01       		.byte	0x1
 15485 7934 EE01     		.uleb128 0xee
 15486 7936 4546495F 		.ascii "EFI_PAGE_MASK 0xFFF\0"
 15486      50414745 
 15486      5F4D4153 
 15486      4B203078 
 15486      46464600 
 15487 794a 01       		.byte	0x1
 15488 794b EF01     		.uleb128 0xef
 15489 794d 4546495F 		.ascii "EFI_PAGE_SHIFT 12\0"
 15489      50414745 
 15489      5F534849 
 15489      46542031 
 15489      3200
 15490 795f 01       		.byte	0x1
 15491 7960 F101     		.uleb128 0xf1
 15492 7962 4546495F 		.ascii "EFI_SIZE_TO_PAGES(a) ( ((a) >> EFI_PAGE_SHIFT) + ((a) & EFI_PAGE_MASK ? 1 : 0) )\0"
 15492      53495A45 
 15492      5F544F5F 
 15492      50414745 
 15492      53286129 
 15493 79b3 01       		.byte	0x1
 15494 79b4 F401     		.uleb128 0xf4
 15495 79b6 4546495F 		.ascii "EFI_OS_INDICATIONS_BOOT_TO_FW_UI 0x0000000000000001\0"
 15495      4F535F49 
 15495      4E444943 
 15495      4154494F 
 15495      4E535F42 
 15496 79ea 01       		.byte	0x1
 15497 79eb F501     		.uleb128 0xf5
 15498 79ed 4546495F 		.ascii "EFI_OS_INDICATIONS_TIMESTAMP_REVOCATION 0x0000000000000002\0"
 15498      4F535F49 
 15498      4E444943 
 15498      4154494F 
 15498      4E535F54 
 15499 7a28 01       		.byte	0x1
 15500 7a29 F601     		.uleb128 0xf6
 15501 7a2b 4546495F 		.ascii "EFI_OS_INDICATIONS_FILE_CAPSULE_DELIVERY_SUPPORTED 0x0000000000000004\0"
 15501      4F535F49 
 15501      4E444943 
 15501      4154494F 
 15501      4E535F46 
 15502 7a71 01       		.byte	0x1
 15503 7a72 F801     		.uleb128 0xf8
 15504 7a74 4546495F 		.ascii "EFI_OS_INDICATIONS_FMP_CAPSULE_SUPPORTED 0x0000000000000008\0"
 15504      4F535F49 
 15504      4E444943 
 15504      4154494F 
 15504      4E535F46 
 15505 7ab0 01       		.byte	0x1
 15506 7ab1 FA01     		.uleb128 0xfa
 15507 7ab3 4546495F 		.ascii "EFI_OS_INDICATIONS_CAPSULE_RESULT_VAR_SUPPORTED 0x0000000000000010\0"
 15507      4F535F49 
 15507      4E444943 
 15507      4154494F 
 15507      4E535F43 
 15508 7af6 01       		.byte	0x1
 15509 7af7 FC01     		.uleb128 0xfc
 15510 7af9 4546495F 		.ascii "EFI_OS_INDICATIONS_START_OS_RECOVERY 0x0000000000000020\0"
 15510      4F535F49 
 15510      4E444943 
 15510      4154494F 
 15510      4E535F53 
 15511 7b31 01       		.byte	0x1
 15512 7b32 FD01     		.uleb128 0xfd
 15513 7b34 4546495F 		.ascii "EFI_OS_INDICATIONS_START_PLATFORM_RECOVERY 0x0000000000000040\0"
 15513      4F535F49 
 15513      4E444943 
 15513      4154494F 
 15513      4E535F53 
 15514 7b72 01       		.byte	0x1
 15515 7b73 FF01     		.uleb128 0xff
 15516 7b75 4546495F 		.ascii "EFI_OS_INDICATIONS_JSON_CONFIG_DATA_REFRESH 0x0000000000000080\0"
 15516      4F535F49 
 15516      4E444943 
 15516      4154494F 
 15516      4E535F4A 
 15517 7bb4 04       		.byte	0x4
 15518 7bb5 03       		.byte	0x3
 15519 7bb6 43       		.uleb128 0x43
 15520 7bb7 06       		.uleb128 0x6
 15521 7bb8 01       		.byte	0x1
 15522 7bb9 02       		.uleb128 0x2
 15523 7bba 5F444556 		.ascii "_DEVPATH_H \0"
 15523      50415448 
 15523      5F482000 
 15524 7bc6 01       		.byte	0x1
 15525 7bc7 23       		.uleb128 0x23
 15526 7bc8 4546495F 		.ascii "EFI_DP_TYPE_MASK 0x7F\0"
 15526      44505F54 
 15526      5950455F 
 15526      4D41534B 
 15526      20307837 
 15527 7bde 01       		.byte	0x1
 15528 7bdf 24       		.uleb128 0x24
 15529 7be0 4546495F 		.ascii "EFI_DP_TYPE_UNPACKED 0x80\0"
 15529      44505F54 
 15529      5950455F 
 15529      554E5041 
 15529      434B4544 
 15530 7bfa 01       		.byte	0x1
 15531 7bfb 27       		.uleb128 0x27
 15532 7bfc 454E445F 		.ascii "END_DEVICE_PATH_TYPE 0x7f\0"
 15532      44455649 
 15532      43455F50 
 15532      4154485F 
 15532      54595045 
 15533 7c16 01       		.byte	0x1
 15534 7c17 2A       		.uleb128 0x2a
 15535 7c18 454E445F 		.ascii "END_ENTIRE_DEVICE_PATH_SUBTYPE 0xff\0"
 15535      454E5449 
 15535      52455F44 
 15535      45564943 
 15535      455F5041 
 15536 7c3c 01       		.byte	0x1
 15537 7c3d 2B       		.uleb128 0x2b
 15538 7c3e 454E445F 		.ascii "END_INSTANCE_DEVICE_PATH_SUBTYPE 0x01\0"
 15538      494E5354 
 15538      414E4345 
 15538      5F444556 
 15538      4943455F 
 15539 7c64 01       		.byte	0x1
 15540 7c65 2C       		.uleb128 0x2c
 15541 7c66 454E445F 		.ascii "END_DEVICE_PATH_LENGTH (sizeof(EFI_DEVICE_PATH_PROTOCOL))\0"
 15541      44455649 
 15541      43455F50 
 15541      4154485F 
 15541      4C454E47 
 15542 7ca0 01       		.byte	0x1
 15543 7ca1 2F       		.uleb128 0x2f
 15544 7ca2 44505F49 		.ascii "DP_IS_END_TYPE(a) \0"
 15544      535F454E 
 15544      445F5459 
 15544      50452861 
 15544      292000
 15545 7cb5 01       		.byte	0x1
 15546 7cb6 30       		.uleb128 0x30
 15547 7cb7 44505F49 		.ascii "DP_IS_END_SUBTYPE(a) ( ((a)->SubType == END_ENTIRE_DEVICE_PATH_SUBTYPE )\0"
 15547      535F454E 
 15547      445F5355 
 15547      42545950 
 15547      45286129 
 15548 7d00 01       		.byte	0x1
 15549 7d01 32       		.uleb128 0x32
 15550 7d02 44657669 		.ascii "DevicePathType(a) ( ((a)->Type) & EFI_DP_TYPE_MASK )\0"
 15550      63655061 
 15550      74685479 
 15550      70652861 
 15550      29202820 
 15551 7d37 01       		.byte	0x1
 15552 7d38 33       		.uleb128 0x33
 15553 7d39 44657669 		.ascii "DevicePathSubType(a) ( (a)->SubType )\0"
 15553      63655061 
 15553      74685375 
 15553      62547970 
 15553      65286129 
 15554 7d5f 01       		.byte	0x1
 15555 7d60 34       		.uleb128 0x34
 15556 7d61 44657669 		.ascii "DevicePathNodeLength(a) ( ((a)->Length[0]) | ((a)->Length[1] << 8) )\0"
 15556      63655061 
 15556      74684E6F 
 15556      64654C65 
 15556      6E677468 
 15557 7da6 01       		.byte	0x1
 15558 7da7 35       		.uleb128 0x35
 15559 7da8 4E657874 		.ascii "NextDevicePathNode(a) ( (EFI_DEVICE_PATH_PROTOCOL *) ( ((UINT8 *) (a)) + DevicePathNodeLen
 15559      44657669 
 15559      63655061 
 15559      74684E6F 
 15559      64652861 
 15560 7e0b 01       		.byte	0x1
 15561 7e0c 37       		.uleb128 0x37
 15562 7e0d 49734465 		.ascii "IsDevicePathEndType(a) ( DevicePathType(a) == END_DEVICE_PATH_TYPE )\0"
 15562      76696365 
 15562      50617468 
 15562      456E6454 
 15562      79706528 
 15563 7e52 01       		.byte	0x1
 15564 7e53 38       		.uleb128 0x38
 15565 7e54 49734465 		.ascii "IsDevicePathEndSubType(a) ( (a)->SubType == END_ENTIRE_DEVICE_PATH_SUBTYPE )\0"
 15565      76696365 
 15565      50617468 
 15565      456E6453 
 15565      75625479 
 15566 7ea1 01       		.byte	0x1
 15567 7ea2 39       		.uleb128 0x39
 15568 7ea3 49734465 		.ascii "IsDevicePathEnd(a) ( IsDevicePathEndType(a) && IsDevicePathEndSubType(a) )\0"
 15568      76696365 
 15568      50617468 
 15568      456E6428 
 15568      61292028 
 15569 7eee 01       		.byte	0x1
 15570 7eef 3A       		.uleb128 0x3a
 15571 7ef0 49734465 		.ascii "IsDevicePathUnpacked(a) ( (a)->Type & EFI_DP_TYPE_UNPACKED )\0"
 15571      76696365 
 15571      50617468 
 15571      556E7061 
 15571      636B6564 
 15572 7f2d 01       		.byte	0x1
 15573 7f2e 3D       		.uleb128 0x3d
 15574 7f2f 53657444 		.ascii "SetDevicePathNodeLength(a,l) { (a)->Length[0] = (UINT8) (l); (a)->Length[1] = (UINT8) ((l)
 15574      65766963 
 15574      65506174 
 15574      684E6F64 
 15574      654C656E 
 15575 7f93 01       		.byte	0x1
 15576 7f94 42       		.uleb128 0x42
 15577 7f95 53657444 		.ascii "SetDevicePathEndNode(a) { (a)->Type = END_DEVICE_PATH_TYPE; (a)->SubType = END_ENTIRE_DEVI
 15577      65766963 
 15577      65506174 
 15577      68456E64 
 15577      4E6F6465 
 15578 8049 01       		.byte	0x1
 15579 804a 4E       		.uleb128 0x4e
 15580 804b 48415244 		.ascii "HARDWARE_DEVICE_PATH 0x01\0"
 15580      57415245 
 15580      5F444556 
 15580      4943455F 
 15580      50415448 
 15581 8065 01       		.byte	0x1
 15582 8066 50       		.uleb128 0x50
 15583 8067 48575F50 		.ascii "HW_PCI_DP 0x01\0"
 15583      43495F44 
 15583      50203078 
 15583      303100
 15584 8076 01       		.byte	0x1
 15585 8077 57       		.uleb128 0x57
 15586 8078 48575F50 		.ascii "HW_PCCARD_DP 0x02\0"
 15586      43434152 
 15586      445F4450 
 15586      20307830 
 15586      3200
 15587 808a 01       		.byte	0x1
 15588 808b 5D       		.uleb128 0x5d
 15589 808c 48575F4D 		.ascii "HW_MEMMAP_DP 0x03\0"
 15589      454D4D41 
 15589      505F4450 
 15589      20307830 
 15589      3300
 15590 809e 01       		.byte	0x1
 15591 809f 65       		.uleb128 0x65
 15592 80a0 48575F56 		.ascii "HW_VENDOR_DP 0x04\0"
 15592      454E444F 
 15592      525F4450 
 15592      20307830 
 15592      3400
 15593 80b2 01       		.byte	0x1
 15594 80b3 6B       		.uleb128 0x6b
 15595 80b4 554E4B4E 		.ascii "UNKNOWN_DEVICE_GUID { 0xcf31fac5, 0xc24e, 0x11d2, {0x85, 0xf3, 0x0, 0xa0, 0xc9, 0x3e, 0xc9
 15595      4F574E5F 
 15595      44455649 
 15595      43455F47 
 15595      55494420 
 15596 8118 01       		.byte	0x1
 15597 8119 73       		.uleb128 0x73
 15598 811a 48575F43 		.ascii "HW_CONTROLLER_DP 0x05\0"
 15598      4F4E5452 
 15598      4F4C4C45 
 15598      525F4450 
 15598      20307830 
 15599 8130 01       		.byte	0x1
 15600 8131 7D       		.uleb128 0x7d
 15601 8132 41435049 		.ascii "ACPI_DEVICE_PATH 0x02\0"
 15601      5F444556 
 15601      4943455F 
 15601      50415448 
 15601      20307830 
 15602 8148 01       		.byte	0x1
 15603 8149 7F       		.uleb128 0x7f
 15604 814a 41435049 		.ascii "ACPI_DP 0x01\0"
 15604      5F445020 
 15604      30783031 
 15604      00
 15605 8157 01       		.byte	0x1
 15606 8158 8601     		.uleb128 0x86
 15607 815a 45585041 		.ascii "EXPANDED_ACPI_DP 0x02\0"
 15607      4E444544 
 15607      5F414350 
 15607      495F4450 
 15607      20307830 
 15608 8170 01       		.byte	0x1
 15609 8171 8F01     		.uleb128 0x8f
 15610 8173 41435049 		.ascii "ACPI_ADR_DP 3\0"
 15610      5F414452 
 15610      5F445020 
 15610      3300
 15611 8181 01       		.byte	0x1
 15612 8182 9C01     		.uleb128 0x9c
 15613 8184 504E505F 		.ascii "PNP_EISA_ID_CONST 0x41d0\0"
 15613      45495341 
 15613      5F49445F 
 15613      434F4E53 
 15613      54203078 
 15614 819d 01       		.byte	0x1
 15615 819e 9D01     		.uleb128 0x9d
 15616 81a0 45495341 		.ascii "EISA_ID(_Name,_Num) ((UINT32) ((_Name) | (_Num) << 16))\0"
 15616      5F494428 
 15616      5F4E616D 
 15616      652C5F4E 
 15616      756D2920 
 15617 81d8 01       		.byte	0x1
 15618 81d9 9E01     		.uleb128 0x9e
 15619 81db 45495341 		.ascii "EISA_PNP_ID(_PNPId) (EISA_ID(PNP_EISA_ID_CONST, (_PNPId)))\0"
 15619      5F504E50 
 15619      5F494428 
 15619      5F504E50 
 15619      49642920 
 15620 8216 01       		.byte	0x1
 15621 8217 A001     		.uleb128 0xa0
 15622 8219 504E505F 		.ascii "PNP_EISA_ID_MASK 0xffff\0"
 15622      45495341 
 15622      5F49445F 
 15622      4D41534B 
 15622      20307866 
 15623 8231 01       		.byte	0x1
 15624 8232 A101     		.uleb128 0xa1
 15625 8234 45495341 		.ascii "EISA_ID_TO_NUM(_Id) ((_Id) >> 16)\0"
 15625      5F49445F 
 15625      544F5F4E 
 15625      554D285F 
 15625      49642920 
 15626 8256 01       		.byte	0x1
 15627 8257 A701     		.uleb128 0xa7
 15628 8259 4D455353 		.ascii "MESSAGING_DEVICE_PATH 0x03\0"
 15628      4147494E 
 15628      475F4445 
 15628      56494345 
 15628      5F504154 
 15629 8274 01       		.byte	0x1
 15630 8275 A901     		.uleb128 0xa9
 15631 8277 4D53475F 		.ascii "MSG_ATAPI_DP 0x01\0"
 15631      41544150 
 15631      495F4450 
 15631      20307830 
 15631      3100
 15632 8289 01       		.byte	0x1
 15633 828a B101     		.uleb128 0xb1
 15634 828c 4D53475F 		.ascii "MSG_SCSI_DP 0x02\0"
 15634      53435349 
 15634      5F445020 
 15634      30783032 
 15634      00
 15635 829d 01       		.byte	0x1
 15636 829e B801     		.uleb128 0xb8
 15637 82a0 4D53475F 		.ascii "MSG_FIBRECHANNEL_DP 0x03\0"
 15637      46494252 
 15637      45434841 
 15637      4E4E454C 
 15637      5F445020 
 15638 82b9 01       		.byte	0x1
 15639 82ba C401     		.uleb128 0xc4
 15640 82bc 4D53475F 		.ascii "MSG_FIBRECHANNELEX_DP 21\0"
 15640      46494252 
 15640      45434841 
 15640      4E4E454C 
 15640      45585F44 
 15641 82d5 01       		.byte	0x1
 15642 82d6 CC01     		.uleb128 0xcc
 15643 82d8 4D53475F 		.ascii "MSG_1394_DP 0x04\0"
 15643      31333934 
 15643      5F445020 
 15643      30783034 
 15643      00
 15644 82e9 01       		.byte	0x1
 15645 82ea D301     		.uleb128 0xd3
 15646 82ec 4D53475F 		.ascii "MSG_USB_DP 0x05\0"
 15646      5553425F 
 15646      44502030 
 15646      78303500 
 15647 82fc 01       		.byte	0x1
 15648 82fd DE01     		.uleb128 0xde
 15649 82ff 4D53475F 		.ascii "MSG_SATA_DP 18\0"
 15649      53415441 
 15649      5F445020 
 15649      313800
 15650 830e 01       		.byte	0x1
 15651 830f EA01     		.uleb128 0xea
 15652 8311 4D53475F 		.ascii "MSG_USB_WWID_DP 16\0"
 15652      5553425F 
 15652      57574944 
 15652      5F445020 
 15652      313600
 15653 8324 01       		.byte	0x1
 15654 8325 F701     		.uleb128 0xf7
 15655 8327 4D53475F 		.ascii "MSG_DEVICE_LOGICAL_UNIT_DP 17\0"
 15655      44455649 
 15655      43455F4C 
 15655      4F474943 
 15655      414C5F55 
 15656 8345 01       		.byte	0x1
 15657 8346 FD01     		.uleb128 0xfd
 15658 8348 4D53475F 		.ascii "MSG_USB_CLASS_DP 0x0F\0"
 15658      5553425F 
 15658      434C4153 
 15658      535F4450 
 15658      20307830 
 15659 835e 01       		.byte	0x1
 15660 835f 8702     		.uleb128 0x107
 15661 8361 4D53475F 		.ascii "MSG_I2O_DP 0x06\0"
 15661      49324F5F 
 15661      44502030 
 15661      78303600 
 15662 8371 01       		.byte	0x1
 15663 8372 8D02     		.uleb128 0x10d
 15664 8374 4D53475F 		.ascii "MSG_MAC_ADDR_DP 0x0b\0"
 15664      4D41435F 
 15664      41444452 
 15664      5F445020 
 15664      30783062 
 15665 8389 01       		.byte	0x1
 15666 838a 9402     		.uleb128 0x114
 15667 838c 4D53475F 		.ascii "MSG_IPv4_DP 0x0c\0"
 15667      49507634 
 15667      5F445020 
 15667      30783063 
 15667      00
 15668 839d 01       		.byte	0x1
 15669 839e A202     		.uleb128 0x122
 15670 83a0 4D53475F 		.ascii "MSG_IPv6_DP 0x0d\0"
 15670      49507636 
 15670      5F445020 
 15670      30783064 
 15670      00
 15671 83b1 01       		.byte	0x1
 15672 83b2 B502     		.uleb128 0x135
 15673 83b4 4D53475F 		.ascii "MSG_URI_DP 24\0"
 15673      5552495F 
 15673      44502032 
 15673      3400
 15674 83c2 01       		.byte	0x1
 15675 83c3 BF02     		.uleb128 0x13f
 15676 83c5 4D53475F 		.ascii "MSG_VLAN_DP 20\0"
 15676      564C414E 
 15676      5F445020 
 15676      323000
 15677 83d4 01       		.byte	0x1
 15678 83d5 C502     		.uleb128 0x145
 15679 83d7 4D53475F 		.ascii "MSG_INFINIBAND_DP 0x09\0"
 15679      494E4649 
 15679      4E494241 
 15679      4E445F44 
 15679      50203078 
 15680 83ee 01       		.byte	0x1
 15681 83ef CF02     		.uleb128 0x14f
 15682 83f1 4D53475F 		.ascii "MSG_UART_DP 0x0e\0"
 15682      55415254 
 15682      5F445020 
 15682      30783065 
 15682      00
 15683 8402 01       		.byte	0x1
 15684 8403 D902     		.uleb128 0x159
 15685 8405 4D53475F 		.ascii "MSG_VENDOR_DP 0x0A\0"
 15685      56454E44 
 15685      4F525F44 
 15685      50203078 
 15685      304100
 15686 8418 01       		.byte	0x1
 15687 8419 DC02     		.uleb128 0x15c
 15688 841b 4546495F 		.ascii "EFI_PC_ANSI_GUID { 0xe0c14753, 0xf9be, 0x11d2, {0x9a, 0x0c, 0x00, 0x90, 0x27, 0x3f, 0xc1, 
 15688      50435F41 
 15688      4E53495F 
 15688      47554944 
 15688      207B2030 
 15689 847d 01       		.byte	0x1
 15690 847e DE02     		.uleb128 0x15e
 15691 8480 44455649 		.ascii "DEVICE_PATH_MESSAGING_PC_ANSI EFI_PC_ANSI_GUID\0"
 15691      43455F50 
 15691      4154485F 
 15691      4D455353 
 15691      4147494E 
 15692 84af 01       		.byte	0x1
 15693 84b0 E002     		.uleb128 0x160
 15694 84b2 4546495F 		.ascii "EFI_VT_100_GUID { 0xdfa66065, 0xb419, 0x11d3, {0x9a, 0x2d, 0x00, 0x90, 0x27, 0x3f, 0xc1, 0
 15694      56545F31 
 15694      30305F47 
 15694      55494420 
 15694      7B203078 
 15695 8513 01       		.byte	0x1
 15696 8514 E202     		.uleb128 0x162
 15697 8516 44455649 		.ascii "DEVICE_PATH_MESSAGING_VT_100 EFI_VT_100_GUID\0"
 15697      43455F50 
 15697      4154485F 
 15697      4D455353 
 15697      4147494E 
 15698 8543 01       		.byte	0x1
 15699 8544 E402     		.uleb128 0x164
 15700 8546 4546495F 		.ascii "EFI_VT_100_PLUS_GUID { 0x7baec70b, 0x57e0, 0x4c76, {0x8e, 0x87, 0x2f, 0x9e, 0x28, 0x08, 0x
 15700      56545F31 
 15700      30305F50 
 15700      4C55535F 
 15700      47554944 
 15701 85ac 01       		.byte	0x1
 15702 85ad E602     		.uleb128 0x166
 15703 85af 44455649 		.ascii "DEVICE_PATH_MESSAGING_VT_100_PLUS EFI_VT_100_PLUS_GUID\0"
 15703      43455F50 
 15703      4154485F 
 15703      4D455353 
 15703      4147494E 
 15704 85e6 01       		.byte	0x1
 15705 85e7 E802     		.uleb128 0x168
 15706 85e9 4546495F 		.ascii "EFI_VT_UTF8_GUID { 0xad15a0d6, 0x8bec, 0x4acf, {0xa0, 0x73, 0xd0, 0x1d, 0xe7, 0x7e, 0x2d, 
 15706      56545F55 
 15706      5446385F 
 15706      47554944 
 15706      207B2030 
 15707 864b 01       		.byte	0x1
 15708 864c EA02     		.uleb128 0x16a
 15709 864e 44455649 		.ascii "DEVICE_PATH_MESSAGING_VT_UTF8 EFI_VT_UTF8_GUID\0"
 15709      43455F50 
 15709      4154485F 
 15709      4D455353 
 15709      4147494E 
 15710 867d 01       		.byte	0x1
 15711 867e F002     		.uleb128 0x170
 15712 8680 4D454449 		.ascii "MEDIA_DEVICE_PATH 0x04\0"
 15712      415F4445 
 15712      56494345 
 15712      5F504154 
 15712      48203078 
 15713 8697 01       		.byte	0x1
 15714 8698 F202     		.uleb128 0x172
 15715 869a 4D454449 		.ascii "MEDIA_HARDDRIVE_DP 0x01\0"
 15715      415F4841 
 15715      52444452 
 15715      4956455F 
 15715      44502030 
 15716 86b2 01       		.byte	0x1
 15717 86b3 FD02     		.uleb128 0x17d
 15718 86b5 4D42525F 		.ascii "MBR_TYPE_PCAT 0x01\0"
 15718      54595045 
 15718      5F504341 
 15718      54203078 
 15718      303100
 15719 86c8 01       		.byte	0x1
 15720 86c9 FE02     		.uleb128 0x17e
 15721 86cb 4D42525F 		.ascii "MBR_TYPE_EFI_PARTITION_TABLE_HEADER 0x02\0"
 15721      54595045 
 15721      5F454649 
 15721      5F504152 
 15721      54495449 
 15722 86f4 01       		.byte	0x1
 15723 86f5 8003     		.uleb128 0x180
 15724 86f7 5349474E 		.ascii "SIGNATURE_TYPE_MBR 0x01\0"
 15724      41545552 
 15724      455F5459 
 15724      50455F4D 
 15724      42522030 
 15725 870f 01       		.byte	0x1
 15726 8710 8103     		.uleb128 0x181
 15727 8712 5349474E 		.ascii "SIGNATURE_TYPE_GUID 0x02\0"
 15727      41545552 
 15727      455F5459 
 15727      50455F47 
 15727      55494420 
 15728 872b 01       		.byte	0x1
 15729 872c 8303     		.uleb128 0x183
 15730 872e 4D454449 		.ascii "MEDIA_CDROM_DP 0x02\0"
 15730      415F4344 
 15730      524F4D5F 
 15730      44502030 
 15730      78303200 
 15731 8742 01       		.byte	0x1
 15732 8743 8B03     		.uleb128 0x18b
 15733 8745 4D454449 		.ascii "MEDIA_VENDOR_DP 0x03\0"
 15733      415F5645 
 15733      4E444F52 
 15733      5F445020 
 15733      30783033 
 15734 875a 01       		.byte	0x1
 15735 875b 8E03     		.uleb128 0x18e
 15736 875d 4D454449 		.ascii "MEDIA_FILEPATH_DP 0x04\0"
 15736      415F4649 
 15736      4C455041 
 15736      54485F44 
 15736      50203078 
 15737 8774 01       		.byte	0x1
 15738 8775 9403     		.uleb128 0x194
 15739 8777 53495A45 		.ascii "SIZE_OF_FILEPATH_DEVICE_PATH EFI_FIELD_OFFSET(FILEPATH_DEVICE_PATH,PathName)\0"
 15739      5F4F465F 
 15739      46494C45 
 15739      50415448 
 15739      5F444556 
 15740 87c4 01       		.byte	0x1
 15741 87c5 9603     		.uleb128 0x196
 15742 87c7 4D454449 		.ascii "MEDIA_PROTOCOL_DP 0x05\0"
 15742      415F5052 
 15742      4F544F43 
 15742      4F4C5F44 
 15742      50203078 
 15743 87de 01       		.byte	0x1
 15744 87df A003     		.uleb128 0x1a0
 15745 87e1 4D454449 		.ascii "MEDIA_PIWG_FW_FILE_DP 6\0"
 15745      415F5049 
 15745      57475F46 
 15745      575F4649 
 15745      4C455F44 
 15746 87f9 01       		.byte	0x1
 15747 87fa AA03     		.uleb128 0x1aa
 15748 87fc 4D454449 		.ascii "MEDIA_PIWG_FW_VOL_DP 7\0"
 15748      415F5049 
 15748      57475F46 
 15748      575F564F 
 15748      4C5F4450 
 15749 8813 01       		.byte	0x1
 15750 8814 B403     		.uleb128 0x1b4
 15751 8816 4D454449 		.ascii "MEDIA_RELATIVE_OFFSET_RANGE_DP 8\0"
 15751      415F5245 
 15751      4C415449 
 15751      56455F4F 
 15751      46465345 
 15752 8837 01       		.byte	0x1
 15753 8838 C003     		.uleb128 0x1c0
 15754 883a 4242535F 		.ascii "BBS_DEVICE_PATH 0x05\0"
 15754      44455649 
 15754      43455F50 
 15754      41544820 
 15754      30783035 
 15755 884f 01       		.byte	0x1
 15756 8850 C203     		.uleb128 0x1c2
 15757 8852 4242535F 		.ascii "BBS_BBS_DP 0x01\0"
 15757      4242535F 
 15757      44502030 
 15757      78303100 
 15758 8862 01       		.byte	0x1
 15759 8863 CB03     		.uleb128 0x1cb
 15760 8865 4242535F 		.ascii "BBS_TYPE_FLOPPY 0x01\0"
 15760      54595045 
 15760      5F464C4F 
 15760      50505920 
 15760      30783031 
 15761 887a 01       		.byte	0x1
 15762 887b CC03     		.uleb128 0x1cc
 15763 887d 4242535F 		.ascii "BBS_TYPE_HARDDRIVE 0x02\0"
 15763      54595045 
 15763      5F484152 
 15763      44445249 
 15763      56452030 
 15764 8895 01       		.byte	0x1
 15765 8896 CD03     		.uleb128 0x1cd
 15766 8898 4242535F 		.ascii "BBS_TYPE_CDROM 0x03\0"
 15766      54595045 
 15766      5F434452 
 15766      4F4D2030 
 15766      78303300 
 15767 88ac 01       		.byte	0x1
 15768 88ad CE03     		.uleb128 0x1ce
 15769 88af 4242535F 		.ascii "BBS_TYPE_PCMCIA 0x04\0"
 15769      54595045 
 15769      5F50434D 
 15769      43494120 
 15769      30783034 
 15770 88c4 01       		.byte	0x1
 15771 88c5 CF03     		.uleb128 0x1cf
 15772 88c7 4242535F 		.ascii "BBS_TYPE_USB 0x05\0"
 15772      54595045 
 15772      5F555342 
 15772      20307830 
 15772      3500
 15773 88d9 01       		.byte	0x1
 15774 88da D003     		.uleb128 0x1d0
 15775 88dc 4242535F 		.ascii "BBS_TYPE_EMBEDDED_NETWORK 0x06\0"
 15775      54595045 
 15775      5F454D42 
 15775      45444445 
 15775      445F4E45 
 15776 88fb 01       		.byte	0x1
 15777 88fc D103     		.uleb128 0x1d1
 15778 88fe 4242535F 		.ascii "BBS_TYPE_DEV 0x80\0"
 15778      54595045 
 15778      5F444556 
 15778      20307838 
 15778      3000
 15779 8910 01       		.byte	0x1
 15780 8911 D203     		.uleb128 0x1d2
 15781 8913 4242535F 		.ascii "BBS_TYPE_UNKNOWN 0xFF\0"
 15781      54595045 
 15781      5F554E4B 
 15781      4E4F574E 
 15781      20307846 
 15782 8929 01       		.byte	0x1
 15783 892a 9A04     		.uleb128 0x21a
 15784 892c 4546495F 		.ascii "EFI_DEVICE_PATH_TO_TEXT_PROTOCOL_GUID { 0x8b843e20, 0x8132, 0x4852, {0x90, 0xcc, 0x55, 0x1
 15784      44455649 
 15784      43455F50 
 15784      4154485F 
 15784      544F5F54 
 15785 89a3 01       		.byte	0x1
 15786 89a4 B204     		.uleb128 0x232
 15787 89a6 4546495F 		.ascii "EFI_DEVICE_PATH_FROM_TEXT_PROTOCOL_GUID { 0x5c99a21, 0xc70f, 0x4ad2, {0x8a, 0x5f, 0x35, 0x
 15787      44455649 
 15787      43455F50 
 15787      4154485F 
 15787      46524F4D 
 15788 8a1e 01       		.byte	0x1
 15789 8a1f C604     		.uleb128 0x246
 15790 8a21 4546495F 		.ascii "EFI_DEVICE_PATH_UTILITIES_PROTOCOL_GUID { 0x379be4e, 0xd706, 0x437d, {0xb0, 0x37, 0xed, 0x
 15790      44455649 
 15790      43455F50 
 15790      4154485F 
 15790      5554494C 
 15791 8a99 04       		.byte	0x4
 15792              		.file 22 "gnu-efi-3.0.18/inc/efipciio.h"
 15793 8a9a 03       		.byte	0x3
 15794 8a9b 44       		.uleb128 0x44
 15795 8a9c 16       		.uleb128 0x16
 15796 8a9d 01       		.byte	0x1
 15797 8a9e 02       		.uleb128 0x2
 15798 8a9f 5F454649 		.ascii "_EFI_PCI_IO_H \0"
 15798      5F504349 
 15798      5F494F5F 
 15798      482000
 15799 8aae 01       		.byte	0x1
 15800 8aaf 04       		.uleb128 0x4
 15801 8ab0 4546495F 		.ascii "EFI_PCI_IO_PROTOCOL_GUID { 0x4cf5b200, 0x68b8, 0x4ca5, {0x9e, 0xec, 0xb2, 0x3e, 0x3f, 0x50
 15801      5043495F 
 15801      494F5F50 
 15801      524F544F 
 15801      434F4C5F 
 15802 8b1a 01       		.byte	0x1
 15803 8b1b 07       		.uleb128 0x7
 15804 8b1c 4546495F 		.ascii "EFI_PCI_ROOT_BRIDGE_IO_PROTOCOL_GUID { 0x2f707ebb, 0x4a1a, 0x11d4, {0x9a, 0x38, 0x00, 0x90
 15804      5043495F 
 15804      524F4F54 
 15804      5F425249 
 15804      4447455F 
 15805 8b92 01       		.byte	0x1
 15806 8b93 1D       		.uleb128 0x1d
 15807 8b94 4546495F 		.ascii "EFI_PCI_IO_PASS_THROUGH_BAR 0xff\0"
 15807      5043495F 
 15807      494F5F50 
 15807      4153535F 
 15807      5448524F 
 15808 8bb5 01       		.byte	0x1
 15809 8bb6 F401     		.uleb128 0xf4
 15810 8bb8 4546495F 		.ascii "EFI_PCI_ATTRIBUTE_ISA_MOTHERBOARD_IO 0x0001\0"
 15810      5043495F 
 15810      41545452 
 15810      49425554 
 15810      455F4953 
 15811 8be4 01       		.byte	0x1
 15812 8be5 F501     		.uleb128 0xf5
 15813 8be7 4546495F 		.ascii "EFI_PCI_ATTRIBUTE_ISA_IO 0x0002\0"
 15813      5043495F 
 15813      41545452 
 15813      49425554 
 15813      455F4953 
 15814 8c07 01       		.byte	0x1
 15815 8c08 F601     		.uleb128 0xf6
 15816 8c0a 4546495F 		.ascii "EFI_PCI_ATTRIBUTE_VGA_PALETTE_IO 0x0004\0"
 15816      5043495F 
 15816      41545452 
 15816      49425554 
 15816      455F5647 
 15817 8c32 01       		.byte	0x1
 15818 8c33 F701     		.uleb128 0xf7
 15819 8c35 4546495F 		.ascii "EFI_PCI_ATTRIBUTE_VGA_MEMORY 0x0008\0"
 15819      5043495F 
 15819      41545452 
 15819      49425554 
 15819      455F5647 
 15820 8c59 01       		.byte	0x1
 15821 8c5a F801     		.uleb128 0xf8
 15822 8c5c 4546495F 		.ascii "EFI_PCI_ATTRIBUTE_VGA_IO 0x0010\0"
 15822      5043495F 
 15822      41545452 
 15822      49425554 
 15822      455F5647 
 15823 8c7c 01       		.byte	0x1
 15824 8c7d F901     		.uleb128 0xf9
 15825 8c7f 4546495F 		.ascii "EFI_PCI_ATTRIBUTE_IDE_PRIMARY_IO 0x0020\0"
 15825      5043495F 
 15825      41545452 
 15825      49425554 
 15825      455F4944 
 15826 8ca7 01       		.byte	0x1
 15827 8ca8 FA01     		.uleb128 0xfa
 15828 8caa 4546495F 		.ascii "EFI_PCI_ATTRIBUTE_IDE_SECONDARY_IO 0x0040\0"
 15828      5043495F 
 15828      41545452 
 15828      49425554 
 15828      455F4944 
 15829 8cd4 01       		.byte	0x1
 15830 8cd5 FB01     		.uleb128 0xfb
 15831 8cd7 4546495F 		.ascii "EFI_PCI_ATTRIBUTE_MEMORY_WRITE_COMBINE 0x0080\0"
 15831      5043495F 
 15831      41545452 
 15831      49425554 
 15831      455F4D45 
 15832 8d05 01       		.byte	0x1
 15833 8d06 FC01     		.uleb128 0xfc
 15834 8d08 4546495F 		.ascii "EFI_PCI_ATTRIBUTE_IO 0x0100\0"
 15834      5043495F 
 15834      41545452 
 15834      49425554 
 15834      455F494F 
 15835 8d24 01       		.byte	0x1
 15836 8d25 FD01     		.uleb128 0xfd
 15837 8d27 4546495F 		.ascii "EFI_PCI_ATTRIBUTE_MEMORY 0x0200\0"
 15837      5043495F 
 15837      41545452 
 15837      49425554 
 15837      455F4D45 
 15838 8d47 01       		.byte	0x1
 15839 8d48 FE01     		.uleb128 0xfe
 15840 8d4a 4546495F 		.ascii "EFI_PCI_ATTRIBUTE_BUS_MASTER 0x0400\0"
 15840      5043495F 
 15840      41545452 
 15840      49425554 
 15840      455F4255 
 15841 8d6e 01       		.byte	0x1
 15842 8d6f FF01     		.uleb128 0xff
 15843 8d71 4546495F 		.ascii "EFI_PCI_ATTRIBUTE_MEMORY_CACHED 0x0800\0"
 15843      5043495F 
 15843      41545452 
 15843      49425554 
 15843      455F4D45 
 15844 8d98 01       		.byte	0x1
 15845 8d99 8002     		.uleb128 0x100
 15846 8d9b 4546495F 		.ascii "EFI_PCI_ATTRIBUTE_MEMORY_DISABLE 0x1000\0"
 15846      5043495F 
 15846      41545452 
 15846      49425554 
 15846      455F4D45 
 15847 8dc3 01       		.byte	0x1
 15848 8dc4 8102     		.uleb128 0x101
 15849 8dc6 4546495F 		.ascii "EFI_PCI_ATTRIBUTE_EMBEDDED_DEVICE 0x2000\0"
 15849      5043495F 
 15849      41545452 
 15849      49425554 
 15849      455F454D 
 15850 8def 01       		.byte	0x1
 15851 8df0 8202     		.uleb128 0x102
 15852 8df2 4546495F 		.ascii "EFI_PCI_ATTRIBUTE_EMBEDDED_ROM 0x4000\0"
 15852      5043495F 
 15852      41545452 
 15852      49425554 
 15852      455F454D 
 15853 8e18 01       		.byte	0x1
 15854 8e19 8302     		.uleb128 0x103
 15855 8e1b 4546495F 		.ascii "EFI_PCI_ATTRIBUTE_DUAL_ADDRESS_CYCLE 0x8000\0"
 15855      5043495F 
 15855      41545452 
 15855      49425554 
 15855      455F4455 
 15856 8e47 01       		.byte	0x1
 15857 8e48 8402     		.uleb128 0x104
 15858 8e4a 4546495F 		.ascii "EFI_PCI_ATTRIBUTE_ISA_IO_16 0x10000\0"
 15858      5043495F 
 15858      41545452 
 15858      49425554 
 15858      455F4953 
 15859 8e6e 01       		.byte	0x1
 15860 8e6f 8502     		.uleb128 0x105
 15861 8e71 4546495F 		.ascii "EFI_PCI_ATTRIBUTE_VGA_PALETTE_IO_16 0x20000\0"
 15861      5043495F 
 15861      41545452 
 15861      49425554 
 15861      455F5647 
 15862 8e9d 01       		.byte	0x1
 15863 8e9e 8602     		.uleb128 0x106
 15864 8ea0 4546495F 		.ascii "EFI_PCI_ATTRIBUTE_VGA_IO_16 0x40000\0"
 15864      5043495F 
 15864      41545452 
 15864      49425554 
 15864      455F5647 
 15865 8ec4 01       		.byte	0x1
 15866 8ec5 8802     		.uleb128 0x108
 15867 8ec7 4546495F 		.ascii "EFI_PCI_IO_ATTRIBUTE_ISA_MOTHERBOARD_IO EFI_PCI_ATTRIBUTE_ISA_MOTHERBOARD_IO\0"
 15867      5043495F 
 15867      494F5F41 
 15867      54545249 
 15867      42555445 
 15868 8f14 01       		.byte	0x1
 15869 8f15 8902     		.uleb128 0x109
 15870 8f17 4546495F 		.ascii "EFI_PCI_IO_ATTRIBUTE_ISA_IO EFI_PCI_ATTRIBUTE_ISA_IO\0"
 15870      5043495F 
 15870      494F5F41 
 15870      54545249 
 15870      42555445 
 15871 8f4c 01       		.byte	0x1
 15872 8f4d 8A02     		.uleb128 0x10a
 15873 8f4f 4546495F 		.ascii "EFI_PCI_IO_ATTRIBUTE_VGA_PALETTE_IO EFI_PCI_ATTRIBUTE_VGA_PALETTE_IO\0"
 15873      5043495F 
 15873      494F5F41 
 15873      54545249 
 15873      42555445 
 15874 8f94 01       		.byte	0x1
 15875 8f95 8B02     		.uleb128 0x10b
 15876 8f97 4546495F 		.ascii "EFI_PCI_IO_ATTRIBUTE_VGA_MEMORY EFI_PCI_ATTRIBUTE_VGA_MEMORY\0"
 15876      5043495F 
 15876      494F5F41 
 15876      54545249 
 15876      42555445 
 15877 8fd4 01       		.byte	0x1
 15878 8fd5 8C02     		.uleb128 0x10c
 15879 8fd7 4546495F 		.ascii "EFI_PCI_IO_ATTRIBUTE_VGA_IO EFI_PCI_ATTRIBUTE_VGA_IO\0"
 15879      5043495F 
 15879      494F5F41 
 15879      54545249 
 15879      42555445 
 15880 900c 01       		.byte	0x1
 15881 900d 8D02     		.uleb128 0x10d
 15882 900f 4546495F 		.ascii "EFI_PCI_IO_ATTRIBUTE_IDE_PRIMARY_IO EFI_PCI_ATTRIBUTE_IDE_PRIMARY_IO\0"
 15882      5043495F 
 15882      494F5F41 
 15882      54545249 
 15882      42555445 
 15883 9054 01       		.byte	0x1
 15884 9055 8E02     		.uleb128 0x10e
 15885 9057 4546495F 		.ascii "EFI_PCI_IO_ATTRIBUTE_IDE_SECONDARY_IO EFI_PCI_ATTRIBUTE_IDE_SECONDARY_IO\0"
 15885      5043495F 
 15885      494F5F41 
 15885      54545249 
 15885      42555445 
 15886 90a0 01       		.byte	0x1
 15887 90a1 8F02     		.uleb128 0x10f
 15888 90a3 4546495F 		.ascii "EFI_PCI_IO_ATTRIBUTE_MEMORY_WRITE_COMBINE EFI_PCI_ATTRIBUTE_MEMORY_WRITE_COMBINE\0"
 15888      5043495F 
 15888      494F5F41 
 15888      54545249 
 15888      42555445 
 15889 90f4 01       		.byte	0x1
 15890 90f5 9002     		.uleb128 0x110
 15891 90f7 4546495F 		.ascii "EFI_PCI_IO_ATTRIBUTE_IO EFI_PCI_ATTRIBUTE_IO\0"
 15891      5043495F 
 15891      494F5F41 
 15891      54545249 
 15891      42555445 
 15892 9124 01       		.byte	0x1
 15893 9125 9102     		.uleb128 0x111
 15894 9127 4546495F 		.ascii "EFI_PCI_IO_ATTRIBUTE_MEMORY EFI_PCI_ATTRIBUTE_MEMORY\0"
 15894      5043495F 
 15894      494F5F41 
 15894      54545249 
 15894      42555445 
 15895 915c 01       		.byte	0x1
 15896 915d 9202     		.uleb128 0x112
 15897 915f 4546495F 		.ascii "EFI_PCI_IO_ATTRIBUTE_BUS_MASTER EFI_PCI_ATTRIBUTE_BUS_MASTER\0"
 15897      5043495F 
 15897      494F5F41 
 15897      54545249 
 15897      42555445 
 15898 919c 01       		.byte	0x1
 15899 919d 9302     		.uleb128 0x113
 15900 919f 4546495F 		.ascii "EFI_PCI_IO_ATTRIBUTE_MEMORY_CACHED EFI_PCI_ATTRIBUTE_MEMORY_CACHED\0"
 15900      5043495F 
 15900      494F5F41 
 15900      54545249 
 15900      42555445 
 15901 91e2 01       		.byte	0x1
 15902 91e3 9402     		.uleb128 0x114
 15903 91e5 4546495F 		.ascii "EFI_PCI_IO_ATTRIBUTE_MEMORY_DISABLE EFI_PCI_ATTRIBUTE_MEMORY_DISABLE\0"
 15903      5043495F 
 15903      494F5F41 
 15903      54545249 
 15903      42555445 
 15904 922a 01       		.byte	0x1
 15905 922b 9502     		.uleb128 0x115
 15906 922d 4546495F 		.ascii "EFI_PCI_IO_ATTRIBUTE_EMBEDDED_DEVICE EFI_PCI_ATTRIBUTE_EMBEDDED_DEVICE\0"
 15906      5043495F 
 15906      494F5F41 
 15906      54545249 
 15906      42555445 
 15907 9274 01       		.byte	0x1
 15908 9275 9602     		.uleb128 0x116
 15909 9277 4546495F 		.ascii "EFI_PCI_IO_ATTRIBUTE_EMBEDDED_ROM EFI_PCI_ATTRIBUTE_EMBEDDED_ROM\0"
 15909      5043495F 
 15909      494F5F41 
 15909      54545249 
 15909      42555445 
 15910 92b8 01       		.byte	0x1
 15911 92b9 9702     		.uleb128 0x117
 15912 92bb 4546495F 		.ascii "EFI_PCI_IO_ATTRIBUTE_DUAL_ADDRESS_CYCLE EFI_PCI_ATTRIBUTE_DUAL_ADDRESS_CYCLE\0"
 15912      5043495F 
 15912      494F5F41 
 15912      54545249 
 15912      42555445 
 15913 9308 01       		.byte	0x1
 15914 9309 9802     		.uleb128 0x118
 15915 930b 4546495F 		.ascii "EFI_PCI_IO_ATTRIBUTE_ISA_IO_16 EFI_PCI_ATTRIBUTE_ISA_IO_16\0"
 15915      5043495F 
 15915      494F5F41 
 15915      54545249 
 15915      42555445 
 15916 9346 01       		.byte	0x1
 15917 9347 9902     		.uleb128 0x119
 15918 9349 4546495F 		.ascii "EFI_PCI_IO_ATTRIBUTE_VGA_PALETTE_IO_16 EFI_PCI_ATTRIBUTE_VGA_PALETTE_IO_16\0"
 15918      5043495F 
 15918      494F5F41 
 15918      54545249 
 15918      42555445 
 15919 9394 01       		.byte	0x1
 15920 9395 9A02     		.uleb128 0x11a
 15921 9397 4546495F 		.ascii "EFI_PCI_IO_ATTRIBUTE_VGA_IO_16 EFI_PCI_ATTRIBUTE_VGA_IO_16\0"
 15921      5043495F 
 15921      494F5F41 
 15921      54545249 
 15921      42555445 
 15922 93d2 01       		.byte	0x1
 15923 93d3 9C02     		.uleb128 0x11c
 15924 93d5 4546495F 		.ascii "EFI_PCI_ATTRIBUTE_VALID_FOR_ALLOCATE_BUFFER (EFI_PCI_ATTRIBUTE_MEMORY_WRITE_COMBINE | EFI_
 15924      5043495F 
 15924      41545452 
 15924      49425554 
 15924      455F5641 
 15925 9473 01       		.byte	0x1
 15926 9474 9F02     		.uleb128 0x11f
 15927 9476 4546495F 		.ascii "EFI_PCI_ATTRIBUTE_INVALID_FOR_ALLOCATE_BUFFER (~EFI_PCI_ATTRIBUTE_VALID_FOR_ALLOCATE_BUFFE
 15927      5043495F 
 15927      41545452 
 15927      49425554 
 15927      455F494E 
 15928 94d3 04       		.byte	0x4
 15929 94d4 03       		.byte	0x3
 15930 94d5 45       		.uleb128 0x45
 15931 94d6 07       		.uleb128 0x7
 15932 94d7 01       		.byte	0x1
 15933 94d8 02       		.uleb128 0x2
 15934 94d9 5F454649 		.ascii "_EFI_PROT_H \0"
 15934      5F50524F 
 15934      545F4820 
 15934      00
 15935 94e6 01       		.byte	0x1
 15936 94e7 19       		.uleb128 0x19
 15937 94e8 4546495F 		.ascii "EFI_FPSWA_PROTOCOL_GUID { 0xc41b6531, 0x97b9, 0x11d3, {0x9a, 0x29, 0x0, 0x90, 0x27, 0x3f, 
 15937      46505357 
 15937      415F5052 
 15937      4F544F43 
 15937      4F4C5F47 
 15938 9550 01       		.byte	0x1
 15939 9551 1B       		.uleb128 0x1b
 15940 9552 46505357 		.ascii "FPSWA_PROTOCOL EFI_FPSWA_PROTOCOL_GUID\0"
 15940      415F5052 
 15940      4F544F43 
 15940      4F4C2045 
 15940      46495F46 
 15941 9579 01       		.byte	0x1
 15942 957a 21       		.uleb128 0x21
 15943 957b 4546495F 		.ascii "EFI_DEVICE_PATH_PROTOCOL_GUID { 0x9576e91, 0x6d3f, 0x11d2, {0x8e, 0x39, 0x0, 0xa0, 0xc9, 0
 15943      44455649 
 15943      43455F50 
 15943      4154485F 
 15943      50524F54 
 15944 95e8 01       		.byte	0x1
 15945 95e9 23       		.uleb128 0x23
 15946 95ea 44455649 		.ascii "DEVICE_PATH_PROTOCOL EFI_DEVICE_PATH_PROTOCOL_GUID\0"
 15946      43455F50 
 15946      4154485F 
 15946      50524F54 
 15946      4F434F4C 
 15947 961d 01       		.byte	0x1
 15948 961e 2A       		.uleb128 0x2a
 15949 961f 4546495F 		.ascii "EFI_BLOCK_IO_PROTOCOL_GUID { 0x964e5b21, 0x6459, 0x11d2, {0x8e, 0x39, 0x0, 0xa0, 0xc9, 0x6
 15949      424C4F43 
 15949      4B5F494F 
 15949      5F50524F 
 15949      544F434F 
 15950 968a 01       		.byte	0x1
 15951 968b 2C       		.uleb128 0x2c
 15952 968c 424C4F43 		.ascii "BLOCK_IO_PROTOCOL EFI_BLOCK_IO_PROTOCOL_GUID\0"
 15952      4B5F494F 
 15952      5F50524F 
 15952      544F434F 
 15952      4C204546 
 15953 96b9 01       		.byte	0x1
 15954 96ba 2E       		.uleb128 0x2e
 15955 96bb 4546495F 		.ascii "EFI_BLOCK_IO_PROTOCOL_REVISION 0x00010000\0"
 15955      424C4F43 
 15955      4B5F494F 
 15955      5F50524F 
 15955      544F434F 
 15956 96e5 01       		.byte	0x1
 15957 96e6 2F       		.uleb128 0x2f
 15958 96e7 4546495F 		.ascii "EFI_BLOCK_IO_PROTOCOL_REVISION2 0x00020001\0"
 15958      424C4F43 
 15958      4B5F494F 
 15958      5F50524F 
 15958      544F434F 
 15959 9712 01       		.byte	0x1
 15960 9713 30       		.uleb128 0x30
 15961 9714 4546495F 		.ascii "EFI_BLOCK_IO_PROTOCOL_REVISION3 ((2<<16) | 31)\0"
 15961      424C4F43 
 15961      4B5F494F 
 15961      5F50524F 
 15961      544F434F 
 15962 9743 01       		.byte	0x1
 15963 9744 31       		.uleb128 0x31
 15964 9745 4546495F 		.ascii "EFI_BLOCK_IO_INTERFACE_REVISION EFI_BLOCK_IO_PROTOCOL_REVISION\0"
 15964      424C4F43 
 15964      4B5F494F 
 15964      5F494E54 
 15964      45524641 
 15965 9784 01       		.byte	0x1
 15966 9785 32       		.uleb128 0x32
 15967 9786 4546495F 		.ascii "EFI_BLOCK_IO_INTERFACE_REVISION2 EFI_BLOCK_IO_PROTOCOL_REVISION2\0"
 15967      424C4F43 
 15967      4B5F494F 
 15967      5F494E54 
 15967      45524641 
 15968 97c7 01       		.byte	0x1
 15969 97c8 33       		.uleb128 0x33
 15970 97c9 4546495F 		.ascii "EFI_BLOCK_IO_INTERFACE_REVISION3 EFI_BLOCK_IO_PROTOCOL_REVISION3\0"
 15970      424C4F43 
 15970      4B5F494F 
 15970      5F494E54 
 15970      45524641 
 15971 980a 01       		.byte	0x1
 15972 980b 8001     		.uleb128 0x80
 15973 980d 4546495F 		.ascii "EFI_BLOCK_IO2_PROTOCOL_GUID { 0xa77b2472, 0xe282, 0x4e9f, {0xa2, 0x45, 0xc2, 0xc0, 0xe2, 0
 15973      424C4F43 
 15973      4B5F494F 
 15973      325F5052 
 15973      4F544F43 
 15974 987a 01       		.byte	0x1
 15975 987b BA01     		.uleb128 0xba
 15976 987d 4546495F 		.ascii "EFI_DISK_IO_PROTOCOL_GUID { 0xce345171, 0xba0b, 0x11d2, {0x8e, 0x4f, 0x0, 0xa0, 0xc9, 0x69
 15976      4449534B 
 15976      5F494F5F 
 15976      50524F54 
 15976      4F434F4C 
 15977 98e7 01       		.byte	0x1
 15978 98e8 BC01     		.uleb128 0xbc
 15979 98ea 4449534B 		.ascii "DISK_IO_PROTOCOL EFI_DISK_IO_PROTOCOL_GUID\0"
 15979      5F494F5F 
 15979      50524F54 
 15979      4F434F4C 
 15979      20454649 
 15980 9915 01       		.byte	0x1
 15981 9916 BE01     		.uleb128 0xbe
 15982 9918 4546495F 		.ascii "EFI_DISK_IO_PROTOCOL_REVISION 0x00010000\0"
 15982      4449534B 
 15982      5F494F5F 
 15982      50524F54 
 15982      4F434F4C 
 15983 9941 01       		.byte	0x1
 15984 9942 BF01     		.uleb128 0xbf
 15985 9944 4546495F 		.ascii "EFI_DISK_IO_INTERFACE_REVISION EFI_DISK_IO_PROTOCOL_REVISION\0"
 15985      4449534B 
 15985      5F494F5F 
 15985      494E5445 
 15985      52464143 
 15986 9981 01       		.byte	0x1
 15987 9982 E301     		.uleb128 0xe3
 15988 9984 4546495F 		.ascii "EFI_DISK_IO2_PROTOCOL_GUID { 0x151c8eae, 0x7f2c, 0x472c, {0x9e, 0x54, 0x98, 0x28, 0x19, 0x
 15988      4449534B 
 15988      5F494F32 
 15988      5F50524F 
 15988      544F434F 
 15989 99f0 01       		.byte	0x1
 15990 99f1 E601     		.uleb128 0xe6
 15991 99f3 4546495F 		.ascii "EFI_DISK_IO2_PROTOCOL_REVISION 0x00020000\0"
 15991      4449534B 
 15991      5F494F32 
 15991      5F50524F 
 15991      544F434F 
 15992 9a1d 01       		.byte	0x1
 15993 9a1e 9E02     		.uleb128 0x11e
 15994 9a20 4546495F 		.ascii "EFI_SIMPLE_FILE_SYSTEM_PROTOCOL_GUID { 0x964e5b22, 0x6459, 0x11d2, {0x8e, 0x39, 0x0, 0xa0,
 15994      53494D50 
 15994      4C455F46 
 15994      494C455F 
 15994      53595354 
 15995 9a95 01       		.byte	0x1
 15996 9a96 A002     		.uleb128 0x120
 15997 9a98 53494D50 		.ascii "SIMPLE_FILE_SYSTEM_PROTOCOL EFI_SIMPLE_FILE_SYSTEM_PROTOCOL_GUID\0"
 15997      4C455F46 
 15997      494C455F 
 15997      53595354 
 15997      454D5F50 
 15998 9ad9 01       		.byte	0x1
 15999 9ada AC02     		.uleb128 0x12c
 16000 9adc 4546495F 		.ascii "EFI_SIMPLE_FILE_SYSTEM_PROTOCOL_REVISION 0x00010000\0"
 16000      53494D50 
 16000      4C455F46 
 16000      494C455F 
 16000      53595354 
 16001 9b10 01       		.byte	0x1
 16002 9b11 AD02     		.uleb128 0x12d
 16003 9b13 4546495F 		.ascii "EFI_FILE_IO_INTERFACE_REVISION EFI_SIMPLE_FILE_SYSTEM_PROTOCOL_REVISION\0"
 16003      46494C45 
 16003      5F494F5F 
 16003      494E5445 
 16003      52464143 
 16004 9b5b 01       		.byte	0x1
 16005 9b5c C602     		.uleb128 0x146
 16006 9b5e 4546495F 		.ascii "EFI_FILE_MODE_READ 0x0000000000000001\0"
 16006      46494C45 
 16006      5F4D4F44 
 16006      455F5245 
 16006      41442030 
 16007 9b84 01       		.byte	0x1
 16008 9b85 C702     		.uleb128 0x147
 16009 9b87 4546495F 		.ascii "EFI_FILE_MODE_WRITE 0x0000000000000002\0"
 16009      46494C45 
 16009      5F4D4F44 
 16009      455F5752 
 16009      49544520 
 16010 9bae 01       		.byte	0x1
 16011 9baf C802     		.uleb128 0x148
 16012 9bb1 4546495F 		.ascii "EFI_FILE_MODE_CREATE 0x8000000000000000\0"
 16012      46494C45 
 16012      5F4D4F44 
 16012      455F4352 
 16012      45415445 
 16013 9bd9 01       		.byte	0x1
 16014 9bda CB02     		.uleb128 0x14b
 16015 9bdc 4546495F 		.ascii "EFI_FILE_READ_ONLY 0x0000000000000001\0"
 16015      46494C45 
 16015      5F524541 
 16015      445F4F4E 
 16015      4C592030 
 16016 9c02 01       		.byte	0x1
 16017 9c03 CC02     		.uleb128 0x14c
 16018 9c05 4546495F 		.ascii "EFI_FILE_HIDDEN 0x0000000000000002\0"
 16018      46494C45 
 16018      5F484944 
 16018      44454E20 
 16018      30783030 
 16019 9c28 01       		.byte	0x1
 16020 9c29 CD02     		.uleb128 0x14d
 16021 9c2b 4546495F 		.ascii "EFI_FILE_SYSTEM 0x0000000000000004\0"
 16021      46494C45 
 16021      5F535953 
 16021      54454D20 
 16021      30783030 
 16022 9c4e 01       		.byte	0x1
 16023 9c4f CE02     		.uleb128 0x14e
 16024 9c51 4546495F 		.ascii "EFI_FILE_RESERVIED 0x0000000000000008\0"
 16024      46494C45 
 16024      5F524553 
 16024      45525649 
 16024      45442030 
 16025 9c77 01       		.byte	0x1
 16026 9c78 CF02     		.uleb128 0x14f
 16027 9c7a 4546495F 		.ascii "EFI_FILE_DIRECTORY 0x0000000000000010\0"
 16027      46494C45 
 16027      5F444952 
 16027      4543544F 
 16027      52592030 
 16028 9ca0 01       		.byte	0x1
 16029 9ca1 D002     		.uleb128 0x150
 16030 9ca3 4546495F 		.ascii "EFI_FILE_ARCHIVE 0x0000000000000020\0"
 16030      46494C45 
 16030      5F415243 
 16030      48495645 
 16030      20307830 
 16031 9cc7 01       		.byte	0x1
 16032 9cc8 D102     		.uleb128 0x151
 16033 9cca 4546495F 		.ascii "EFI_FILE_VALID_ATTR 0x0000000000000037\0"
 16033      46494C45 
 16033      5F56414C 
 16033      49445F41 
 16033      54545220 
 16034 9cf1 01       		.byte	0x1
 16035 9cf2 BC03     		.uleb128 0x1bc
 16036 9cf4 4546495F 		.ascii "EFI_FILE_PROTOCOL_REVISION 0x00010000\0"
 16036      46494C45 
 16036      5F50524F 
 16036      544F434F 
 16036      4C5F5245 
 16037 9d1a 01       		.byte	0x1
 16038 9d1b BD03     		.uleb128 0x1bd
 16039 9d1d 4546495F 		.ascii "EFI_FILE_PROTOCOL_REVISION2 0x00020000\0"
 16039      46494C45 
 16039      5F50524F 
 16039      544F434F 
 16039      4C5F5245 
 16040 9d44 01       		.byte	0x1
 16041 9d45 BE03     		.uleb128 0x1be
 16042 9d47 4546495F 		.ascii "EFI_FILE_PROTOCOL_LATEST_REVISION EFI_FILE_PROTOCOL_REVISION2\0"
 16042      46494C45 
 16042      5F50524F 
 16042      544F434F 
 16042      4C5F4C41 
 16043 9d85 01       		.byte	0x1
 16044 9d86 BF03     		.uleb128 0x1bf
 16045 9d88 4546495F 		.ascii "EFI_FILE_HANDLE_REVISION EFI_FILE_PROTOCOL_REVISION\0"
 16045      46494C45 
 16045      5F48414E 
 16045      444C455F 
 16045      52455649 
 16046 9dbc 01       		.byte	0x1
 16047 9dbd DA03     		.uleb128 0x1da
 16048 9dbf 4546495F 		.ascii "EFI_FILE_INFO_ID { 0x9576e92, 0x6d3f, 0x11d2, {0x8e, 0x39, 0x0, 0xa0, 0xc9, 0x69, 0x72, 0x
 16048      46494C45 
 16048      5F494E46 
 16048      4F5F4944 
 16048      207B2030 
 16049 9e1f 01       		.byte	0x1
 16050 9e20 F003     		.uleb128 0x1f0
 16051 9e22 53495A45 		.ascii "SIZE_OF_EFI_FILE_INFO EFI_FIELD_OFFSET(EFI_FILE_INFO,FileName)\0"
 16051      5F4F465F 
 16051      4546495F 
 16051      46494C45 
 16051      5F494E46 
 16052 9e61 01       		.byte	0x1
 16053 9e62 F203     		.uleb128 0x1f2
 16054 9e64 4546495F 		.ascii "EFI_FILE_SYSTEM_INFO_ID { 0x9576e93, 0x6d3f, 0x11d2, {0x8e, 0x39, 0x0, 0xa0, 0xc9, 0x69, 0
 16054      46494C45 
 16054      5F535953 
 16054      54454D5F 
 16054      494E464F 
 16055 9ecb 01       		.byte	0x1
 16056 9ecc 8604     		.uleb128 0x206
 16057 9ece 53495A45 		.ascii "SIZE_OF_EFI_FILE_SYSTEM_INFO EFI_FIELD_OFFSET(EFI_FILE_SYSTEM_INFO,VolumeLabel)\0"
 16057      5F4F465F 
 16057      4546495F 
 16057      46494C45 
 16057      5F535953 
 16058 9f1e 01       		.byte	0x1
 16059 9f1f 8804     		.uleb128 0x208
 16060 9f21 4546495F 		.ascii "EFI_FILE_SYSTEM_VOLUME_LABEL_ID { 0xDB47D7D3,0xFE81, 0x11d3, {0x9A, 0x35, 0x00, 0x90, 0x27
 16060      46494C45 
 16060      5F535953 
 16060      54454D5F 
 16060      564F4C55 
 16061 9f91 01       		.byte	0x1
 16062 9f92 8F04     		.uleb128 0x20f
 16063 9f94 53495A45 		.ascii "SIZE_OF_EFI_FILE_SYSTEM_VOLUME_LABEL_INFO EFI_FIELD_OFFSET(EFI_FILE_SYSTEM_VOLUME_LABEL,Vo
 16063      5F4F465F 
 16063      4546495F 
 16063      46494C45 
 16063      5F535953 
 16064 9ff9 01       		.byte	0x1
 16065 9ffa 9404     		.uleb128 0x214
 16066 9ffc 4546495F 		.ascii "EFI_FILE_SYSTEM_VOLUME_LABEL_INFO_ID EFI_FILE_SYSTEM_VOLUME_LABEL_ID\0"
 16066      46494C45 
 16066      5F535953 
 16066      54454D5F 
 16066      564F4C55 
 16067 a041 01       		.byte	0x1
 16068 a042 9504     		.uleb128 0x215
 16069 a044 4546495F 		.ascii "EFI_FILE_SYSTEM_VOLUME_LABEL_INFO EFI_FILE_SYSTEM_VOLUME_LABEL\0"
 16069      46494C45 
 16069      5F535953 
 16069      54454D5F 
 16069      564F4C55 
 16070 a083 01       		.byte	0x1
 16071 a084 9C04     		.uleb128 0x21c
 16072 a086 4546495F 		.ascii "EFI_LOAD_FILE_PROTOCOL_GUID { 0x56EC3091, 0x954C, 0x11d2, {0x8E, 0x3F, 0x00, 0xA0, 0xC9, 0
 16072      4C4F4144 
 16072      5F46494C 
 16072      455F5052 
 16072      4F544F43 
 16073 a0f3 01       		.byte	0x1
 16074 a0f4 9E04     		.uleb128 0x21e
 16075 a0f6 4C4F4144 		.ascii "LOAD_FILE_PROTOCOL EFI_LOAD_FILE_PROTOCOL_GUID\0"
 16075      5F46494C 
 16075      455F5052 
 16075      4F544F43 
 16075      4F4C2045 
 16076 a125 01       		.byte	0x1
 16077 a126 B704     		.uleb128 0x237
 16078 a128 4546495F 		.ascii "EFI_DEVICE_IO_PROTOCOL_GUID { 0xaf6ac311, 0x84c3, 0x11d2, {0x8e, 0x3c, 0x00, 0xa0, 0xc9, 0
 16078      44455649 
 16078      43455F49 
 16078      4F5F5052 
 16078      4F544F43 
 16079 a195 01       		.byte	0x1
 16080 a196 B904     		.uleb128 0x239
 16081 a198 44455649 		.ascii "DEVICE_IO_PROTOCOL EFI_DEVICE_IO_PROTOCOL_GUID\0"
 16081      43455F49 
 16081      4F5F5052 
 16081      4F544F43 
 16081      4F4C2045 
 16082 a1c7 01       		.byte	0x1
 16083 a1c8 CB04     		.uleb128 0x24b
 16084 a1ca 4546495F 		.ascii "EFI_PCI_ADDRESS(_bus,_dev,_func) ( (UINT64) ( (((UINTN)_bus) << 24) + (((UINTN)_dev) << 16
 16084      5043495F 
 16084      41444452 
 16084      45535328 
 16084      5F627573 
 16085 a242 01       		.byte	0x1
 16086 a243 A905     		.uleb128 0x2a9
 16087 a245 4546495F 		.ascii "EFI_UNICODE_COLLATION_PROTOCOL_GUID { 0x1d85cd7f, 0xf43d, 0x11d2, {0x9a, 0xc, 0x0, 0x90, 0
 16087      554E4943 
 16087      4F44455F 
 16087      434F4C4C 
 16087      4154494F 
 16088 a2b8 01       		.byte	0x1
 16089 a2b9 AB05     		.uleb128 0x2ab
 16090 a2bb 554E4943 		.ascii "UNICODE_COLLATION_PROTOCOL EFI_UNICODE_COLLATION_PROTOCOL_GUID\0"
 16090      4F44455F 
 16090      434F4C4C 
 16090      4154494F 
 16090      4E5F5052 
 16091 a2fa 01       		.byte	0x1
 16092 a2fb AD05     		.uleb128 0x2ad
 16093 a2fd 4546495F 		.ascii "EFI_UNICODE_BYTE_ORDER_MARK (CHAR16)(0xfeff)\0"
 16093      554E4943 
 16093      4F44455F 
 16093      42595445 
 16093      5F4F5244 
 16094 a32a 01       		.byte	0x1
 16095 a32b AE05     		.uleb128 0x2ae
 16096 a32d 554E4943 		.ascii "UNICODE_BYTE_ORDER_MARK EFI_UNICODE_BYTE_ORDER_MARK\0"
 16096      4F44455F 
 16096      42595445 
 16096      5F4F5244 
 16096      45525F4D 
 16097 a361 01       		.byte	0x1
 16098 a362 E505     		.uleb128 0x2e5
 16099 a364 4546495F 		.ascii "EFI_HASH_PROTOCOL_GUID { 0xC5184932, 0xDBA5, 0x46DB, { 0xA5, 0xBA, 0xCC, 0x0B, 0xDA, 0x9C,
 16099      48415348 
 16099      5F50524F 
 16099      544F434F 
 16099      4C5F4755 
 16100 a3ce 01       		.byte	0x1
 16101 a3cf E705     		.uleb128 0x2e7
 16102 a3d1 48415348 		.ascii "HASH_PROTOCOL EFI_HASH_PROTOCOL_GUID\0"
 16102      5F50524F 
 16102      544F434F 
 16102      4C204546 
 16102      495F4841 
 16103 a3f6 01       		.byte	0x1
 16104 a3f7 E905     		.uleb128 0x2e9
 16105 a3f9 4546495F 		.ascii "EFI_HASH_ALGORITHM_SHA1_GUID { 0x2AE9D80F, 0x3FB2, 0x4095, { 0xB7, 0xB1, 0xE9, 0x31, 0x57,
 16105      48415348 
 16105      5F414C47 
 16105      4F524954 
 16105      484D5F53 
 16106 a469 01       		.byte	0x1
 16107 a46a EB05     		.uleb128 0x2eb
 16108 a46c 4546495F 		.ascii "EFI_HASH_ALGORITHM_SHA1 EFI_HASH_ALGORITHM_SHA1_GUID\0"
 16108      48415348 
 16108      5F414C47 
 16108      4F524954 
 16108      484D5F53 
 16109 a4a1 01       		.byte	0x1
 16110 a4a2 ED05     		.uleb128 0x2ed
 16111 a4a4 4546495F 		.ascii "EFI_HASH_ALGORITHM_SHA224_GUID { 0x8DF01A06, 0x9BD5, 0x4BF7, { 0xB0, 0x21, 0xDB, 0x4F, 0xD
 16111      48415348 
 16111      5F414C47 
 16111      4F524954 
 16111      484D5F53 
 16112 a516 01       		.byte	0x1
 16113 a517 EF05     		.uleb128 0x2ef
 16114 a519 4546495F 		.ascii "EFI_HASH_ALGORITHM_SHA224 EFI_HASH_ALGORITHM_SHA224_GUID\0"
 16114      48415348 
 16114      5F414C47 
 16114      4F524954 
 16114      484D5F53 
 16115 a552 01       		.byte	0x1
 16116 a553 F105     		.uleb128 0x2f1
 16117 a555 4546495F 		.ascii "EFI_HASH_ALGORITHM_SHA256_GUID { 0x51AA59DE, 0xFDF2, 0x4EA3, { 0xBC, 0x63, 0x87, 0x5F, 0xB
 16117      48415348 
 16117      5F414C47 
 16117      4F524954 
 16117      484D5F53 
 16118 a5c7 01       		.byte	0x1
 16119 a5c8 F305     		.uleb128 0x2f3
 16120 a5ca 4546495F 		.ascii "EFI_HASH_ALGORITHM_SHA256 EFI_HASH_ALGORITHM_SHA256_GUID\0"
 16120      48415348 
 16120      5F414C47 
 16120      4F524954 
 16120      484D5F53 
 16121 a603 01       		.byte	0x1
 16122 a604 F505     		.uleb128 0x2f5
 16123 a606 4546495F 		.ascii "EFI_HASH_ALGORITHM_SHA384_GUID { 0xEFA96432, 0xDE33, 0x4DD2, { 0xAE, 0xE6, 0x32, 0x8C, 0x3
 16123      48415348 
 16123      5F414C47 
 16123      4F524954 
 16123      484D5F53 
 16124 a678 01       		.byte	0x1
 16125 a679 F705     		.uleb128 0x2f7
 16126 a67b 4546495F 		.ascii "EFI_HASH_ALGORITHM_SHA384 EFI_HASH_ALGORITHM_SHA384_GUID\0"
 16126      48415348 
 16126      5F414C47 
 16126      4F524954 
 16126      484D5F53 
 16127 a6b4 01       		.byte	0x1
 16128 a6b5 F905     		.uleb128 0x2f9
 16129 a6b7 4546495F 		.ascii "EFI_HASH_ALGORITHM_SHA512_GUID { 0xCAA4381E, 0x750C, 0x4770, { 0xB8, 0x70, 0x7A, 0x23, 0xB
 16129      48415348 
 16129      5F414C47 
 16129      4F524954 
 16129      484D5F53 
 16130 a729 01       		.byte	0x1
 16131 a72a FB05     		.uleb128 0x2fb
 16132 a72c 4546495F 		.ascii "EFI_HASH_ALGORITHM_SHA512 EFI_HASH_ALGORITHM_SHA512_GUID\0"
 16132      48415348 
 16132      5F414C47 
 16132      4F524954 
 16132      484D5F53 
 16133 a765 01       		.byte	0x1
 16134 a766 FD05     		.uleb128 0x2fd
 16135 a768 4546495F 		.ascii "EFI_HASH_ALGORITHM_MD5_GUID { 0x0AF7C79C, 0x65B5, 0x4319, { 0xB0, 0xAE, 0x44, 0xEC, 0x48, 
 16135      48415348 
 16135      5F414C47 
 16135      4F524954 
 16135      484D5F4D 
 16136 a7d7 01       		.byte	0x1
 16137 a7d8 FF05     		.uleb128 0x2ff
 16138 a7da 4546495F 		.ascii "EFI_HASH_ALGORITHM_MD5 EFI_HASH_ALGORITHM_MD5_GUID\0"
 16138      48415348 
 16138      5F414C47 
 16138      4F524954 
 16138      484D5F4D 
 16139 a80d 01       		.byte	0x1
 16140 a80e 8106     		.uleb128 0x301
 16141 a810 4546495F 		.ascii "EFI_HASH_ALGORITHM_SHA1_NOPAD_GUID { 0x24C5DC2F, 0x53E2, 0x40CA, { 0x9E, 0xD6, 0xA5, 0xD9,
 16141      48415348 
 16141      5F414C47 
 16141      4F524954 
 16141      484D5F53 
 16142 a886 01       		.byte	0x1
 16143 a887 8306     		.uleb128 0x303
 16144 a889 4546495F 		.ascii "EFI_HASH_ALGORITHM_SHA1_NOPAD EFI_HASH_ALGORITHM_SHA1_NOPAD_GUID\0"
 16144      48415348 
 16144      5F414C47 
 16144      4F524954 
 16144      484D5F53 
 16145 a8ca 01       		.byte	0x1
 16146 a8cb 8506     		.uleb128 0x305
 16147 a8cd 4546495F 		.ascii "EFI_HASH_ALGORITHM_SHA256_NOPAD_GUID { 0x8628752A, 0x6CB7, 0x4814, { 0x96, 0xFC, 0x24, 0xA
 16147      48415348 
 16147      5F414C47 
 16147      4F524954 
 16147      484D5F53 
 16148 a945 01       		.byte	0x1
 16149 a946 8706     		.uleb128 0x307
 16150 a948 4546495F 		.ascii "EFI_HASH_ALGORITHM_SHA256_NOPAD EFI_HASH_ALGORITHM_SHA256_NOPAD_GUID\0"
 16150      48415348 
 16150      5F414C47 
 16150      4F524954 
 16150      484D5F53 
 16151 a98d 01       		.byte	0x1
 16152 a98e C706     		.uleb128 0x347
 16153 a990 4546495F 		.ascii "EFI_GRAPHICS_OUTPUT_PROTOCOL_GUID { 0x9042a9de, 0x23dc, 0x4a38, {0x96, 0xfb, 0x7a, 0xde, 0
 16153      47524150 
 16153      48494353 
 16153      5F4F5554 
 16153      5055545F 
 16154 aa04 01       		.byte	0x1
 16155 aa05 F307     		.uleb128 0x3f3
 16156 aa07 4546495F 		.ascii "EFI_EDID_DISCOVERED_PROTOCOL_GUID { 0x1C0C34F6, 0xD380, 0x41FA, { 0xA0, 0x49, 0x8a, 0xD0, 
 16156      45444944 
 16156      5F444953 
 16156      434F5645 
 16156      5245445F 
 16157 aa7b 01       		.byte	0x1
 16158 aa7c 8108     		.uleb128 0x401
 16159 aa7e 4546495F 		.ascii "EFI_EDID_ACTIVE_PROTOCOL_GUID { 0xBD8C1056, 0x9F36, 0x44EC, { 0x92, 0xA8, 0xA6, 0x33, 0x7F
 16159      45444944 
 16159      5F414354 
 16159      4956455F 
 16159      50524F54 
 16160 aaee 01       		.byte	0x1
 16161 aaef 8F08     		.uleb128 0x40f
 16162 aaf1 4546495F 		.ascii "EFI_EDID_OVERRIDE_PROTOCOL_GUID { 0x48ECB431, 0xFB72, 0x45C0, { 0xA9, 0x22, 0xF4, 0x58, 0x
 16162      45444944 
 16162      5F4F5645 
 16162      52524944 
 16162      455F5052 
 16163 ab63 01       		.byte	0x1
 16164 ab64 BE08     		.uleb128 0x43e
 16165 ab66 4546495F 		.ascii "EFI_DRIVER_BINDING_PROTOCOL_GUID { 0x18A031AB, 0xB443, 0x4D1A, { 0xA5, 0xC0, 0x0C, 0x09, 0
 16165      44524956 
 16165      45525F42 
 16165      494E4449 
 16165      4E475F50 
 16166 abd9 01       		.byte	0x1
 16167 abda C008     		.uleb128 0x440
 16168 abdc 44524956 		.ascii "DRIVER_BINDING_PROTOCOL EFI_DRIVER_BINDING_PROTOCOL_GUID\0"
 16168      45525F42 
 16168      494E4449 
 16168      4E475F50 
 16168      524F544F 
 16169 ac15 01       		.byte	0x1
 16170 ac16 EA08     		.uleb128 0x46a
 16171 ac18 4546495F 		.ascii "EFI_DRIVER_SUPPORTED EFI_DRIVER_BINDING_PROTOCOL_SUPPORTED\0"
 16171      44524956 
 16171      45525F53 
 16171      5550504F 
 16171      52544544 
 16172 ac53 01       		.byte	0x1
 16173 ac54 EB08     		.uleb128 0x46b
 16174 ac56 4546495F 		.ascii "EFI_DRIVER_START EFI_DRIVER_BINDING_PROTOCOL_START\0"
 16174      44524956 
 16174      45525F53 
 16174      54415254 
 16174      20454649 
 16175 ac89 01       		.byte	0x1
 16176 ac8a EC08     		.uleb128 0x46c
 16177 ac8c 4546495F 		.ascii "EFI_DRIVER_STOP EFI_DRIVER_BINDING_PROTOCOL_STOP\0"
 16177      44524956 
 16177      45525F53 
 16177      544F5020 
 16177      4546495F 
 16178 acbd 01       		.byte	0x1
 16179 acbe F408     		.uleb128 0x474
 16180 acc0 4546495F 		.ascii "EFI_COMPONENT_NAME_PROTOCOL_GUID {0x107A772C, 0xD5E1, 0x11D4, { 0x9A, 0x46, 0x00, 0x90, 0x
 16180      434F4D50 
 16180      4F4E454E 
 16180      545F4E41 
 16180      4D455F50 
 16181 ad32 01       		.byte	0x1
 16182 ad33 F608     		.uleb128 0x476
 16183 ad35 434F4D50 		.ascii "COMPONENT_NAME_PROTOCOL EFI_COMPONENT_NAME_PROTOCOL_GUID\0"
 16183      4F4E454E 
 16183      545F4E41 
 16183      4D455F50 
 16183      524F544F 
 16184 ad6e 01       		.byte	0x1
 16185 ad6f 9809     		.uleb128 0x498
 16186 ad71 4546495F 		.ascii "EFI_COMPONENT_NAME2_PROTOCOL_GUID {0x6A7A5CFF, 0xE8D9, 0x4F70, { 0xBA, 0xDA, 0x75, 0xAB, 0
 16186      434F4D50 
 16186      4F4E454E 
 16186      545F4E41 
 16186      4D45325F 
 16187 ade4 01       		.byte	0x1
 16188 ade5 9A09     		.uleb128 0x49a
 16189 ade7 434F4D50 		.ascii "COMPONENT_NAME2_PROTOCOL EFI_COMPONENT_NAME2_PROTOCOL_GUID\0"
 16189      4F4E454E 
 16189      545F4E41 
 16189      4D45325F 
 16189      50524F54 
 16190 ae22 01       		.byte	0x1
 16191 ae23 BD09     		.uleb128 0x4bd
 16192 ae25 4546495F 		.ascii "EFI_LOADED_IMAGE_PROTOCOL_GUID { 0x5B1B31A1, 0x9562, 0x11d2, {0x8E, 0x3F, 0x00, 0xA0, 0xC9
 16192      4C4F4144 
 16192      45445F49 
 16192      4D414745 
 16192      5F50524F 
 16193 ae95 01       		.byte	0x1
 16194 ae96 BF09     		.uleb128 0x4bf
 16195 ae98 4C4F4144 		.ascii "LOADED_IMAGE_PROTOCOL EFI_LOADED_IMAGE_PROTOCOL_GUID\0"
 16195      45445F49 
 16195      4D414745 
 16195      5F50524F 
 16195      544F434F 
 16196 aecd 01       		.byte	0x1
 16197 aece C109     		.uleb128 0x4c1
 16198 aed0 4546495F 		.ascii "EFI_LOADED_IMAGE_PROTOCOL_REVISION 0x1000\0"
 16198      4C4F4144 
 16198      45445F49 
 16198      4D414745 
 16198      5F50524F 
 16199 aefa 01       		.byte	0x1
 16200 aefb C209     		.uleb128 0x4c2
 16201 aefd 4546495F 		.ascii "EFI_IMAGE_INFORMATION_REVISION EFI_LOADED_IMAGE_PROTOCOL_REVISION\0"
 16201      494D4147 
 16201      455F494E 
 16201      464F524D 
 16201      4154494F 
 16202 af3f 01       		.byte	0x1
 16203 af40 E409     		.uleb128 0x4e4
 16204 af42 4546495F 		.ascii "EFI_LOADED_IMAGE_DEVICE_PATH_PROTOCOL_GUID {0xbc62157e, 0x3e33, 0x4fec, {0x99, 0x20, 0x2d,
 16204      4C4F4144 
 16204      45445F49 
 16204      4D414745 
 16204      5F444556 
 16205 afbd 01       		.byte	0x1
 16206 afbe EB09     		.uleb128 0x4eb
 16207 afc0 4546495F 		.ascii "EFI_RNG_PROTOCOL_GUID { 0x3152bca5, 0xeade, 0x433d, {0x86, 0x2e, 0xc0, 0x1c, 0xdc, 0x29, 0
 16207      524E475F 
 16207      50524F54 
 16207      4F434F4C 
 16207      5F475549 
 16208 b027 01       		.byte	0x1
 16209 b028 F009     		.uleb128 0x4f0
 16210 b02a 4546495F 		.ascii "EFI_RNG_ALGORITHM_SP800_90_HASH_256_GUID {0xa7af67cb, 0x603b, 0x4d42, {0xba, 0x21, 0x70, 0
 16210      524E475F 
 16210      414C474F 
 16210      52495448 
 16210      4D5F5350 
 16211 b0a3 01       		.byte	0x1
 16212 b0a4 F309     		.uleb128 0x4f3
 16213 b0a6 4546495F 		.ascii "EFI_RNG_ALGORITHM_SP800_90_HMAC_256_GUID {0xc5149b43, 0xae85, 0x4f53, {0x99, 0x82, 0xb9, 0
 16213      524E475F 
 16213      414C474F 
 16213      52495448 
 16213      4D5F5350 
 16214 b11f 01       		.byte	0x1
 16215 b120 F609     		.uleb128 0x4f6
 16216 b122 4546495F 		.ascii "EFI_RNG_ALGORITHM_SP800_90_CTR_256_GUID {0x44f0de6e, 0x4d8c, 0x4045, {0xa8, 0xc7, 0x4d, 0x
 16216      524E475F 
 16216      414C474F 
 16216      52495448 
 16216      4D5F5350 
 16217 b19a 01       		.byte	0x1
 16218 b19b F909     		.uleb128 0x4f9
 16219 b19d 4546495F 		.ascii "EFI_RNG_ALGORITHM_X9_31_3DES_GUID {0x63c4785a, 0xca34, 0x4012, {0xa3, 0xc8, 0x0b, 0x6a, 0x
 16219      524E475F 
 16219      414C474F 
 16219      52495448 
 16219      4D5F5839 
 16220 b20f 01       		.byte	0x1
 16221 b210 FC09     		.uleb128 0x4fc
 16222 b212 4546495F 		.ascii "EFI_RNG_ALGORITHM_X9_31_AES_GUID {0xacd03321, 0x777e, 0x4d3d, {0xb1, 0xc8, 0x20, 0xcf, 0xd
 16222      524E475F 
 16222      414C474F 
 16222      52495448 
 16222      4D5F5839 
 16223 b283 01       		.byte	0x1
 16224 b284 FF09     		.uleb128 0x4ff
 16225 b286 4546495F 		.ascii "EFI_RNG_ALGORITHM_RAW {0xe43176d7, 0xb6e8, 0x4827, {0xb7, 0x84, 0x7f, 0xfd, 0xc4, 0xb6, 0x
 16225      524E475F 
 16225      414C474F 
 16225      52495448 
 16225      4D5F5241 
 16226 b2ec 01       		.byte	0x1
 16227 b2ed 9F0A     		.uleb128 0x51f
 16228 b2ef 4546495F 		.ascii "EFI_PLATFORM_DRIVER_OVERRIDE_PROTOCOL_GUID { 0x6b30c738, 0xa391, 0x11d4, {0x9a, 0x3b, 0x00
 16228      504C4154 
 16228      464F524D 
 16228      5F445249 
 16228      5645525F 
 16229 b36b 01       		.byte	0x1
 16230 b36c C40A     		.uleb128 0x544
 16231 b36e 4546495F 		.ascii "EFI_BUS_SPECIFIC_DRIVER_OVERRIDE_PROTOCOL_GUID { 0x3bc1b285, 0x8a15, 0x4a82, {0xaa, 0xbf, 
 16231      4255535F 
 16231      53504543 
 16231      49464943 
 16231      5F445249 
 16232 b3ee 01       		.byte	0x1
 16233 b3ef D70A     		.uleb128 0x557
 16234 b3f1 4546495F 		.ascii "EFI_DRIVER_FAMILY_OVERRIDE_PROTOCOL_GUID { 0xb1ee129e, 0xda36, 0x4181, {0x91, 0xf8, 0x04, 
 16234      44524956 
 16234      45525F46 
 16234      414D494C 
 16234      595F4F56 
 16235 b46b 01       		.byte	0x1
 16236 b46c E90A     		.uleb128 0x569
 16237 b46e 4546495F 		.ascii "EFI_EBC_INTERPRETER_PROTOCOL_GUID {0x13ac6dd1, 0x73d0, 0x11d4, {0xb0, 0x6b, 0x00, 0xaa, 0x
 16237      4542435F 
 16237      494E5445 
 16237      52505245 
 16237      5445525F 
 16238 b4e0 01       		.byte	0x1
 16239 b4e1 EC0A     		.uleb128 0x56c
 16240 b4e3 4546495F 		.ascii "EFI_EBC_PROTOCOL_GUID EFI_EBC_INTERPRETER_PROTOCOL_GUID\0"
 16240      4542435F 
 16240      50524F54 
 16240      4F434F4C 
 16240      5F475549 
 16241 b51b 04       		.byte	0x4
 16242 b51c 03       		.byte	0x3
 16243 b51d 46       		.uleb128 0x46
 16244 b51e 09       		.uleb128 0x9
 16245 b51f 01       		.byte	0x1
 16246 b520 02       		.uleb128 0x2
 16247 b521 5F454649 		.ascii "_EFI_CON_H \0"
 16247      5F434F4E 
 16247      5F482000 
 16248 b52d 01       		.byte	0x1
 16249 b52e 1A       		.uleb128 0x1a
 16250 b52f 4546495F 		.ascii "EFI_SIMPLE_TEXT_OUTPUT_PROTOCOL_GUID { 0x387477c2, 0x69c7, 0x11d2, {0x8e, 0x39, 0x0, 0xa0,
 16250      53494D50 
 16250      4C455F54 
 16250      4558545F 
 16250      4F555450 
 16251 b5a4 01       		.byte	0x1
 16252 b5a5 1C       		.uleb128 0x1c
 16253 b5a6 53494D50 		.ascii "SIMPLE_TEXT_OUTPUT_PROTOCOL EFI_SIMPLE_TEXT_OUTPUT_PROTOCOL_GUID\0"
 16253      4C455F54 
 16253      4558545F 
 16253      4F555450 
 16253      55545F50 
 16254 b5e7 01       		.byte	0x1
 16255 b5e8 4C       		.uleb128 0x4c
 16256 b5e9 4546495F 		.ascii "EFI_BLACK 0x00\0"
 16256      424C4143 
 16256      4B203078 
 16256      303000
 16257 b5f8 01       		.byte	0x1
 16258 b5f9 4D       		.uleb128 0x4d
 16259 b5fa 4546495F 		.ascii "EFI_BLUE 0x01\0"
 16259      424C5545 
 16259      20307830 
 16259      3100
 16260 b608 01       		.byte	0x1
 16261 b609 4E       		.uleb128 0x4e
 16262 b60a 4546495F 		.ascii "EFI_GREEN 0x02\0"
 16262      47524545 
 16262      4E203078 
 16262      303200
 16263 b619 01       		.byte	0x1
 16264 b61a 4F       		.uleb128 0x4f
 16265 b61b 4546495F 		.ascii "EFI_CYAN (EFI_BLUE | EFI_GREEN)\0"
 16265      4359414E 
 16265      20284546 
 16265      495F424C 
 16265      5545207C 
 16266 b63b 01       		.byte	0x1
 16267 b63c 50       		.uleb128 0x50
 16268 b63d 4546495F 		.ascii "EFI_RED 0x04\0"
 16268      52454420 
 16268      30783034 
 16268      00
 16269 b64a 01       		.byte	0x1
 16270 b64b 51       		.uleb128 0x51
 16271 b64c 4546495F 		.ascii "EFI_MAGENTA (EFI_BLUE | EFI_RED)\0"
 16271      4D414745 
 16271      4E544120 
 16271      28454649 
 16271      5F424C55 
 16272 b66d 01       		.byte	0x1
 16273 b66e 52       		.uleb128 0x52
 16274 b66f 4546495F 		.ascii "EFI_BROWN (EFI_GREEN | EFI_RED)\0"
 16274      42524F57 
 16274      4E202845 
 16274      46495F47 
 16274      5245454E 
 16275 b68f 01       		.byte	0x1
 16276 b690 53       		.uleb128 0x53
 16277 b691 4546495F 		.ascii "EFI_LIGHTGRAY (EFI_BLUE | EFI_GREEN | EFI_RED)\0"
 16277      4C494748 
 16277      54475241 
 16277      59202845 
 16277      46495F42 
 16278 b6c0 01       		.byte	0x1
 16279 b6c1 54       		.uleb128 0x54
 16280 b6c2 4546495F 		.ascii "EFI_BRIGHT 0x08\0"
 16280      42524947 
 16280      48542030 
 16280      78303800 
 16281 b6d2 01       		.byte	0x1
 16282 b6d3 55       		.uleb128 0x55
 16283 b6d4 4546495F 		.ascii "EFI_DARKGRAY (EFI_BRIGHT)\0"
 16283      4441524B 
 16283      47524159 
 16283      20284546 
 16283      495F4252 
 16284 b6ee 01       		.byte	0x1
 16285 b6ef 56       		.uleb128 0x56
 16286 b6f0 4546495F 		.ascii "EFI_LIGHTBLUE (EFI_BLUE | EFI_BRIGHT)\0"
 16286      4C494748 
 16286      54424C55 
 16286      45202845 
 16286      46495F42 
 16287 b716 01       		.byte	0x1
 16288 b717 57       		.uleb128 0x57
 16289 b718 4546495F 		.ascii "EFI_LIGHTGREEN (EFI_GREEN | EFI_BRIGHT)\0"
 16289      4C494748 
 16289      54475245 
 16289      454E2028 
 16289      4546495F 
 16290 b740 01       		.byte	0x1
 16291 b741 58       		.uleb128 0x58
 16292 b742 4546495F 		.ascii "EFI_LIGHTCYAN (EFI_CYAN | EFI_BRIGHT)\0"
 16292      4C494748 
 16292      54435941 
 16292      4E202845 
 16292      46495F43 
 16293 b768 01       		.byte	0x1
 16294 b769 59       		.uleb128 0x59
 16295 b76a 4546495F 		.ascii "EFI_LIGHTRED (EFI_RED | EFI_BRIGHT)\0"
 16295      4C494748 
 16295      54524544 
 16295      20284546 
 16295      495F5245 
 16296 b78e 01       		.byte	0x1
 16297 b78f 5A       		.uleb128 0x5a
 16298 b790 4546495F 		.ascii "EFI_LIGHTMAGENTA (EFI_MAGENTA | EFI_BRIGHT)\0"
 16298      4C494748 
 16298      544D4147 
 16298      454E5441 
 16298      20284546 
 16299 b7bc 01       		.byte	0x1
 16300 b7bd 5B       		.uleb128 0x5b
 16301 b7be 4546495F 		.ascii "EFI_YELLOW (EFI_BROWN | EFI_BRIGHT)\0"
 16301      59454C4C 
 16301      4F572028 
 16301      4546495F 
 16301      42524F57 
 16302 b7e2 01       		.byte	0x1
 16303 b7e3 5C       		.uleb128 0x5c
 16304 b7e4 4546495F 		.ascii "EFI_WHITE (EFI_BLUE | EFI_GREEN | EFI_RED | EFI_BRIGHT)\0"
 16304      57484954 
 16304      45202845 
 16304      46495F42 
 16304      4C554520 
 16305 b81c 01       		.byte	0x1
 16306 b81d 5E       		.uleb128 0x5e
 16307 b81e 4546495F 		.ascii "EFI_TEXT_ATTR(f,b) ((f) | ((b) << 4))\0"
 16307      54455854 
 16307      5F415454 
 16307      5228662C 
 16307      62292028 
 16308 b844 01       		.byte	0x1
 16309 b845 60       		.uleb128 0x60
 16310 b846 4546495F 		.ascii "EFI_BACKGROUND_BLACK 0x00\0"
 16310      4241434B 
 16310      47524F55 
 16310      4E445F42 
 16310      4C41434B 
 16311 b860 01       		.byte	0x1
 16312 b861 61       		.uleb128 0x61
 16313 b862 4546495F 		.ascii "EFI_BACKGROUND_BLUE 0x10\0"
 16313      4241434B 
 16313      47524F55 
 16313      4E445F42 
 16313      4C554520 
 16314 b87b 01       		.byte	0x1
 16315 b87c 62       		.uleb128 0x62
 16316 b87d 4546495F 		.ascii "EFI_BACKGROUND_GREEN 0x20\0"
 16316      4241434B 
 16316      47524F55 
 16316      4E445F47 
 16316      5245454E 
 16317 b897 01       		.byte	0x1
 16318 b898 63       		.uleb128 0x63
 16319 b899 4546495F 		.ascii "EFI_BACKGROUND_CYAN (EFI_BACKGROUND_BLUE | EFI_BACKGROUND_GREEN)\0"
 16319      4241434B 
 16319      47524F55 
 16319      4E445F43 
 16319      59414E20 
 16320 b8da 01       		.byte	0x1
 16321 b8db 64       		.uleb128 0x64
 16322 b8dc 4546495F 		.ascii "EFI_BACKGROUND_RED 0x40\0"
 16322      4241434B 
 16322      47524F55 
 16322      4E445F52 
 16322      45442030 
 16323 b8f4 01       		.byte	0x1
 16324 b8f5 65       		.uleb128 0x65
 16325 b8f6 4546495F 		.ascii "EFI_BACKGROUND_MAGENTA (EFI_BACKGROUND_BLUE | EFI_BACKGROUND_RED)\0"
 16325      4241434B 
 16325      47524F55 
 16325      4E445F4D 
 16325      4147454E 
 16326 b938 01       		.byte	0x1
 16327 b939 66       		.uleb128 0x66
 16328 b93a 4546495F 		.ascii "EFI_BACKGROUND_BROWN (EFI_BACKGROUND_GREEN | EFI_BACKGROUND_RED)\0"
 16328      4241434B 
 16328      47524F55 
 16328      4E445F42 
 16328      524F574E 
 16329 b97b 01       		.byte	0x1
 16330 b97c 67       		.uleb128 0x67
 16331 b97d 4546495F 		.ascii "EFI_BACKGROUND_LIGHTGRAY (EFI_BACKGROUND_BLUE | EFI_BACKGROUND_GREEN | EFI_BACKGROUND_RED)
 16331      4241434B 
 16331      47524F55 
 16331      4E445F4C 
 16331      49474854 
 16332 b9d8 01       		.byte	0x1
 16333 b9d9 9F01     		.uleb128 0x9f
 16334 b9db 424F5844 		.ascii "BOXDRAW_HORIZONTAL 0x2500\0"
 16334      5241575F 
 16334      484F5249 
 16334      5A4F4E54 
 16334      414C2030 
 16335 b9f5 01       		.byte	0x1
 16336 b9f6 A001     		.uleb128 0xa0
 16337 b9f8 424F5844 		.ascii "BOXDRAW_VERTICAL 0x2502\0"
 16337      5241575F 
 16337      56455254 
 16337      4943414C 
 16337      20307832 
 16338 ba10 01       		.byte	0x1
 16339 ba11 A101     		.uleb128 0xa1
 16340 ba13 424F5844 		.ascii "BOXDRAW_DOWN_RIGHT 0x250c\0"
 16340      5241575F 
 16340      444F574E 
 16340      5F524947 
 16340      48542030 
 16341 ba2d 01       		.byte	0x1
 16342 ba2e A201     		.uleb128 0xa2
 16343 ba30 424F5844 		.ascii "BOXDRAW_DOWN_LEFT 0x2510\0"
 16343      5241575F 
 16343      444F574E 
 16343      5F4C4546 
 16343      54203078 
 16344 ba49 01       		.byte	0x1
 16345 ba4a A301     		.uleb128 0xa3
 16346 ba4c 424F5844 		.ascii "BOXDRAW_UP_RIGHT 0x2514\0"
 16346      5241575F 
 16346      55505F52 
 16346      49474854 
 16346      20307832 
 16347 ba64 01       		.byte	0x1
 16348 ba65 A401     		.uleb128 0xa4
 16349 ba67 424F5844 		.ascii "BOXDRAW_UP_LEFT 0x2518\0"
 16349      5241575F 
 16349      55505F4C 
 16349      45465420 
 16349      30783235 
 16350 ba7e 01       		.byte	0x1
 16351 ba7f A501     		.uleb128 0xa5
 16352 ba81 424F5844 		.ascii "BOXDRAW_VERTICAL_RIGHT 0x251c\0"
 16352      5241575F 
 16352      56455254 
 16352      4943414C 
 16352      5F524947 
 16353 ba9f 01       		.byte	0x1
 16354 baa0 A601     		.uleb128 0xa6
 16355 baa2 424F5844 		.ascii "BOXDRAW_VERTICAL_LEFT 0x2524\0"
 16355      5241575F 
 16355      56455254 
 16355      4943414C 
 16355      5F4C4546 
 16356 babf 01       		.byte	0x1
 16357 bac0 A701     		.uleb128 0xa7
 16358 bac2 424F5844 		.ascii "BOXDRAW_DOWN_HORIZONTAL 0x252c\0"
 16358      5241575F 
 16358      444F574E 
 16358      5F484F52 
 16358      495A4F4E 
 16359 bae1 01       		.byte	0x1
 16360 bae2 A801     		.uleb128 0xa8
 16361 bae4 424F5844 		.ascii "BOXDRAW_UP_HORIZONTAL 0x2534\0"
 16361      5241575F 
 16361      55505F48 
 16361      4F52495A 
 16361      4F4E5441 
 16362 bb01 01       		.byte	0x1
 16363 bb02 A901     		.uleb128 0xa9
 16364 bb04 424F5844 		.ascii "BOXDRAW_VERTICAL_HORIZONTAL 0x253c\0"
 16364      5241575F 
 16364      56455254 
 16364      4943414C 
 16364      5F484F52 
 16365 bb27 01       		.byte	0x1
 16366 bb28 AB01     		.uleb128 0xab
 16367 bb2a 424F5844 		.ascii "BOXDRAW_DOUBLE_HORIZONTAL 0x2550\0"
 16367      5241575F 
 16367      444F5542 
 16367      4C455F48 
 16367      4F52495A 
 16368 bb4b 01       		.byte	0x1
 16369 bb4c AC01     		.uleb128 0xac
 16370 bb4e 424F5844 		.ascii "BOXDRAW_DOUBLE_VERTICAL 0x2551\0"
 16370      5241575F 
 16370      444F5542 
 16370      4C455F56 
 16370      45525449 
 16371 bb6d 01       		.byte	0x1
 16372 bb6e AD01     		.uleb128 0xad
 16373 bb70 424F5844 		.ascii "BOXDRAW_DOWN_RIGHT_DOUBLE 0x2552\0"
 16373      5241575F 
 16373      444F574E 
 16373      5F524947 
 16373      48545F44 
 16374 bb91 01       		.byte	0x1
 16375 bb92 AE01     		.uleb128 0xae
 16376 bb94 424F5844 		.ascii "BOXDRAW_DOWN_DOUBLE_RIGHT 0x2553\0"
 16376      5241575F 
 16376      444F574E 
 16376      5F444F55 
 16376      424C455F 
 16377 bbb5 01       		.byte	0x1
 16378 bbb6 AF01     		.uleb128 0xaf
 16379 bbb8 424F5844 		.ascii "BOXDRAW_DOUBLE_DOWN_RIGHT 0x2554\0"
 16379      5241575F 
 16379      444F5542 
 16379      4C455F44 
 16379      4F574E5F 
 16380 bbd9 01       		.byte	0x1
 16381 bbda B101     		.uleb128 0xb1
 16382 bbdc 424F5844 		.ascii "BOXDRAW_DOWN_LEFT_DOUBLE 0x2555\0"
 16382      5241575F 
 16382      444F574E 
 16382      5F4C4546 
 16382      545F444F 
 16383 bbfc 01       		.byte	0x1
 16384 bbfd B201     		.uleb128 0xb2
 16385 bbff 424F5844 		.ascii "BOXDRAW_DOWN_DOUBLE_LEFT 0x2556\0"
 16385      5241575F 
 16385      444F574E 
 16385      5F444F55 
 16385      424C455F 
 16386 bc1f 01       		.byte	0x1
 16387 bc20 B301     		.uleb128 0xb3
 16388 bc22 424F5844 		.ascii "BOXDRAW_DOUBLE_DOWN_LEFT 0x2557\0"
 16388      5241575F 
 16388      444F5542 
 16388      4C455F44 
 16388      4F574E5F 
 16389 bc42 01       		.byte	0x1
 16390 bc43 B501     		.uleb128 0xb5
 16391 bc45 424F5844 		.ascii "BOXDRAW_UP_RIGHT_DOUBLE 0x2558\0"
 16391      5241575F 
 16391      55505F52 
 16391      49474854 
 16391      5F444F55 
 16392 bc64 01       		.byte	0x1
 16393 bc65 B601     		.uleb128 0xb6
 16394 bc67 424F5844 		.ascii "BOXDRAW_UP_DOUBLE_RIGHT 0x2559\0"
 16394      5241575F 
 16394      55505F44 
 16394      4F55424C 
 16394      455F5249 
 16395 bc86 01       		.byte	0x1
 16396 bc87 B701     		.uleb128 0xb7
 16397 bc89 424F5844 		.ascii "BOXDRAW_DOUBLE_UP_RIGHT 0x255a\0"
 16397      5241575F 
 16397      444F5542 
 16397      4C455F55 
 16397      505F5249 
 16398 bca8 01       		.byte	0x1
 16399 bca9 B901     		.uleb128 0xb9
 16400 bcab 424F5844 		.ascii "BOXDRAW_UP_LEFT_DOUBLE 0x255b\0"
 16400      5241575F 
 16400      55505F4C 
 16400      4546545F 
 16400      444F5542 
 16401 bcc9 01       		.byte	0x1
 16402 bcca BA01     		.uleb128 0xba
 16403 bccc 424F5844 		.ascii "BOXDRAW_UP_DOUBLE_LEFT 0x255c\0"
 16403      5241575F 
 16403      55505F44 
 16403      4F55424C 
 16403      455F4C45 
 16404 bcea 01       		.byte	0x1
 16405 bceb BB01     		.uleb128 0xbb
 16406 bced 424F5844 		.ascii "BOXDRAW_DOUBLE_UP_LEFT 0x255d\0"
 16406      5241575F 
 16406      444F5542 
 16406      4C455F55 
 16406      505F4C45 
 16407 bd0b 01       		.byte	0x1
 16408 bd0c BD01     		.uleb128 0xbd
 16409 bd0e 424F5844 		.ascii "BOXDRAW_VERTICAL_RIGHT_DOUBLE 0x255e\0"
 16409      5241575F 
 16409      56455254 
 16409      4943414C 
 16409      5F524947 
 16410 bd33 01       		.byte	0x1
 16411 bd34 BE01     		.uleb128 0xbe
 16412 bd36 424F5844 		.ascii "BOXDRAW_VERTICAL_DOUBLE_RIGHT 0x255f\0"
 16412      5241575F 
 16412      56455254 
 16412      4943414C 
 16412      5F444F55 
 16413 bd5b 01       		.byte	0x1
 16414 bd5c BF01     		.uleb128 0xbf
 16415 bd5e 424F5844 		.ascii "BOXDRAW_DOUBLE_VERTICAL_RIGHT 0x2560\0"
 16415      5241575F 
 16415      444F5542 
 16415      4C455F56 
 16415      45525449 
 16416 bd83 01       		.byte	0x1
 16417 bd84 C101     		.uleb128 0xc1
 16418 bd86 424F5844 		.ascii "BOXDRAW_VERTICAL_LEFT_DOUBLE 0x2561\0"
 16418      5241575F 
 16418      56455254 
 16418      4943414C 
 16418      5F4C4546 
 16419 bdaa 01       		.byte	0x1
 16420 bdab C201     		.uleb128 0xc2
 16421 bdad 424F5844 		.ascii "BOXDRAW_VERTICAL_DOUBLE_LEFT 0x2562\0"
 16421      5241575F 
 16421      56455254 
 16421      4943414C 
 16421      5F444F55 
 16422 bdd1 01       		.byte	0x1
 16423 bdd2 C301     		.uleb128 0xc3
 16424 bdd4 424F5844 		.ascii "BOXDRAW_DOUBLE_VERTICAL_LEFT 0x2563\0"
 16424      5241575F 
 16424      444F5542 
 16424      4C455F56 
 16424      45525449 
 16425 bdf8 01       		.byte	0x1
 16426 bdf9 C501     		.uleb128 0xc5
 16427 bdfb 424F5844 		.ascii "BOXDRAW_DOWN_HORIZONTAL_DOUBLE 0x2564\0"
 16427      5241575F 
 16427      444F574E 
 16427      5F484F52 
 16427      495A4F4E 
 16428 be21 01       		.byte	0x1
 16429 be22 C601     		.uleb128 0xc6
 16430 be24 424F5844 		.ascii "BOXDRAW_DOWN_DOUBLE_HORIZONTAL 0x2565\0"
 16430      5241575F 
 16430      444F574E 
 16430      5F444F55 
 16430      424C455F 
 16431 be4a 01       		.byte	0x1
 16432 be4b C701     		.uleb128 0xc7
 16433 be4d 424F5844 		.ascii "BOXDRAW_DOUBLE_DOWN_HORIZONTAL 0x2566\0"
 16433      5241575F 
 16433      444F5542 
 16433      4C455F44 
 16433      4F574E5F 
 16434 be73 01       		.byte	0x1
 16435 be74 C901     		.uleb128 0xc9
 16436 be76 424F5844 		.ascii "BOXDRAW_UP_HORIZONTAL_DOUBLE 0x2567\0"
 16436      5241575F 
 16436      55505F48 
 16436      4F52495A 
 16436      4F4E5441 
 16437 be9a 01       		.byte	0x1
 16438 be9b CA01     		.uleb128 0xca
 16439 be9d 424F5844 		.ascii "BOXDRAW_UP_DOUBLE_HORIZONTAL 0x2568\0"
 16439      5241575F 
 16439      55505F44 
 16439      4F55424C 
 16439      455F484F 
 16440 bec1 01       		.byte	0x1
 16441 bec2 CB01     		.uleb128 0xcb
 16442 bec4 424F5844 		.ascii "BOXDRAW_DOUBLE_UP_HORIZONTAL 0x2569\0"
 16442      5241575F 
 16442      444F5542 
 16442      4C455F55 
 16442      505F484F 
 16443 bee8 01       		.byte	0x1
 16444 bee9 CD01     		.uleb128 0xcd
 16445 beeb 424F5844 		.ascii "BOXDRAW_VERTICAL_HORIZONTAL_DOUBLE 0x256a\0"
 16445      5241575F 
 16445      56455254 
 16445      4943414C 
 16445      5F484F52 
 16446 bf15 01       		.byte	0x1
 16447 bf16 CE01     		.uleb128 0xce
 16448 bf18 424F5844 		.ascii "BOXDRAW_VERTICAL_DOUBLE_HORIZONTAL 0x256b\0"
 16448      5241575F 
 16448      56455254 
 16448      4943414C 
 16448      5F444F55 
 16449 bf42 01       		.byte	0x1
 16450 bf43 CF01     		.uleb128 0xcf
 16451 bf45 424F5844 		.ascii "BOXDRAW_DOUBLE_VERTICAL_HORIZONTAL 0x256c\0"
 16451      5241575F 
 16451      444F5542 
 16451      4C455F56 
 16451      45525449 
 16452 bf6f 01       		.byte	0x1
 16453 bf70 D501     		.uleb128 0xd5
 16454 bf72 424C4F43 		.ascii "BLOCKELEMENT_FULL_BLOCK 0x2588\0"
 16454      4B454C45 
 16454      4D454E54 
 16454      5F46554C 
 16454      4C5F424C 
 16455 bf91 01       		.byte	0x1
 16456 bf92 D601     		.uleb128 0xd6
 16457 bf94 424C4F43 		.ascii "BLOCKELEMENT_LIGHT_SHADE 0x2591\0"
 16457      4B454C45 
 16457      4D454E54 
 16457      5F4C4947 
 16457      48545F53 
 16458 bfb4 01       		.byte	0x1
 16459 bfb5 DB01     		.uleb128 0xdb
 16460 bfb7 47454F4D 		.ascii "GEOMETRICSHAPE_UP_TRIANGLE 0x25b2\0"
 16460      45545249 
 16460      43534841 
 16460      50455F55 
 16460      505F5452 
 16461 bfd9 01       		.byte	0x1
 16462 bfda DC01     		.uleb128 0xdc
 16463 bfdc 47454F4D 		.ascii "GEOMETRICSHAPE_RIGHT_TRIANGLE 0x25ba\0"
 16463      45545249 
 16463      43534841 
 16463      50455F52 
 16463      49474854 
 16464 c001 01       		.byte	0x1
 16465 c002 DD01     		.uleb128 0xdd
 16466 c004 47454F4D 		.ascii "GEOMETRICSHAPE_DOWN_TRIANGLE 0x25bc\0"
 16466      45545249 
 16466      43534841 
 16466      50455F44 
 16466      4F574E5F 
 16467 c028 01       		.byte	0x1
 16468 c029 DE01     		.uleb128 0xde
 16469 c02b 47454F4D 		.ascii "GEOMETRICSHAPE_LEFT_TRIANGLE 0x25c4\0"
 16469      45545249 
 16469      43534841 
 16469      50455F4C 
 16469      4546545F 
 16470 c04f 01       		.byte	0x1
 16471 c050 E401     		.uleb128 0xe4
 16472 c052 4152524F 		.ascii "ARROW_UP 0x2191\0"
 16472      575F5550 
 16472      20307832 
 16472      31393100 
 16473 c062 01       		.byte	0x1
 16474 c063 E501     		.uleb128 0xe5
 16475 c065 4152524F 		.ascii "ARROW_DOWN 0x2193\0"
 16475      575F444F 
 16475      574E2030 
 16475      78323139 
 16475      3300
 16476 c077 01       		.byte	0x1
 16477 c078 EB01     		.uleb128 0xeb
 16478 c07a 4546495F 		.ascii "EFI_SIMPLE_TEXT_INPUT_PROTOCOL_GUID { 0x387477c1, 0x69c7, 0x11d2, {0x8e, 0x39, 0x0, 0xa0, 
 16478      53494D50 
 16478      4C455F54 
 16478      4558545F 
 16478      494E5055 
 16479 c0ee 01       		.byte	0x1
 16480 c0ef ED01     		.uleb128 0xed
 16481 c0f1 53494D50 		.ascii "SIMPLE_TEXT_INPUT_PROTOCOL EFI_SIMPLE_TEXT_INPUT_PROTOCOL_GUID\0"
 16481      4C455F54 
 16481      4558545F 
 16481      494E5055 
 16481      545F5052 
 16482 c130 01       		.byte	0x1
 16483 c131 FA01     		.uleb128 0xfa
 16484 c133 43484152 		.ascii "CHAR_NULL 0x0000\0"
 16484      5F4E554C 
 16484      4C203078 
 16484      30303030 
 16484      00
 16485 c144 01       		.byte	0x1
 16486 c145 FB01     		.uleb128 0xfb
 16487 c147 43484152 		.ascii "CHAR_BACKSPACE 0x0008\0"
 16487      5F424143 
 16487      4B535041 
 16487      43452030 
 16487      78303030 
 16488 c15d 01       		.byte	0x1
 16489 c15e FC01     		.uleb128 0xfc
 16490 c160 43484152 		.ascii "CHAR_TAB 0x0009\0"
 16490      5F544142 
 16490      20307830 
 16490      30303900 
 16491 c170 01       		.byte	0x1
 16492 c171 FD01     		.uleb128 0xfd
 16493 c173 43484152 		.ascii "CHAR_LINEFEED 0x000A\0"
 16493      5F4C494E 
 16493      45464545 
 16493      44203078 
 16493      30303041 
 16494 c188 01       		.byte	0x1
 16495 c189 FE01     		.uleb128 0xfe
 16496 c18b 43484152 		.ascii "CHAR_CARRIAGE_RETURN 0x000D\0"
 16496      5F434152 
 16496      52494147 
 16496      455F5245 
 16496      5455524E 
 16497 c1a7 01       		.byte	0x1
 16498 c1a8 8402     		.uleb128 0x104
 16499 c1aa 5343414E 		.ascii "SCAN_NULL 0x0000\0"
 16499      5F4E554C 
 16499      4C203078 
 16499      30303030 
 16499      00
 16500 c1bb 01       		.byte	0x1
 16501 c1bc 8502     		.uleb128 0x105
 16502 c1be 5343414E 		.ascii "SCAN_UP 0x0001\0"
 16502      5F555020 
 16502      30783030 
 16502      303100
 16503 c1cd 01       		.byte	0x1
 16504 c1ce 8602     		.uleb128 0x106
 16505 c1d0 5343414E 		.ascii "SCAN_DOWN 0x0002\0"
 16505      5F444F57 
 16505      4E203078 
 16505      30303032 
 16505      00
 16506 c1e1 01       		.byte	0x1
 16507 c1e2 8702     		.uleb128 0x107
 16508 c1e4 5343414E 		.ascii "SCAN_RIGHT 0x0003\0"
 16508      5F524947 
 16508      48542030 
 16508      78303030 
 16508      3300
 16509 c1f6 01       		.byte	0x1
 16510 c1f7 8802     		.uleb128 0x108
 16511 c1f9 5343414E 		.ascii "SCAN_LEFT 0x0004\0"
 16511      5F4C4546 
 16511      54203078 
 16511      30303034 
 16511      00
 16512 c20a 01       		.byte	0x1
 16513 c20b 8902     		.uleb128 0x109
 16514 c20d 5343414E 		.ascii "SCAN_HOME 0x0005\0"
 16514      5F484F4D 
 16514      45203078 
 16514      30303035 
 16514      00
 16515 c21e 01       		.byte	0x1
 16516 c21f 8A02     		.uleb128 0x10a
 16517 c221 5343414E 		.ascii "SCAN_END 0x0006\0"
 16517      5F454E44 
 16517      20307830 
 16517      30303600 
 16518 c231 01       		.byte	0x1
 16519 c232 8B02     		.uleb128 0x10b
 16520 c234 5343414E 		.ascii "SCAN_INSERT 0x0007\0"
 16520      5F494E53 
 16520      45525420 
 16520      30783030 
 16520      303700
 16521 c247 01       		.byte	0x1
 16522 c248 8C02     		.uleb128 0x10c
 16523 c24a 5343414E 		.ascii "SCAN_DELETE 0x0008\0"
 16523      5F44454C 
 16523      45544520 
 16523      30783030 
 16523      303800
 16524 c25d 01       		.byte	0x1
 16525 c25e 8D02     		.uleb128 0x10d
 16526 c260 5343414E 		.ascii "SCAN_PAGE_UP 0x0009\0"
 16526      5F504147 
 16526      455F5550 
 16526      20307830 
 16526      30303900 
 16527 c274 01       		.byte	0x1
 16528 c275 8E02     		.uleb128 0x10e
 16529 c277 5343414E 		.ascii "SCAN_PAGE_DOWN 0x000A\0"
 16529      5F504147 
 16529      455F444F 
 16529      574E2030 
 16529      78303030 
 16530 c28d 01       		.byte	0x1
 16531 c28e 8F02     		.uleb128 0x10f
 16532 c290 5343414E 		.ascii "SCAN_F1 0x000B\0"
 16532      5F463120 
 16532      30783030 
 16532      304200
 16533 c29f 01       		.byte	0x1
 16534 c2a0 9002     		.uleb128 0x110
 16535 c2a2 5343414E 		.ascii "SCAN_F2 0x000C\0"
 16535      5F463220 
 16535      30783030 
 16535      304300
 16536 c2b1 01       		.byte	0x1
 16537 c2b2 9102     		.uleb128 0x111
 16538 c2b4 5343414E 		.ascii "SCAN_F3 0x000D\0"
 16538      5F463320 
 16538      30783030 
 16538      304400
 16539 c2c3 01       		.byte	0x1
 16540 c2c4 9202     		.uleb128 0x112
 16541 c2c6 5343414E 		.ascii "SCAN_F4 0x000E\0"
 16541      5F463420 
 16541      30783030 
 16541      304500
 16542 c2d5 01       		.byte	0x1
 16543 c2d6 9302     		.uleb128 0x113
 16544 c2d8 5343414E 		.ascii "SCAN_F5 0x000F\0"
 16544      5F463520 
 16544      30783030 
 16544      304600
 16545 c2e7 01       		.byte	0x1
 16546 c2e8 9402     		.uleb128 0x114
 16547 c2ea 5343414E 		.ascii "SCAN_F6 0x0010\0"
 16547      5F463620 
 16547      30783030 
 16547      313000
 16548 c2f9 01       		.byte	0x1
 16549 c2fa 9502     		.uleb128 0x115
 16550 c2fc 5343414E 		.ascii "SCAN_F7 0x0011\0"
 16550      5F463720 
 16550      30783030 
 16550      313100
 16551 c30b 01       		.byte	0x1
 16552 c30c 9602     		.uleb128 0x116
 16553 c30e 5343414E 		.ascii "SCAN_F8 0x0012\0"
 16553      5F463820 
 16553      30783030 
 16553      313200
 16554 c31d 01       		.byte	0x1
 16555 c31e 9702     		.uleb128 0x117
 16556 c320 5343414E 		.ascii "SCAN_F9 0x0013\0"
 16556      5F463920 
 16556      30783030 
 16556      313300
 16557 c32f 01       		.byte	0x1
 16558 c330 9802     		.uleb128 0x118
 16559 c332 5343414E 		.ascii "SCAN_F10 0x0014\0"
 16559      5F463130 
 16559      20307830 
 16559      30313400 
 16560 c342 01       		.byte	0x1
 16561 c343 9902     		.uleb128 0x119
 16562 c345 5343414E 		.ascii "SCAN_F11 0x0015\0"
 16562      5F463131 
 16562      20307830 
 16562      30313500 
 16563 c355 01       		.byte	0x1
 16564 c356 9A02     		.uleb128 0x11a
 16565 c358 5343414E 		.ascii "SCAN_F12 0x0016\0"
 16565      5F463132 
 16565      20307830 
 16565      30313600 
 16566 c368 01       		.byte	0x1
 16567 c369 9B02     		.uleb128 0x11b
 16568 c36b 5343414E 		.ascii "SCAN_ESC 0x0017\0"
 16568      5F455343 
 16568      20307830 
 16568      30313700 
 16569 c37b 04       		.byte	0x4
 16570              		.file 23 "gnu-efi-3.0.18/inc/eficonex.h"
 16571 c37c 03       		.byte	0x3
 16572 c37d 47       		.uleb128 0x47
 16573 c37e 17       		.uleb128 0x17
 16574 c37f 01       		.byte	0x1
 16575 c380 02       		.uleb128 0x2
 16576 c381 5F454649 		.ascii "_EFI_CONEX_H \0"
 16576      5F434F4E 
 16576      45585F48 
 16576      2000
 16577 c38f 01       		.byte	0x1
 16578 c390 16       		.uleb128 0x16
 16579 c391 4546495F 		.ascii "EFI_SIMPLE_TEXT_INPUT_EX_PROTOCOL_GUID { 0xdd9e7534, 0x7762, 0x4698, {0x8c, 0x14, 0xf5, 0x
 16579      53494D50 
 16579      4C455F54 
 16579      4558545F 
 16579      494E5055 
 16580 c409 01       		.byte	0x1
 16581 c40a 28       		.uleb128 0x28
 16582 c40b 4546495F 		.ascii "EFI_SHIFT_STATE_VALID 0x80000000\0"
 16582      53484946 
 16582      545F5354 
 16582      4154455F 
 16582      56414C49 
 16583 c42c 01       		.byte	0x1
 16584 c42d 29       		.uleb128 0x29
 16585 c42e 4546495F 		.ascii "EFI_RIGHT_SHIFT_PRESSED 0x00000001\0"
 16585      52494748 
 16585      545F5348 
 16585      4946545F 
 16585      50524553 
 16586 c451 01       		.byte	0x1
 16587 c452 2A       		.uleb128 0x2a
 16588 c453 4546495F 		.ascii "EFI_LEFT_SHIFT_PRESSED 0x00000002\0"
 16588      4C454654 
 16588      5F534849 
 16588      46545F50 
 16588      52455353 
 16589 c475 01       		.byte	0x1
 16590 c476 2B       		.uleb128 0x2b
 16591 c477 4546495F 		.ascii "EFI_RIGHT_CONTROL_PRESSED 0x00000004\0"
 16591      52494748 
 16591      545F434F 
 16591      4E54524F 
 16591      4C5F5052 
 16592 c49c 01       		.byte	0x1
 16593 c49d 2C       		.uleb128 0x2c
 16594 c49e 4546495F 		.ascii "EFI_LEFT_CONTROL_PRESSED 0x00000008\0"
 16594      4C454654 
 16594      5F434F4E 
 16594      54524F4C 
 16594      5F505245 
 16595 c4c2 01       		.byte	0x1
 16596 c4c3 2D       		.uleb128 0x2d
 16597 c4c4 4546495F 		.ascii "EFI_RIGHT_ALT_PRESSED 0x00000010\0"
 16597      52494748 
 16597      545F414C 
 16597      545F5052 
 16597      45535345 
 16598 c4e5 01       		.byte	0x1
 16599 c4e6 2E       		.uleb128 0x2e
 16600 c4e7 4546495F 		.ascii "EFI_LEFT_ALT_PRESSED 0x00000020\0"
 16600      4C454654 
 16600      5F414C54 
 16600      5F505245 
 16600      53534544 
 16601 c507 01       		.byte	0x1
 16602 c508 2F       		.uleb128 0x2f
 16603 c509 4546495F 		.ascii "EFI_RIGHT_LOGO_PRESSED 0x00000040\0"
 16603      52494748 
 16603      545F4C4F 
 16603      474F5F50 
 16603      52455353 
 16604 c52b 01       		.byte	0x1
 16605 c52c 30       		.uleb128 0x30
 16606 c52d 4546495F 		.ascii "EFI_LEFT_LOGO_PRESSED 0x00000080\0"
 16606      4C454654 
 16606      5F4C4F47 
 16606      4F5F5052 
 16606      45535345 
 16607 c54e 01       		.byte	0x1
 16608 c54f 31       		.uleb128 0x31
 16609 c550 4546495F 		.ascii "EFI_MENU_KEY_PRESSED 0x00000100\0"
 16609      4D454E55 
 16609      5F4B4559 
 16609      5F505245 
 16609      53534544 
 16610 c570 01       		.byte	0x1
 16611 c571 32       		.uleb128 0x32
 16612 c572 4546495F 		.ascii "EFI_SYS_REQ_PRESSED 0x00000200\0"
 16612      5359535F 
 16612      5245515F 
 16612      50524553 
 16612      53454420 
 16613 c591 01       		.byte	0x1
 16614 c592 35       		.uleb128 0x35
 16615 c593 4546495F 		.ascii "EFI_TOGGLE_STATE_VALID 0x80\0"
 16615      544F4747 
 16615      4C455F53 
 16615      54415445 
 16615      5F56414C 
 16616 c5af 01       		.byte	0x1
 16617 c5b0 36       		.uleb128 0x36
 16618 c5b1 4546495F 		.ascii "EFI_KEY_STATE_EXPOSED 0x40\0"
 16618      4B45595F 
 16618      53544154 
 16618      455F4558 
 16618      504F5345 
 16619 c5cc 01       		.byte	0x1
 16620 c5cd 37       		.uleb128 0x37
 16621 c5ce 4546495F 		.ascii "EFI_SCROLL_LOCK_ACTIVE 0x01\0"
 16621      5343524F 
 16621      4C4C5F4C 
 16621      4F434B5F 
 16621      41435449 
 16622 c5ea 01       		.byte	0x1
 16623 c5eb 38       		.uleb128 0x38
 16624 c5ec 4546495F 		.ascii "EFI_NUM_LOCK_ACTIVE 0x02\0"
 16624      4E554D5F 
 16624      4C4F434B 
 16624      5F414354 
 16624      49564520 
 16625 c605 01       		.byte	0x1
 16626 c606 39       		.uleb128 0x39
 16627 c607 4546495F 		.ascii "EFI_CAPS_LOCK_ACTIVE 0x04\0"
 16627      43415053 
 16627      5F4C4F43 
 16627      4B5F4143 
 16627      54495645 
 16628 c621 04       		.byte	0x4
 16629              		.file 24 "gnu-efi-3.0.18/inc/efiser.h"
 16630 c622 03       		.byte	0x3
 16631 c623 48       		.uleb128 0x48
 16632 c624 18       		.uleb128 0x18
 16633 c625 01       		.byte	0x1
 16634 c626 02       		.uleb128 0x2
 16635 c627 5F454649 		.ascii "_EFI_SER_H \0"
 16635      5F534552 
 16635      5F482000 
 16636 c633 01       		.byte	0x1
 16637 c634 18       		.uleb128 0x18
 16638 c635 4546495F 		.ascii "EFI_SERIAL_IO_PROTOCOL_GUID { 0xBB25CF6F, 0xF1D4, 0x11D2, {0x9A, 0x0C, 0x00, 0x90, 0x27, 0
 16638      53455249 
 16638      414C5F49 
 16638      4F5F5052 
 16638      4F544F43 
 16639 c6a2 01       		.byte	0x1
 16640 c6a3 1A       		.uleb128 0x1a
 16641 c6a4 53455249 		.ascii "SERIAL_IO_PROTOCOL EFI_SERIAL_IO_PROTOCOL_GUID\0"
 16641      414C5F49 
 16641      4F5F5052 
 16641      4F544F43 
 16641      4F4C2045 
 16642 c6d3 01       		.byte	0x1
 16643 c6d4 2E       		.uleb128 0x2e
 16644 c6d5 4546495F 		.ascii "EFI_SERIAL_CLEAR_TO_SEND 0x0010\0"
 16644      53455249 
 16644      414C5F43 
 16644      4C454152 
 16644      5F544F5F 
 16645 c6f5 01       		.byte	0x1
 16646 c6f6 2F       		.uleb128 0x2f
 16647 c6f7 4546495F 		.ascii "EFI_SERIAL_DATA_SET_READY 0x0020\0"
 16647      53455249 
 16647      414C5F44 
 16647      4154415F 
 16647      5345545F 
 16648 c718 01       		.byte	0x1
 16649 c719 30       		.uleb128 0x30
 16650 c71a 4546495F 		.ascii "EFI_SERIAL_RING_INDICATE 0x0040\0"
 16650      53455249 
 16650      414C5F52 
 16650      494E475F 
 16650      494E4449 
 16651 c73a 01       		.byte	0x1
 16652 c73b 31       		.uleb128 0x31
 16653 c73c 4546495F 		.ascii "EFI_SERIAL_CARRIER_DETECT 0x0080\0"
 16653      53455249 
 16653      414C5F43 
 16653      41525249 
 16653      45525F44 
 16654 c75d 01       		.byte	0x1
 16655 c75e 32       		.uleb128 0x32
 16656 c75f 4546495F 		.ascii "EFI_SERIAL_REQUEST_TO_SEND 0x0002\0"
 16656      53455249 
 16656      414C5F52 
 16656      45515545 
 16656      53545F54 
 16657 c781 01       		.byte	0x1
 16658 c782 33       		.uleb128 0x33
 16659 c783 4546495F 		.ascii "EFI_SERIAL_DATA_TERMINAL_READY 0x0001\0"
 16659      53455249 
 16659      414C5F44 
 16659      4154415F 
 16659      5445524D 
 16660 c7a9 01       		.byte	0x1
 16661 c7aa 34       		.uleb128 0x34
 16662 c7ab 4546495F 		.ascii "EFI_SERIAL_INPUT_BUFFER_EMPTY 0x0100\0"
 16662      53455249 
 16662      414C5F49 
 16662      4E505554 
 16662      5F425546 
 16663 c7d0 01       		.byte	0x1
 16664 c7d1 35       		.uleb128 0x35
 16665 c7d2 4546495F 		.ascii "EFI_SERIAL_OUTPUT_BUFFER_EMPTY 0x0200\0"
 16665      53455249 
 16665      414C5F4F 
 16665      55545055 
 16665      545F4255 
 16666 c7f8 01       		.byte	0x1
 16667 c7f9 36       		.uleb128 0x36
 16668 c7fa 4546495F 		.ascii "EFI_SERIAL_HARDWARE_LOOPBACK_ENABLE 0x1000\0"
 16668      53455249 
 16668      414C5F48 
 16668      41524457 
 16668      4152455F 
 16669 c825 01       		.byte	0x1
 16670 c826 37       		.uleb128 0x37
 16671 c827 4546495F 		.ascii "EFI_SERIAL_SOFTWARE_LOOPBACK_ENABLE 0x2000\0"
 16671      53455249 
 16671      414C5F53 
 16671      4F465457 
 16671      4152455F 
 16672 c852 01       		.byte	0x1
 16673 c853 38       		.uleb128 0x38
 16674 c854 4546495F 		.ascii "EFI_SERIAL_HARDWARE_FLOW_CONTROL_ENABLE 0x4000\0"
 16674      53455249 
 16674      414C5F48 
 16674      41524457 
 16674      4152455F 
 16675 c883 01       		.byte	0x1
 16676 c884 76       		.uleb128 0x76
 16677 c885 53455249 		.ascii "SERIAL_IO_INTERFACE_REVISION 0x00010000\0"
 16677      414C5F49 
 16677      4F5F494E 
 16677      54455246 
 16677      4143455F 
 16678 c8ad 04       		.byte	0x4
 16679              		.file 25 "gnu-efi-3.0.18/inc/efi_nii.h"
 16680 c8ae 03       		.byte	0x3
 16681 c8af 49       		.uleb128 0x49
 16682 c8b0 19       		.uleb128 0x19
 16683 c8b1 01       		.byte	0x1
 16684 c8b2 02       		.uleb128 0x2
 16685 c8b3 5F454649 		.ascii "_EFI_NII_H \0"
 16685      5F4E4949 
 16685      5F482000 
 16686 c8bf 01       		.byte	0x1
 16687 c8c0 14       		.uleb128 0x14
 16688 c8c1 4546495F 		.ascii "EFI_NETWORK_INTERFACE_IDENTIFIER_PROTOCOL_GUID { 0xE18541CD, 0xF755, 0x4f73, {0x92, 0x8D, 
 16688      4E455457 
 16688      4F524B5F 
 16688      494E5445 
 16688      52464143 
 16689 c941 01       		.byte	0x1
 16690 c942 17       		.uleb128 0x17
 16691 c943 4546495F 		.ascii "EFI_NETWORK_INTERFACE_IDENTIFIER_PROTOCOL_REVISION 0x00010000\0"
 16691      4E455457 
 16691      4F524B5F 
 16691      494E5445 
 16691      52464143 
 16692 c981 01       		.byte	0x1
 16693 c982 18       		.uleb128 0x18
 16694 c983 4546495F 		.ascii "EFI_NETWORK_INTERFACE_IDENTIFIER_INTERFACE_REVISION EFI_NETWORK_INTERFACE_IDENTIFIER_PROTO
 16694      4E455457 
 16694      4F524B5F 
 16694      494E5445 
 16694      52464143 
 16695 c9ea 04       		.byte	0x4
 16696              		.file 26 "gnu-efi-3.0.18/inc/efipxebc.h"
 16697 c9eb 03       		.byte	0x3
 16698 c9ec 4A       		.uleb128 0x4a
 16699 c9ed 1A       		.uleb128 0x1a
 16700 c9ee 01       		.byte	0x1
 16701 c9ef 02       		.uleb128 0x2
 16702 c9f0 5F454649 		.ascii "_EFIPXEBC_H \0"
 16702      50584542 
 16702      435F4820 
 16702      00
 16703 c9fd 01       		.byte	0x1
 16704 c9fe 1A       		.uleb128 0x1a
 16705 c9ff 4546495F 		.ascii "EFI_PXE_BASE_CODE_PROTOCOL_GUID { 0x03c4e603, 0xac28, 0x11d3, {0x9a, 0x2d, 0x00, 0x90, 0x2
 16705      5058455F 
 16705      42415345 
 16705      5F434F44 
 16705      455F5052 
 16706 ca70 01       		.byte	0x1
 16707 ca71 1F       		.uleb128 0x1f
 16708 ca72 44454641 		.ascii "DEFAULT_TTL 4\0"
 16708      554C545F 
 16708      54544C20 
 16708      3400
 16709 ca80 01       		.byte	0x1
 16710 ca81 20       		.uleb128 0x20
 16711 ca82 44454641 		.ascii "DEFAULT_ToS 0\0"
 16711      554C545F 
 16711      546F5320 
 16711      3000
 16712 ca90 01       		.byte	0x1
 16713 ca91 68       		.uleb128 0x68
 16714 ca92 4546495F 		.ascii "EFI_PXE_BASE_CODE_MAX_IPCNT 8\0"
 16714      5058455F 
 16714      42415345 
 16714      5F434F44 
 16714      455F4D41 
 16715 cab0 01       		.byte	0x1
 16716 cab1 70       		.uleb128 0x70
 16717 cab2 4546495F 		.ascii "EFI_PXE_BASE_CODE_IP_FILTER_STATION_IP 0x0001\0"
 16717      5058455F 
 16717      42415345 
 16717      5F434F44 
 16717      455F4950 
 16718 cae0 01       		.byte	0x1
 16719 cae1 71       		.uleb128 0x71
 16720 cae2 4546495F 		.ascii "EFI_PXE_BASE_CODE_IP_FILTER_BROADCAST 0x0002\0"
 16720      5058455F 
 16720      42415345 
 16720      5F434F44 
 16720      455F4950 
 16721 cb0f 01       		.byte	0x1
 16722 cb10 72       		.uleb128 0x72
 16723 cb11 4546495F 		.ascii "EFI_PXE_BASE_CODE_IP_FILTER_PROMISCUOUS 0x0004\0"
 16723      5058455F 
 16723      42415345 
 16723      5F434F44 
 16723      455F4950 
 16724 cb40 01       		.byte	0x1
 16725 cb41 73       		.uleb128 0x73
 16726 cb42 4546495F 		.ascii "EFI_PXE_BASE_CODE_IP_FILTER_PROMISCUOUS_MULTICAST 0x0008\0"
 16726      5058455F 
 16726      42415345 
 16726      5F434F44 
 16726      455F4950 
 16727 cb7b 01       		.byte	0x1
 16728 cb7c 8801     		.uleb128 0x88
 16729 cb7e 4546495F 		.ascii "EFI_PXE_BASE_CODE_UDP_OPFLAGS_ANY_SRC_IP 0x0001\0"
 16729      5058455F 
 16729      42415345 
 16729      5F434F44 
 16729      455F5544 
 16730 cbae 01       		.byte	0x1
 16731 cbaf 8901     		.uleb128 0x89
 16732 cbb1 4546495F 		.ascii "EFI_PXE_BASE_CODE_UDP_OPFLAGS_ANY_SRC_PORT 0x0002\0"
 16732      5058455F 
 16732      42415345 
 16732      5F434F44 
 16732      455F5544 
 16733 cbe3 01       		.byte	0x1
 16734 cbe4 8A01     		.uleb128 0x8a
 16735 cbe6 4546495F 		.ascii "EFI_PXE_BASE_CODE_UDP_OPFLAGS_ANY_DEST_IP 0x0004\0"
 16735      5058455F 
 16735      42415345 
 16735      5F434F44 
 16735      455F5544 
 16736 cc17 01       		.byte	0x1
 16737 cc18 8B01     		.uleb128 0x8b
 16738 cc1a 4546495F 		.ascii "EFI_PXE_BASE_CODE_UDP_OPFLAGS_ANY_DEST_PORT 0x0008\0"
 16738      5058455F 
 16738      42415345 
 16738      5F434F44 
 16738      455F5544 
 16739 cc4d 01       		.byte	0x1
 16740 cc4e 8C01     		.uleb128 0x8c
 16741 cc50 4546495F 		.ascii "EFI_PXE_BASE_CODE_UDP_OPFLAGS_USE_FILTER 0x0010\0"
 16741      5058455F 
 16741      42415345 
 16741      5F434F44 
 16741      455F5544 
 16742 cc80 01       		.byte	0x1
 16743 cc81 8D01     		.uleb128 0x8d
 16744 cc83 4546495F 		.ascii "EFI_PXE_BASE_CODE_UDP_OPFLAGS_MAY_FRAGMENT 0x0020\0"
 16744      5058455F 
 16744      42415345 
 16744      5F434F44 
 16744      455F5544 
 16745 ccb5 01       		.byte	0x1
 16746 ccb6 9301     		.uleb128 0x93
 16747 ccb8 4546495F 		.ascii "EFI_PXE_BASE_CODE_BOOT_TYPE_BOOTSTRAP 0\0"
 16747      5058455F 
 16747      42415345 
 16747      5F434F44 
 16747      455F424F 
 16748 cce0 01       		.byte	0x1
 16749 cce1 9401     		.uleb128 0x94
 16750 cce3 4546495F 		.ascii "EFI_PXE_BASE_CODE_BOOT_TYPE_MS_WINNT_RIS 1\0"
 16750      5058455F 
 16750      42415345 
 16750      5F434F44 
 16750      455F424F 
 16751 cd0e 01       		.byte	0x1
 16752 cd0f 9501     		.uleb128 0x95
 16753 cd11 4546495F 		.ascii "EFI_PXE_BASE_CODE_BOOT_TYPE_INTEL_LCM 2\0"
 16753      5058455F 
 16753      42415345 
 16753      5F434F44 
 16753      455F424F 
 16754 cd39 01       		.byte	0x1
 16755 cd3a 9601     		.uleb128 0x96
 16756 cd3c 4546495F 		.ascii "EFI_PXE_BASE_CODE_BOOT_TYPE_DOSUNDI 3\0"
 16756      5058455F 
 16756      42415345 
 16756      5F434F44 
 16756      455F424F 
 16757 cd62 01       		.byte	0x1
 16758 cd63 9701     		.uleb128 0x97
 16759 cd65 4546495F 		.ascii "EFI_PXE_BASE_CODE_BOOT_TYPE_NEC_ESMPRO 4\0"
 16759      5058455F 
 16759      42415345 
 16759      5F434F44 
 16759      455F424F 
 16760 cd8e 01       		.byte	0x1
 16761 cd8f 9801     		.uleb128 0x98
 16762 cd91 4546495F 		.ascii "EFI_PXE_BASE_CODE_BOOT_TYPE_IBM_WSoD 5\0"
 16762      5058455F 
 16762      42415345 
 16762      5F434F44 
 16762      455F424F 
 16763 cdb8 01       		.byte	0x1
 16764 cdb9 9901     		.uleb128 0x99
 16765 cdbb 4546495F 		.ascii "EFI_PXE_BASE_CODE_BOOT_TYPE_IBM_LCCM 6\0"
 16765      5058455F 
 16765      42415345 
 16765      5F434F44 
 16765      455F424F 
 16766 cde2 01       		.byte	0x1
 16767 cde3 9A01     		.uleb128 0x9a
 16768 cde5 4546495F 		.ascii "EFI_PXE_BASE_CODE_BOOT_TYPE_CA_UNICENTER_TNG 7\0"
 16768      5058455F 
 16768      42415345 
 16768      5F434F44 
 16768      455F424F 
 16769 ce14 01       		.byte	0x1
 16770 ce15 9B01     		.uleb128 0x9b
 16771 ce17 4546495F 		.ascii "EFI_PXE_BASE_CODE_BOOT_TYPE_HP_OPENVIEW 8\0"
 16771      5058455F 
 16771      42415345 
 16771      5F434F44 
 16771      455F424F 
 16772 ce41 01       		.byte	0x1
 16773 ce42 9C01     		.uleb128 0x9c
 16774 ce44 4546495F 		.ascii "EFI_PXE_BASE_CODE_BOOT_TYPE_ALTIRIS_9 9\0"
 16774      5058455F 
 16774      42415345 
 16774      5F434F44 
 16774      455F424F 
 16775 ce6c 01       		.byte	0x1
 16776 ce6d 9D01     		.uleb128 0x9d
 16777 ce6f 4546495F 		.ascii "EFI_PXE_BASE_CODE_BOOT_TYPE_ALTIRIS_10 10\0"
 16777      5058455F 
 16777      42415345 
 16777      5F434F44 
 16777      455F424F 
 16778 ce99 01       		.byte	0x1
 16779 ce9a 9E01     		.uleb128 0x9e
 16780 ce9c 4546495F 		.ascii "EFI_PXE_BASE_CODE_BOOT_TYPE_ALTIRIS_11 11\0"
 16780      5058455F 
 16780      42415345 
 16780      5F434F44 
 16780      455F424F 
 16781 cec6 01       		.byte	0x1
 16782 cec7 9F01     		.uleb128 0x9f
 16783 cec9 4546495F 		.ascii "EFI_PXE_BASE_CODE_BOOT_TYPE_NOT_USED_12 12\0"
 16783      5058455F 
 16783      42415345 
 16783      5F434F44 
 16783      455F424F 
 16784 cef4 01       		.byte	0x1
 16785 cef5 A001     		.uleb128 0xa0
 16786 cef7 4546495F 		.ascii "EFI_PXE_BASE_CODE_BOOT_TYPE_REDHAT_INSTALL 13\0"
 16786      5058455F 
 16786      42415345 
 16786      5F434F44 
 16786      455F424F 
 16787 cf25 01       		.byte	0x1
 16788 cf26 A101     		.uleb128 0xa1
 16789 cf28 4546495F 		.ascii "EFI_PXE_BASE_CODE_BOOT_TYPE_REDHAT_BOOT 14\0"
 16789      5058455F 
 16789      42415345 
 16789      5F434F44 
 16789      455F424F 
 16790 cf53 01       		.byte	0x1
 16791 cf54 A201     		.uleb128 0xa2
 16792 cf56 4546495F 		.ascii "EFI_PXE_BASE_CODE_BOOT_TYPE_REMBO 15\0"
 16792      5058455F 
 16792      42415345 
 16792      5F434F44 
 16792      455F424F 
 16793 cf7b 01       		.byte	0x1
 16794 cf7c A301     		.uleb128 0xa3
 16795 cf7e 4546495F 		.ascii "EFI_PXE_BASE_CODE_BOOT_TYPE_BEOBOOT 16\0"
 16795      5058455F 
 16795      42415345 
 16795      5F434F44 
 16795      455F424F 
 16796 cfa5 01       		.byte	0x1
 16797 cfa6 A901     		.uleb128 0xa9
 16798 cfa8 4546495F 		.ascii "EFI_PXE_BASE_CODE_BOOT_TYPE_PXETEST 65535\0"
 16798      5058455F 
 16798      42415345 
 16798      5F434F44 
 16798      455F424F 
 16799 cfd2 01       		.byte	0x1
 16800 cfd3 AB01     		.uleb128 0xab
 16801 cfd5 4546495F 		.ascii "EFI_PXE_BASE_CODE_BOOT_LAYER_MASK 0x7FFF\0"
 16801      5058455F 
 16801      42415345 
 16801      5F434F44 
 16801      455F424F 
 16802 cffe 01       		.byte	0x1
 16803 cfff AC01     		.uleb128 0xac
 16804 d001 4546495F 		.ascii "EFI_PXE_BASE_CODE_BOOT_LAYER_INITIAL 0x0000\0"
 16804      5058455F 
 16804      42415345 
 16804      5F434F44 
 16804      455F424F 
 16805 d02d 01       		.byte	0x1
 16806 d02e DC01     		.uleb128 0xdc
 16807 d030 4546495F 		.ascii "EFI_PXE_BASE_CODE_MAX_ARP_ENTRIES 8\0"
 16807      5058455F 
 16807      42415345 
 16807      5F434F44 
 16807      455F4D41 
 16808 d054 01       		.byte	0x1
 16809 d055 DD01     		.uleb128 0xdd
 16810 d057 4546495F 		.ascii "EFI_PXE_BASE_CODE_MAX_ROUTE_ENTRIES 8\0"
 16810      5058455F 
 16810      42415345 
 16810      5F434F44 
 16810      455F4D41 
 16811 d07d 01       		.byte	0x1
 16812 d07e 8C03     		.uleb128 0x18c
 16813 d080 4546495F 		.ascii "EFI_PXE_BASE_CODE_PROTOCOL_REVISION 0x00010000\0"
 16813      5058455F 
 16813      42415345 
 16813      5F434F44 
 16813      455F5052 
 16814 d0af 01       		.byte	0x1
 16815 d0b0 8D03     		.uleb128 0x18d
 16816 d0b2 4546495F 		.ascii "EFI_PXE_BASE_CODE_INTERFACE_REVISION EFI_PXE_BASE_CODE_PROTOCOL_REVISION\0"
 16816      5058455F 
 16816      42415345 
 16816      5F434F44 
 16816      455F494E 
 16817 d0fb 01       		.byte	0x1
 16818 d0fc AC03     		.uleb128 0x1ac
 16819 d0fe 4546495F 		.ascii "EFI_PXE_BASE_CODE_CALLBACK_PROTOCOL_GUID { 0x245dca21, 0xfb7b, 0x11d3, {0x8f, 0x01, 0x00, 
 16819      5058455F 
 16819      42415345 
 16819      5F434F44 
 16819      455F4341 
 16820 d178 01       		.byte	0x1
 16821 d179 B303     		.uleb128 0x1b3
 16822 d17b 4546495F 		.ascii "EFI_PXE_BASE_CODE_CALLBACK_PROTOCOL_REVISION 0x00010000\0"
 16822      5058455F 
 16822      42415345 
 16822      5F434F44 
 16822      455F4341 
 16823 d1b3 01       		.byte	0x1
 16824 d1b4 B403     		.uleb128 0x1b4
 16825 d1b6 4546495F 		.ascii "EFI_PXE_BASE_CODE_CALLBACK_INTERFACE_REVISION EFI_PXE_BASE_CODE_CALLBACK_PROTOCOL_REVISION
 16825      5058455F 
 16825      42415345 
 16825      5F434F44 
 16825      455F4341 
 16826 d211 04       		.byte	0x4
 16827              		.file 27 "gnu-efi-3.0.18/inc/efinet.h"
 16828 d212 03       		.byte	0x3
 16829 d213 4B       		.uleb128 0x4b
 16830 d214 1B       		.uleb128 0x1b
 16831 d215 01       		.byte	0x1
 16832 d216 02       		.uleb128 0x2
 16833 d217 5F454649 		.ascii "_EFINET_H \0"
 16833      4E45545F 
 16833      482000
 16834 d222 01       		.byte	0x1
 16835 d223 17       		.uleb128 0x17
 16836 d224 4546495F 		.ascii "EFI_SIMPLE_NETWORK_PROTOCOL_GUID { 0xA19832B9, 0xAC25, 0x11D3, {0x9A, 0x2D, 0x00, 0x90, 0x
 16836      53494D50 
 16836      4C455F4E 
 16836      4554574F 
 16836      524B5F50 
 16837 d296 01       		.byte	0x1
 16838 d297 7D       		.uleb128 0x7d
 16839 d298 4546495F 		.ascii "EFI_SIMPLE_NETWORK_RECEIVE_UNICAST 0x01\0"
 16839      53494D50 
 16839      4C455F4E 
 16839      4554574F 
 16839      524B5F52 
 16840 d2c0 01       		.byte	0x1
 16841 d2c1 7E       		.uleb128 0x7e
 16842 d2c2 4546495F 		.ascii "EFI_SIMPLE_NETWORK_RECEIVE_MULTICAST 0x02\0"
 16842      53494D50 
 16842      4C455F4E 
 16842      4554574F 
 16842      524B5F52 
 16843 d2ec 01       		.byte	0x1
 16844 d2ed 7F       		.uleb128 0x7f
 16845 d2ee 4546495F 		.ascii "EFI_SIMPLE_NETWORK_RECEIVE_BROADCAST 0x04\0"
 16845      53494D50 
 16845      4C455F4E 
 16845      4554574F 
 16845      524B5F52 
 16846 d318 01       		.byte	0x1
 16847 d319 8001     		.uleb128 0x80
 16848 d31b 4546495F 		.ascii "EFI_SIMPLE_NETWORK_RECEIVE_PROMISCUOUS 0x08\0"
 16848      53494D50 
 16848      4C455F4E 
 16848      4554574F 
 16848      524B5F52 
 16849 d347 01       		.byte	0x1
 16850 d348 8101     		.uleb128 0x81
 16851 d34a 4546495F 		.ascii "EFI_SIMPLE_NETWORK_RECEIVE_PROMISCUOUS_MULTICAST 0x10\0"
 16851      53494D50 
 16851      4C455F4E 
 16851      4554574F 
 16851      524B5F52 
 16852 d380 01       		.byte	0x1
 16853 d381 8601     		.uleb128 0x86
 16854 d383 4546495F 		.ascii "EFI_SIMPLE_NETWORK_RECEIVE_INTERRUPT 0x01\0"
 16854      53494D50 
 16854      4C455F4E 
 16854      4554574F 
 16854      524B5F52 
 16855 d3ad 01       		.byte	0x1
 16856 d3ae 8701     		.uleb128 0x87
 16857 d3b0 4546495F 		.ascii "EFI_SIMPLE_NETWORK_TRANSMIT_INTERRUPT 0x02\0"
 16857      53494D50 
 16857      4C455F4E 
 16857      4554574F 
 16857      524B5F54 
 16858 d3db 01       		.byte	0x1
 16859 d3dc 8801     		.uleb128 0x88
 16860 d3de 4546495F 		.ascii "EFI_SIMPLE_NETWORK_COMMAND_INTERRUPT 0x04\0"
 16860      53494D50 
 16860      4C455F4E 
 16860      4554574F 
 16860      524B5F43 
 16861 d408 01       		.byte	0x1
 16862 d409 8901     		.uleb128 0x89
 16863 d40b 4546495F 		.ascii "EFI_SIMPLE_NETWORK_SOFTWARE_INTERRUPT 0x08\0"
 16863      53494D50 
 16863      4C455F4E 
 16863      4554574F 
 16863      524B5F53 
 16864 d436 01       		.byte	0x1
 16865 d437 8D01     		.uleb128 0x8d
 16866 d439 4D41585F 		.ascii "MAX_MCAST_FILTER_CNT 16\0"
 16866      4D434153 
 16866      545F4649 
 16866      4C544552 
 16866      5F434E54 
 16867 d451 01       		.byte	0x1
 16868 d452 BE02     		.uleb128 0x13e
 16869 d454 4546495F 		.ascii "EFI_SIMPLE_NETWORK_PROTOCOL_REVISION 0x00010000\0"
 16869      53494D50 
 16869      4C455F4E 
 16869      4554574F 
 16869      524B5F50 
 16870 d484 01       		.byte	0x1
 16871 d485 BF02     		.uleb128 0x13f
 16872 d487 4546495F 		.ascii "EFI_SIMPLE_NETWORK_INTERFACE_REVISION EFI_SIMPLE_NETWORK_PROTOCOL_REVISION\0"
 16872      53494D50 
 16872      4C455F4E 
 16872      4554574F 
 16872      524B5F49 
 16873 d4d2 04       		.byte	0x4
 16874 d4d3 03       		.byte	0x3
 16875 d4d4 4C       		.uleb128 0x4c
 16876 d4d5 08       		.uleb128 0x8
 16877 d4d6 01       		.byte	0x1
 16878 d4d7 02       		.uleb128 0x2
 16879 d4d8 5F454649 		.ascii "_EFI_API_H \0"
 16879      5F415049 
 16879      5F482000 
 16880 d4e4 01       		.byte	0x1
 16881 d4e5 1B       		.uleb128 0x1b
 16882 d4e6 4546495F 		.ascii "EFI_SPECIFICATION_REVISION_MAJORMINOR(major,minor) ((major<<16) | (minor))\0"
 16882      53504543 
 16882      49464943 
 16882      4154494F 
 16882      4E5F5245 
 16883 d531 01       		.byte	0x1
 16884 d532 1C       		.uleb128 0x1c
 16885 d533 4546495F 		.ascii "EFI_SPECIFICATION_MAJOR_REVISION 1\0"
 16885      53504543 
 16885      49464943 
 16885      4154494F 
 16885      4E5F4D41 
 16886 d556 01       		.byte	0x1
 16887 d557 1D       		.uleb128 0x1d
 16888 d558 4546495F 		.ascii "EFI_SPECIFICATION_MINOR_REVISION 02\0"
 16888      53504543 
 16888      49464943 
 16888      4154494F 
 16888      4E5F4D49 
 16889 d57c 01       		.byte	0x1
 16890 d57d 1E       		.uleb128 0x1e
 16891 d57e 4546495F 		.ascii "EFI_SPECIFICATION_VERSION EFI_SPECIFICATION_REVISION_MAJORMINOR(EFI_SPECIFICATION_MAJOR_RE
 16891      53504543 
 16891      49464943 
 16891      4154494F 
 16891      4E5F5645 
 16892 d602 01       		.byte	0x1
 16893 d603 44       		.uleb128 0x44
 16894 d604 4E657874 		.ascii "NextMemoryDescriptor(Ptr,Size) ((EFI_MEMORY_DESCRIPTOR *) (((UINT8 *) Ptr) + Size))\0"
 16894      4D656D6F 
 16894      72794465 
 16894      73637269 
 16894      70746F72 
 16895 d658 01       		.byte	0x1
 16896 d659 5F       		.uleb128 0x5f
 16897 d65a 4546495F 		.ascii "EFI_OPTIONAL_PTR 0x00000001\0"
 16897      4F505449 
 16897      4F4E414C 
 16897      5F505452 
 16897      20307830 
 16898 d676 01       		.byte	0x1
 16899 d677 60       		.uleb128 0x60
 16900 d678 4546495F 		.ascii "EFI_INTERNAL_FNC 0x00000002\0"
 16900      494E5445 
 16900      524E414C 
 16900      5F464E43 
 16900      20307830 
 16901 d694 01       		.byte	0x1
 16902 d695 61       		.uleb128 0x61
 16903 d696 4546495F 		.ascii "EFI_INTERNAL_PTR 0x00000004\0"
 16903      494E5445 
 16903      524E414C 
 16903      5F505452 
 16903      20307830 
 16904 d6b2 01       		.byte	0x1
 16905 d6b3 70       		.uleb128 0x70
 16906 d6b4 4556545F 		.ascii "EVT_TIMER 0x80000000\0"
 16906      54494D45 
 16906      52203078 
 16906      38303030 
 16906      30303030 
 16907 d6c9 01       		.byte	0x1
 16908 d6ca 71       		.uleb128 0x71
 16909 d6cb 4556545F 		.ascii "EVT_RUNTIME 0x40000000\0"
 16909      52554E54 
 16909      494D4520 
 16909      30783430 
 16909      30303030 
 16910 d6e2 01       		.byte	0x1
 16911 d6e3 72       		.uleb128 0x72
 16912 d6e4 4556545F 		.ascii "EVT_RUNTIME_CONTEXT 0x20000000\0"
 16912      52554E54 
 16912      494D455F 
 16912      434F4E54 
 16912      45585420 
 16913 d703 01       		.byte	0x1
 16914 d704 74       		.uleb128 0x74
 16915 d705 4556545F 		.ascii "EVT_NOTIFY_WAIT 0x00000100\0"
 16915      4E4F5449 
 16915      46595F57 
 16915      41495420 
 16915      30783030 
 16916 d720 01       		.byte	0x1
 16917 d721 75       		.uleb128 0x75
 16918 d722 4556545F 		.ascii "EVT_NOTIFY_SIGNAL 0x00000200\0"
 16918      4E4F5449 
 16918      46595F53 
 16918      49474E41 
 16918      4C203078 
 16919 d73f 01       		.byte	0x1
 16920 d740 77       		.uleb128 0x77
 16921 d741 4556545F 		.ascii "EVT_SIGNAL_EXIT_BOOT_SERVICES 0x00000201\0"
 16921      5349474E 
 16921      414C5F45 
 16921      5849545F 
 16921      424F4F54 
 16922 d76a 01       		.byte	0x1
 16923 d76b 78       		.uleb128 0x78
 16924 d76c 4556545F 		.ascii "EVT_SIGNAL_VIRTUAL_ADDRESS_CHANGE 0x60000202\0"
 16924      5349474E 
 16924      414C5F56 
 16924      49525455 
 16924      414C5F41 
 16925 d799 01       		.byte	0x1
 16926 d79a 7A       		.uleb128 0x7a
 16927 d79b 4556545F 		.ascii "EVT_EFI_SIGNAL_MASK 0x000000FF\0"
 16927      4546495F 
 16927      5349474E 
 16927      414C5F4D 
 16927      41534B20 
 16928 d7ba 01       		.byte	0x1
 16929 d7bb 7B       		.uleb128 0x7b
 16930 d7bc 4556545F 		.ascii "EVT_EFI_SIGNAL_MAX 4\0"
 16930      4546495F 
 16930      5349474E 
 16930      414C5F4D 
 16930      41582034 
 16931 d7d1 01       		.byte	0x1
 16932 d7d2 7D       		.uleb128 0x7d
 16933 d7d3 4546495F 		.ascii "EFI_EVENT_TIMER EVT_TIMER\0"
 16933      4556454E 
 16933      545F5449 
 16933      4D455220 
 16933      4556545F 
 16934 d7ed 01       		.byte	0x1
 16935 d7ee 7E       		.uleb128 0x7e
 16936 d7ef 4546495F 		.ascii "EFI_EVENT_RUNTIME EVT_RUNTIME\0"
 16936      4556454E 
 16936      545F5255 
 16936      4E54494D 
 16936      45204556 
 16937 d80d 01       		.byte	0x1
 16938 d80e 7F       		.uleb128 0x7f
 16939 d80f 4546495F 		.ascii "EFI_EVENT_RUNTIME_CONTEXT EVT_RUNTIME_CONTEXT\0"
 16939      4556454E 
 16939      545F5255 
 16939      4E54494D 
 16939      455F434F 
 16940 d83d 01       		.byte	0x1
 16941 d83e 8001     		.uleb128 0x80
 16942 d840 4546495F 		.ascii "EFI_EVENT_NOTIFY_WAIT EVT_NOTIFY_WAIT\0"
 16942      4556454E 
 16942      545F4E4F 
 16942      54494659 
 16942      5F574149 
 16943 d866 01       		.byte	0x1
 16944 d867 8101     		.uleb128 0x81
 16945 d869 4546495F 		.ascii "EFI_EVENT_NOTIFY_SIGNAL EVT_NOTIFY_SIGNAL\0"
 16945      4556454E 
 16945      545F4E4F 
 16945      54494659 
 16945      5F534947 
 16946 d893 01       		.byte	0x1
 16947 d894 8201     		.uleb128 0x82
 16948 d896 4546495F 		.ascii "EFI_EVENT_SIGNAL_EXIT_BOOT_SERVICES EVT_SIGNAL_EXIT_BOOT_SERVICES\0"
 16948      4556454E 
 16948      545F5349 
 16948      474E414C 
 16948      5F455849 
 16949 d8d8 01       		.byte	0x1
 16950 d8d9 8301     		.uleb128 0x83
 16951 d8db 4546495F 		.ascii "EFI_EVENT_SIGNAL_VIRTUAL_ADDRESS_CHANGE EVT_SIGNAL_VIRTUAL_ADDRESS_CHANGE\0"
 16951      4556454E 
 16951      545F5349 
 16951      474E414C 
 16951      5F564952 
 16952 d925 01       		.byte	0x1
 16953 d926 8401     		.uleb128 0x84
 16954 d928 4546495F 		.ascii "EFI_EVENT_EFI_SIGNAL_MASK EVT_EFI_SIGNAL_MASK\0"
 16954      4556454E 
 16954      545F4546 
 16954      495F5349 
 16954      474E414C 
 16955 d956 01       		.byte	0x1
 16956 d957 8501     		.uleb128 0x85
 16957 d959 4546495F 		.ascii "EFI_EVENT_EFI_SIGNAL_MAX EVT_EFI_SIGNAL_MAX\0"
 16957      4556454E 
 16957      545F4546 
 16957      495F5349 
 16957      474E414C 
 16958 d985 01       		.byte	0x1
 16959 d986 C601     		.uleb128 0xc6
 16960 d988 54504C5F 		.ascii "TPL_APPLICATION 4\0"
 16960      4150504C 
 16960      49434154 
 16960      494F4E20 
 16960      3400
 16961 d99a 01       		.byte	0x1
 16962 d99b C701     		.uleb128 0xc7
 16963 d99d 54504C5F 		.ascii "TPL_CALLBACK 8\0"
 16963      43414C4C 
 16963      4241434B 
 16963      203800
 16964 d9ac 01       		.byte	0x1
 16965 d9ad C801     		.uleb128 0xc8
 16966 d9af 54504C5F 		.ascii "TPL_NOTIFY 16\0"
 16966      4E4F5449 
 16966      46592031 
 16966      3600
 16967 d9bd 01       		.byte	0x1
 16968 d9be C901     		.uleb128 0xc9
 16969 d9c0 54504C5F 		.ascii "TPL_HIGH_LEVEL 31\0"
 16969      48494748 
 16969      5F4C4556 
 16969      454C2033 
 16969      3100
 16970 d9d2 01       		.byte	0x1
 16971 d9d3 CA01     		.uleb128 0xca
 16972 d9d5 4546495F 		.ascii "EFI_TPL_APPLICATION TPL_APPLICATION\0"
 16972      54504C5F 
 16972      4150504C 
 16972      49434154 
 16972      494F4E20 
 16973 d9f9 01       		.byte	0x1
 16974 d9fa CB01     		.uleb128 0xcb
 16975 d9fc 4546495F 		.ascii "EFI_TPL_CALLBACK TPL_CALLBACK\0"
 16975      54504C5F 
 16975      43414C4C 
 16975      4241434B 
 16975      2054504C 
 16976 da1a 01       		.byte	0x1
 16977 da1b CC01     		.uleb128 0xcc
 16978 da1d 4546495F 		.ascii "EFI_TPL_NOTIFY TPL_NOTIFY\0"
 16978      54504C5F 
 16978      4E4F5449 
 16978      46592054 
 16978      504C5F4E 
 16979 da37 01       		.byte	0x1
 16980 da38 CD01     		.uleb128 0xcd
 16981 da3a 4546495F 		.ascii "EFI_TPL_HIGH_LEVEL TPL_HIGH_LEVEL\0"
 16981      54504C5F 
 16981      48494748 
 16981      5F4C4556 
 16981      454C2054 
 16982 da5c 01       		.byte	0x1
 16983 da5d DF01     		.uleb128 0xdf
 16984 da5f 4546495F 		.ascii "EFI_GLOBAL_VARIABLE { 0x8BE4DF61, 0x93CA, 0x11d2, {0xAA, 0x0D, 0x00, 0xE0, 0x98, 0x03, 0x2
 16984      474C4F42 
 16984      414C5F56 
 16984      41524941 
 16984      424C4520 
 16985 dac4 01       		.byte	0x1
 16986 dac5 E301     		.uleb128 0xe3
 16987 dac7 4546495F 		.ascii "EFI_VARIABLE_NON_VOLATILE 0x00000001\0"
 16987      56415249 
 16987      41424C45 
 16987      5F4E4F4E 
 16987      5F564F4C 
 16988 daec 01       		.byte	0x1
 16989 daed E401     		.uleb128 0xe4
 16990 daef 4546495F 		.ascii "EFI_VARIABLE_BOOTSERVICE_ACCESS 0x00000002\0"
 16990      56415249 
 16990      41424C45 
 16990      5F424F4F 
 16990      54534552 
 16991 db1a 01       		.byte	0x1
 16992 db1b E501     		.uleb128 0xe5
 16993 db1d 4546495F 		.ascii "EFI_VARIABLE_RUNTIME_ACCESS 0x00000004\0"
 16993      56415249 
 16993      41424C45 
 16993      5F52554E 
 16993      54494D45 
 16994 db44 01       		.byte	0x1
 16995 db45 E601     		.uleb128 0xe6
 16996 db47 4546495F 		.ascii "EFI_VARIABLE_HARDWARE_ERROR_RECORD 0x00000008\0"
 16996      56415249 
 16996      41424C45 
 16996      5F484152 
 16996      44574152 
 16997 db75 01       		.byte	0x1
 16998 db76 E701     		.uleb128 0xe7
 16999 db78 4546495F 		.ascii "EFI_VARIABLE_AUTHENTICATED_WRITE_ACCESS 0x00000010\0"
 16999      56415249 
 16999      41424C45 
 16999      5F415554 
 16999      48454E54 
 17000 dbab 01       		.byte	0x1
 17001 dbac E801     		.uleb128 0xe8
 17002 dbae 4546495F 		.ascii "EFI_VARIABLE_TIME_BASED_AUTHENTICATED_WRITE_ACCESS 0x00000020\0"
 17002      56415249 
 17002      41424C45 
 17002      5F54494D 
 17002      455F4241 
 17003 dbec 01       		.byte	0x1
 17004 dbed E901     		.uleb128 0xe9
 17005 dbef 4546495F 		.ascii "EFI_VARIABLE_APPEND_WRITE 0x00000040\0"
 17005      56415249 
 17005      41424C45 
 17005      5F415050 
 17005      454E445F 
 17006 dc14 01       		.byte	0x1
 17007 dc15 EA01     		.uleb128 0xea
 17008 dc17 4546495F 		.ascii "EFI_VARIABLE_ENHANCED_AUTHENTICATED_ACCESS 0x00000080\0"
 17008      56415249 
 17008      41424C45 
 17008      5F454E48 
 17008      414E4345 
 17009 dc4d 01       		.byte	0x1
 17010 dc4e ED01     		.uleb128 0xed
 17011 dc50 4546495F 		.ascii "EFI_MAXIMUM_VARIABLE_SIZE 1024\0"
 17011      4D415849 
 17011      4D554D5F 
 17011      56415249 
 17011      41424C45 
 17012 dc6f 01       		.byte	0x1
 17013 dc70 BD02     		.uleb128 0x13d
 17014 dc72 494D4147 		.ascii "IMAGE_SUBSYSTEM_EFI_APPLICATION 10\0"
 17014      455F5355 
 17014      42535953 
 17014      54454D5F 
 17014      4546495F 
 17015 dc95 01       		.byte	0x1
 17016 dc96 BE02     		.uleb128 0x13e
 17017 dc98 494D4147 		.ascii "IMAGE_SUBSYSTEM_EFI_BOOT_SERVICE_DRIVER 11\0"
 17017      455F5355 
 17017      42535953 
 17017      54454D5F 
 17017      4546495F 
 17018 dcc3 01       		.byte	0x1
 17019 dcc4 BF02     		.uleb128 0x13f
 17020 dcc6 494D4147 		.ascii "IMAGE_SUBSYSTEM_EFI_RUNTIME_DRIVER 12\0"
 17020      455F5355 
 17020      42535953 
 17020      54454D5F 
 17020      4546495F 
 17021 dcec 01       		.byte	0x1
 17022 dced C502     		.uleb128 0x145
 17023 dcef 4546495F 		.ascii "EFI_IMAGE_MACHINE_IA32 0x014c\0"
 17023      494D4147 
 17023      455F4D41 
 17023      4348494E 
 17023      455F4941 
 17024 dd0d 01       		.byte	0x1
 17025 dd0e C902     		.uleb128 0x149
 17026 dd10 4546495F 		.ascii "EFI_IMAGE_MACHINE_IA64 0x0200\0"
 17026      494D4147 
 17026      455F4D41 
 17026      4348494E 
 17026      455F4941 
 17027 dd2e 01       		.byte	0x1
 17028 dd2f CD02     		.uleb128 0x14d
 17029 dd31 4546495F 		.ascii "EFI_IMAGE_MACHINE_EBC 0x0EBC\0"
 17029      494D4147 
 17029      455F4D41 
 17029      4348494E 
 17029      455F4542 
 17030 dd4e 01       		.byte	0x1
 17031 dd4f D102     		.uleb128 0x151
 17032 dd51 4546495F 		.ascii "EFI_IMAGE_MACHINE_X64 0x8664\0"
 17032      494D4147 
 17032      455F4D41 
 17032      4348494E 
 17032      455F5836 
 17033 dd6e 01       		.byte	0x1
 17034 dd6f D502     		.uleb128 0x155
 17035 dd71 4546495F 		.ascii "EFI_IMAGE_MACHINE_ARMTHUMB_MIXED 0x01C2\0"
 17035      494D4147 
 17035      455F4D41 
 17035      4348494E 
 17035      455F4152 
 17036 dd99 01       		.byte	0x1
 17037 dd9a D902     		.uleb128 0x159
 17038 dd9c 4546495F 		.ascii "EFI_IMAGE_MACHINE_AARCH64 0xAA64\0"
 17038      494D4147 
 17038      455F4D41 
 17038      4348494E 
 17038      455F4141 
 17039 ddbd 01       		.byte	0x1
 17040 ddbe DD02     		.uleb128 0x15d
 17041 ddc0 4546495F 		.ascii "EFI_IMAGE_MACHINE_RISCV32 0x5032\0"
 17041      494D4147 
 17041      455F4D41 
 17041      4348494E 
 17041      455F5249 
 17042 dde1 01       		.byte	0x1
 17043 dde2 E102     		.uleb128 0x161
 17044 dde4 4546495F 		.ascii "EFI_IMAGE_MACHINE_RISCV64 0x5064\0"
 17044      494D4147 
 17044      455F4D41 
 17044      4348494E 
 17044      455F5249 
 17045 de05 01       		.byte	0x1
 17046 de06 E502     		.uleb128 0x165
 17047 de08 4546495F 		.ascii "EFI_IMAGE_MACHINE_RISCV128 0x5128\0"
 17047      494D4147 
 17047      455F4D41 
 17047      4348494E 
 17047      455F5249 
 17048 de2a 01       		.byte	0x1
 17049 de2b E902     		.uleb128 0x169
 17050 de2d 4546495F 		.ascii "EFI_IMAGE_MACHINE_LOONGARCH32 0x6232\0"
 17050      494D4147 
 17050      455F4D41 
 17050      4348494E 
 17050      455F4C4F 
 17051 de52 01       		.byte	0x1
 17052 de53 ED02     		.uleb128 0x16d
 17053 de55 4546495F 		.ascii "EFI_IMAGE_MACHINE_LOONGARCH64 0x6264\0"
 17053      494D4147 
 17053      455F4D41 
 17053      4348494E 
 17053      455F4C4F 
 17054 de7a 01       		.byte	0x1
 17055 de7b E103     		.uleb128 0x1e1
 17056 de7d 4546495F 		.ascii "EFI_OPEN_PROTOCOL_BY_HANDLE_PROTOCOL 0x00000001\0"
 17056      4F50454E 
 17056      5F50524F 
 17056      544F434F 
 17056      4C5F4259 
 17057 dead 01       		.byte	0x1
 17058 deae E203     		.uleb128 0x1e2
 17059 deb0 4546495F 		.ascii "EFI_OPEN_PROTOCOL_GET_PROTOCOL 0x00000002\0"
 17059      4F50454E 
 17059      5F50524F 
 17059      544F434F 
 17059      4C5F4745 
 17060 deda 01       		.byte	0x1
 17061 dedb E303     		.uleb128 0x1e3
 17062 dedd 4546495F 		.ascii "EFI_OPEN_PROTOCOL_TEST_PROTOCOL 0x00000004\0"
 17062      4F50454E 
 17062      5F50524F 
 17062      544F434F 
 17062      4C5F5445 
 17063 df08 01       		.byte	0x1
 17064 df09 E403     		.uleb128 0x1e4
 17065 df0b 4546495F 		.ascii "EFI_OPEN_PROTOCOL_BY_CHILD_CONTROLLER 0x00000008\0"
 17065      4F50454E 
 17065      5F50524F 
 17065      544F434F 
 17065      4C5F4259 
 17066 df3c 01       		.byte	0x1
 17067 df3d E503     		.uleb128 0x1e5
 17068 df3f 4546495F 		.ascii "EFI_OPEN_PROTOCOL_BY_DRIVER 0x00000010\0"
 17068      4F50454E 
 17068      5F50524F 
 17068      544F434F 
 17068      4C5F4259 
 17069 df66 01       		.byte	0x1
 17070 df67 E603     		.uleb128 0x1e6
 17071 df69 4546495F 		.ascii "EFI_OPEN_PROTOCOL_EXCLUSIVE 0x00000020\0"
 17071      4F50454E 
 17071      5F50524F 
 17071      544F434F 
 17071      4C5F4558 
 17072 df90 01       		.byte	0x1
 17073 df91 8805     		.uleb128 0x288
 17074 df93 43415053 		.ascii "CAPSULE_FLAGS_PERSIST_ACROSS_RESET 0x00010000\0"
 17074      554C455F 
 17074      464C4147 
 17074      535F5045 
 17074      52534953 
 17075 dfc1 01       		.byte	0x1
 17076 dfc2 8905     		.uleb128 0x289
 17077 dfc4 43415053 		.ascii "CAPSULE_FLAGS_POPULATE_SYSTEM_TABLE 0x00020000\0"
 17077      554C455F 
 17077      464C4147 
 17077      535F504F 
 17077      50554C41 
 17078 dff3 01       		.byte	0x1
 17079 dff4 8A05     		.uleb128 0x28a
 17080 dff6 43415053 		.ascii "CAPSULE_FLAGS_INITIATE_RESET 0x00040000\0"
 17080      554C455F 
 17080      464C4147 
 17080      535F494E 
 17080      49544941 
 17081 e01e 01       		.byte	0x1
 17082 e01f 8806     		.uleb128 0x308
 17083 e021 4546495F 		.ascii "EFI_RUNTIME_SERVICES_SIGNATURE 0x56524553544e5552\0"
 17083      52554E54 
 17083      494D455F 
 17083      53455256 
 17083      49434553 
 17084 e053 01       		.byte	0x1
 17085 e054 8906     		.uleb128 0x309
 17086 e056 4546495F 		.ascii "EFI_1_02_RUNTIME_SERVICES_REVISION EFI_SPECIFICATION_REVISION_MAJORMINOR(1, 02)\0"
 17086      315F3032 
 17086      5F52554E 
 17086      54494D45 
 17086      5F534552 
 17087 e0a6 01       		.byte	0x1
 17088 e0a7 8A06     		.uleb128 0x30a
 17089 e0a9 4546495F 		.ascii "EFI_1_10_RUNTIME_SERVICES_REVISION EFI_SPECIFICATION_REVISION_MAJORMINOR(1, 10)\0"
 17089      315F3130 
 17089      5F52554E 
 17089      54494D45 
 17089      5F534552 
 17090 e0f9 01       		.byte	0x1
 17091 e0fa 8B06     		.uleb128 0x30b
 17092 e0fc 4546495F 		.ascii "EFI_2_00_RUNTIME_SERVICES_REVISION EFI_SPECIFICATION_REVISION_MAJORMINOR(2, 00)\0"
 17092      325F3030 
 17092      5F52554E 
 17092      54494D45 
 17092      5F534552 
 17093 e14c 01       		.byte	0x1
 17094 e14d 8C06     		.uleb128 0x30c
 17095 e14f 4546495F 		.ascii "EFI_2_10_RUNTIME_SERVICES_REVISION EFI_SPECIFICATION_REVISION_MAJORMINOR(2, 10)\0"
 17095      325F3130 
 17095      5F52554E 
 17095      54494D45 
 17095      5F534552 
 17096 e19f 01       		.byte	0x1
 17097 e1a0 8D06     		.uleb128 0x30d
 17098 e1a2 4546495F 		.ascii "EFI_2_20_RUNTIME_SERVICES_REVISION EFI_SPECIFICATION_REVISION_MAJORMINOR(2, 20)\0"
 17098      325F3230 
 17098      5F52554E 
 17098      54494D45 
 17098      5F534552 
 17099 e1f2 01       		.byte	0x1
 17100 e1f3 8E06     		.uleb128 0x30e
 17101 e1f5 4546495F 		.ascii "EFI_2_30_RUNTIME_SERVICES_REVISION EFI_SPECIFICATION_REVISION_MAJORMINOR(2, 30)\0"
 17101      325F3330 
 17101      5F52554E 
 17101      54494D45 
 17101      5F534552 
 17102 e245 01       		.byte	0x1
 17103 e246 8F06     		.uleb128 0x30f
 17104 e248 4546495F 		.ascii "EFI_2_31_RUNTIME_SERVICES_REVISION EFI_SPECIFICATION_REVISION_MAJORMINOR(2, 31)\0"
 17104      325F3331 
 17104      5F52554E 
 17104      54494D45 
 17104      5F534552 
 17105 e298 01       		.byte	0x1
 17106 e299 9006     		.uleb128 0x310
 17107 e29b 4546495F 		.ascii "EFI_2_40_RUNTIME_SERVICES_REVISION EFI_SPECIFICATION_REVISION_MAJORMINOR(2, 40)\0"
 17107      325F3430 
 17107      5F52554E 
 17107      54494D45 
 17107      5F534552 
 17108 e2eb 01       		.byte	0x1
 17109 e2ec 9106     		.uleb128 0x311
 17110 e2ee 4546495F 		.ascii "EFI_2_50_RUNTIME_SERVICES_REVISION EFI_SPECIFICATION_REVISION_MAJORMINOR(2, 50)\0"
 17110      325F3530 
 17110      5F52554E 
 17110      54494D45 
 17110      5F534552 
 17111 e33e 01       		.byte	0x1
 17112 e33f 9206     		.uleb128 0x312
 17113 e341 4546495F 		.ascii "EFI_2_60_RUNTIME_SERVICES_REVISION EFI_SPECIFICATION_REVISION_MAJORMINOR(2, 60)\0"
 17113      325F3630 
 17113      5F52554E 
 17113      54494D45 
 17113      5F534552 
 17114 e391 01       		.byte	0x1
 17115 e392 9306     		.uleb128 0x313
 17116 e394 4546495F 		.ascii "EFI_2_70_RUNTIME_SERVICES_REVISION EFI_SPECIFICATION_REVISION_MAJORMINOR(2, 70)\0"
 17116      325F3730 
 17116      5F52554E 
 17116      54494D45 
 17116      5F534552 
 17117 e3e4 01       		.byte	0x1
 17118 e3e5 9406     		.uleb128 0x314
 17119 e3e7 4546495F 		.ascii "EFI_2_80_RUNTIME_SERVICES_REVISION EFI_SPECIFICATION_REVISION_MAJORMINOR(2, 80)\0"
 17119      325F3830 
 17119      5F52554E 
 17119      54494D45 
 17119      5F534552 
 17120 e437 01       		.byte	0x1
 17121 e438 9506     		.uleb128 0x315
 17122 e43a 4546495F 		.ascii "EFI_2_90_RUNTIME_SERVICES_REVISION EFI_SPECIFICATION_REVISION_MAJORMINOR(2, 90)\0"
 17122      325F3930 
 17122      5F52554E 
 17122      54494D45 
 17122      5F534552 
 17123 e48a 01       		.byte	0x1
 17124 e48b 9606     		.uleb128 0x316
 17125 e48d 4546495F 		.ascii "EFI_2_100_RUNTIME_SERVICES_REVISION EFI_SPECIFICATION_REVISION_MAJORMINOR(2, 100)\0"
 17125      325F3130 
 17125      305F5255 
 17125      4E54494D 
 17125      455F5345 
 17126 e4df 01       		.byte	0x1
 17127 e4e0 9706     		.uleb128 0x317
 17128 e4e2 4546495F 		.ascii "EFI_RUNTIME_SERVICES_REVISION EFI_SPECIFICATION_VERSION\0"
 17128      52554E54 
 17128      494D455F 
 17128      53455256 
 17128      49434553 
 17129 e51a 01       		.byte	0x1
 17130 e51b C506     		.uleb128 0x345
 17131 e51d 4546495F 		.ascii "EFI_BOOT_SERVICES_SIGNATURE 0x56524553544f4f42\0"
 17131      424F4F54 
 17131      5F534552 
 17131      56494345 
 17131      535F5349 
 17132 e54c 01       		.byte	0x1
 17133 e54d C606     		.uleb128 0x346
 17134 e54f 4546495F 		.ascii "EFI_1_02_BOOT_SERVICES_REVISION EFI_SPECIFICATION_REVISION_MAJORMINOR(1, 02)\0"
 17134      315F3032 
 17134      5F424F4F 
 17134      545F5345 
 17134      52564943 
 17135 e59c 01       		.byte	0x1
 17136 e59d C706     		.uleb128 0x347
 17137 e59f 4546495F 		.ascii "EFI_1_10_BOOT_SERVICES_REVISION EFI_SPECIFICATION_REVISION_MAJORMINOR(1, 10)\0"
 17137      315F3130 
 17137      5F424F4F 
 17137      545F5345 
 17137      52564943 
 17138 e5ec 01       		.byte	0x1
 17139 e5ed C806     		.uleb128 0x348
 17140 e5ef 4546495F 		.ascii "EFI_2_00_BOOT_SERVICES_REVISION EFI_SPECIFICATION_REVISION_MAJORMINOR(2, 00)\0"
 17140      325F3030 
 17140      5F424F4F 
 17140      545F5345 
 17140      52564943 
 17141 e63c 01       		.byte	0x1
 17142 e63d C906     		.uleb128 0x349
 17143 e63f 4546495F 		.ascii "EFI_2_10_BOOT_SERVICES_REVISION EFI_SPECIFICATION_REVISION_MAJORMINOR(2, 10)\0"
 17143      325F3130 
 17143      5F424F4F 
 17143      545F5345 
 17143      52564943 
 17144 e68c 01       		.byte	0x1
 17145 e68d CA06     		.uleb128 0x34a
 17146 e68f 4546495F 		.ascii "EFI_2_20_BOOT_SERVICES_REVISION EFI_SPECIFICATION_REVISION_MAJORMINOR(2, 20)\0"
 17146      325F3230 
 17146      5F424F4F 
 17146      545F5345 
 17146      52564943 
 17147 e6dc 01       		.byte	0x1
 17148 e6dd CB06     		.uleb128 0x34b
 17149 e6df 4546495F 		.ascii "EFI_2_30_BOOT_SERVICES_REVISION EFI_SPECIFICATION_REVISION_MAJORMINOR(2, 30)\0"
 17149      325F3330 
 17149      5F424F4F 
 17149      545F5345 
 17149      52564943 
 17150 e72c 01       		.byte	0x1
 17151 e72d CC06     		.uleb128 0x34c
 17152 e72f 4546495F 		.ascii "EFI_2_31_BOOT_SERVICES_REVISION EFI_SPECIFICATION_REVISION_MAJORMINOR(2, 31)\0"
 17152      325F3331 
 17152      5F424F4F 
 17152      545F5345 
 17152      52564943 
 17153 e77c 01       		.byte	0x1
 17154 e77d CD06     		.uleb128 0x34d
 17155 e77f 4546495F 		.ascii "EFI_2_40_BOOT_SERVICES_REVISION EFI_SPECIFICATION_REVISION_MAJORMINOR(2, 40)\0"
 17155      325F3430 
 17155      5F424F4F 
 17155      545F5345 
 17155      52564943 
 17156 e7cc 01       		.byte	0x1
 17157 e7cd CE06     		.uleb128 0x34e
 17158 e7cf 4546495F 		.ascii "EFI_2_50_BOOT_SERVICES_REVISION EFI_SPECIFICATION_REVISION_MAJORMINOR(2, 50)\0"
 17158      325F3530 
 17158      5F424F4F 
 17158      545F5345 
 17158      52564943 
 17159 e81c 01       		.byte	0x1
 17160 e81d CF06     		.uleb128 0x34f
 17161 e81f 4546495F 		.ascii "EFI_2_60_BOOT_SERVICES_REVISION EFI_SPECIFICATION_REVISION_MAJORMINOR(2, 60)\0"
 17161      325F3630 
 17161      5F424F4F 
 17161      545F5345 
 17161      52564943 
 17162 e86c 01       		.byte	0x1
 17163 e86d D006     		.uleb128 0x350
 17164 e86f 4546495F 		.ascii "EFI_2_70_BOOT_SERVICES_REVISION EFI_SPECIFICATION_REVISION_MAJORMINOR(2, 70)\0"
 17164      325F3730 
 17164      5F424F4F 
 17164      545F5345 
 17164      52564943 
 17165 e8bc 01       		.byte	0x1
 17166 e8bd D106     		.uleb128 0x351
 17167 e8bf 4546495F 		.ascii "EFI_2_80_BOOT_SERVICES_REVISION EFI_SPECIFICATION_REVISION_MAJORMINOR(2, 80)\0"
 17167      325F3830 
 17167      5F424F4F 
 17167      545F5345 
 17167      52564943 
 17168 e90c 01       		.byte	0x1
 17169 e90d D206     		.uleb128 0x352
 17170 e90f 4546495F 		.ascii "EFI_2_90_BOOT_SERVICES_REVISION EFI_SPECIFICATION_REVISION_MAJORMINOR(2, 90)\0"
 17170      325F3930 
 17170      5F424F4F 
 17170      545F5345 
 17170      52564943 
 17171 e95c 01       		.byte	0x1
 17172 e95d D306     		.uleb128 0x353
 17173 e95f 4546495F 		.ascii "EFI_2_100_BOOT_SERVICES_REVISION EFI_SPECIFICATION_REVISION_MAJORMINOR(2, 100)\0"
 17173      325F3130 
 17173      305F424F 
 17173      4F545F53 
 17173      45525649 
 17174 e9ae 01       		.byte	0x1
 17175 e9af D406     		.uleb128 0x354
 17176 e9b1 4546495F 		.ascii "EFI_BOOT_SERVICES_REVISION EFI_SPECIFICATION_VERSION\0"
 17176      424F4F54 
 17176      5F534552 
 17176      56494345 
 17176      535F5245 
 17177 e9e6 01       		.byte	0x1
 17178 e9e7 BF07     		.uleb128 0x3bf
 17179 e9e9 4D50535F 		.ascii "MPS_TABLE_GUID { 0xeb9d2d2f, 0x2d88, 0x11d3, {0x9a, 0x16, 0x0, 0x90, 0x27, 0x3f, 0xc1, 0x4
 17179      5441424C 
 17179      455F4755 
 17179      4944207B 
 17179      20307865 
 17180 ea48 01       		.byte	0x1
 17181 ea49 C207     		.uleb128 0x3c2
 17182 ea4b 41435049 		.ascii "ACPI_TABLE_GUID { 0xeb9d2d30, 0x2d88, 0x11d3, {0x9a, 0x16, 0x0, 0x90, 0x27, 0x3f, 0xc1, 0x
 17182      5F544142 
 17182      4C455F47 
 17182      55494420 
 17182      7B203078 
 17183 eaab 01       		.byte	0x1
 17184 eaac C507     		.uleb128 0x3c5
 17185 eaae 41435049 		.ascii "ACPI_20_TABLE_GUID { 0x8868e871, 0xe4f1, 0x11d3, {0xbc, 0x22, 0x0, 0x80, 0xc7, 0x3c, 0x88,
 17185      5F32305F 
 17185      5441424C 
 17185      455F4755 
 17185      4944207B 
 17186 eb11 01       		.byte	0x1
 17187 eb12 C807     		.uleb128 0x3c8
 17188 eb14 534D4249 		.ascii "SMBIOS_TABLE_GUID { 0xeb9d2d31, 0x2d88, 0x11d3, {0x9a, 0x16, 0x0, 0x90, 0x27, 0x3f, 0xc1, 
 17188      4F535F54 
 17188      41424C45 
 17188      5F475549 
 17188      44207B20 
 17189 eb76 01       		.byte	0x1
 17190 eb77 CB07     		.uleb128 0x3cb
 17191 eb79 534D4249 		.ascii "SMBIOS3_TABLE_GUID { 0xf2fd1544, 0x9794, 0x4a2c, {0x99, 0x2e, 0xe5, 0xbb, 0xcf, 0x20, 0xe3
 17191      4F53335F 
 17191      5441424C 
 17191      455F4755 
 17191      4944207B 
 17192 ebdd 01       		.byte	0x1
 17193 ebde CE07     		.uleb128 0x3ce
 17194 ebe0 53414C5F 		.ascii "SAL_SYSTEM_TABLE_GUID { 0xeb9d2d32, 0x2d88, 0x11d3, {0x9a, 0x16, 0x0, 0x90, 0x27, 0x3f, 0x
 17194      53595354 
 17194      454D5F54 
 17194      41424C45 
 17194      5F475549 
 17195 ec46 01       		.byte	0x1
 17196 ec47 D107     		.uleb128 0x3d1
 17197 ec49 4546495F 		.ascii "EFI_DTB_TABLE_GUID { 0xb1b621d5, 0xf19c, 0x41a5, {0x83, 0x0b, 0xd9, 0x15, 0x2c, 0x69, 0xaa
 17197      4454425F 
 17197      5441424C 
 17197      455F4755 
 17197      4944207B 
 17198 ecad 01       		.byte	0x1
 17199 ecae E107     		.uleb128 0x3e1
 17200 ecb0 4546495F 		.ascii "EFI_SYSTEM_TABLE_SIGNATURE 0x5453595320494249\0"
 17200      53595354 
 17200      454D5F54 
 17200      41424C45 
 17200      5F534947 
 17201 ecde 01       		.byte	0x1
 17202 ecdf E207     		.uleb128 0x3e2
 17203 ece1 4546495F 		.ascii "EFI_1_02_SYSTEM_TABLE_REVISION EFI_SPECIFICATION_REVISION_MAJORMINOR(1, 02)\0"
 17203      315F3032 
 17203      5F535953 
 17203      54454D5F 
 17203      5441424C 
 17204 ed2d 01       		.byte	0x1
 17205 ed2e E307     		.uleb128 0x3e3
 17206 ed30 4546495F 		.ascii "EFI_1_10_SYSTEM_TABLE_REVISION EFI_SPECIFICATION_REVISION_MAJORMINOR(1, 10)\0"
 17206      315F3130 
 17206      5F535953 
 17206      54454D5F 
 17206      5441424C 
 17207 ed7c 01       		.byte	0x1
 17208 ed7d E407     		.uleb128 0x3e4
 17209 ed7f 4546495F 		.ascii "EFI_2_00_SYSTEM_TABLE_REVISION EFI_SPECIFICATION_REVISION_MAJORMINOR(2, 00)\0"
 17209      325F3030 
 17209      5F535953 
 17209      54454D5F 
 17209      5441424C 
 17210 edcb 01       		.byte	0x1
 17211 edcc E507     		.uleb128 0x3e5
 17212 edce 4546495F 		.ascii "EFI_2_10_SYSTEM_TABLE_REVISION EFI_SPECIFICATION_REVISION_MAJORMINOR(2, 10)\0"
 17212      325F3130 
 17212      5F535953 
 17212      54454D5F 
 17212      5441424C 
 17213 ee1a 01       		.byte	0x1
 17214 ee1b E607     		.uleb128 0x3e6
 17215 ee1d 4546495F 		.ascii "EFI_2_20_SYSTEM_TABLE_REVISION EFI_SPECIFICATION_REVISION_MAJORMINOR(2, 20)\0"
 17215      325F3230 
 17215      5F535953 
 17215      54454D5F 
 17215      5441424C 
 17216 ee69 01       		.byte	0x1
 17217 ee6a E707     		.uleb128 0x3e7
 17218 ee6c 4546495F 		.ascii "EFI_2_30_SYSTEM_TABLE_REVISION EFI_SPECIFICATION_REVISION_MAJORMINOR(2, 30)\0"
 17218      325F3330 
 17218      5F535953 
 17218      54454D5F 
 17218      5441424C 
 17219 eeb8 01       		.byte	0x1
 17220 eeb9 E807     		.uleb128 0x3e8
 17221 eebb 4546495F 		.ascii "EFI_2_31_SYSTEM_TABLE_REVISION EFI_SPECIFICATION_REVISION_MAJORMINOR(2, 31)\0"
 17221      325F3331 
 17221      5F535953 
 17221      54454D5F 
 17221      5441424C 
 17222 ef07 01       		.byte	0x1
 17223 ef08 E907     		.uleb128 0x3e9
 17224 ef0a 4546495F 		.ascii "EFI_2_40_SYSTEM_TABLE_REVISION EFI_SPECIFICATION_REVISION_MAJORMINOR(2, 40)\0"
 17224      325F3430 
 17224      5F535953 
 17224      54454D5F 
 17224      5441424C 
 17225 ef56 01       		.byte	0x1
 17226 ef57 EA07     		.uleb128 0x3ea
 17227 ef59 4546495F 		.ascii "EFI_2_50_SYSTEM_TABLE_REVISION EFI_SPECIFICATION_REVISION_MAJORMINOR(2, 50)\0"
 17227      325F3530 
 17227      5F535953 
 17227      54454D5F 
 17227      5441424C 
 17228 efa5 01       		.byte	0x1
 17229 efa6 EB07     		.uleb128 0x3eb
 17230 efa8 4546495F 		.ascii "EFI_2_60_SYSTEM_TABLE_REVISION EFI_SPECIFICATION_REVISION_MAJORMINOR(2, 60)\0"
 17230      325F3630 
 17230      5F535953 
 17230      54454D5F 
 17230      5441424C 
 17231 eff4 01       		.byte	0x1
 17232 eff5 EC07     		.uleb128 0x3ec
 17233 eff7 4546495F 		.ascii "EFI_2_70_SYSTEM_TABLE_REVISION EFI_SPECIFICATION_REVISION_MAJORMINOR(2, 70)\0"
 17233      325F3730 
 17233      5F535953 
 17233      54454D5F 
 17233      5441424C 
 17234 f043 01       		.byte	0x1
 17235 f044 ED07     		.uleb128 0x3ed
 17236 f046 4546495F 		.ascii "EFI_2_80_SYSTEM_TABLE_REVISION EFI_SPECIFICATION_REVISION_MAJORMINOR(2, 80)\0"
 17236      325F3830 
 17236      5F535953 
 17236      54454D5F 
 17236      5441424C 
 17237 f092 01       		.byte	0x1
 17238 f093 EE07     		.uleb128 0x3ee
 17239 f095 4546495F 		.ascii "EFI_2_90_SYSTEM_TABLE_REVISION EFI_SPECIFICATION_REVISION_MAJORMINOR(2, 90)\0"
 17239      325F3930 
 17239      5F535953 
 17239      54454D5F 
 17239      5441424C 
 17240 f0e1 01       		.byte	0x1
 17241 f0e2 EF07     		.uleb128 0x3ef
 17242 f0e4 4546495F 		.ascii "EFI_2_100_SYSTEM_TABLE_REVISION EFI_SPECIFICATION_REVISION_MAJORMINOR(2, 100)\0"
 17242      325F3130 
 17242      305F5359 
 17242      5354454D 
 17242      5F544142 
 17243 f132 01       		.byte	0x1
 17244 f133 F007     		.uleb128 0x3f0
 17245 f135 4546495F 		.ascii "EFI_SYSTEM_TABLE_REVISION EFI_SPECIFICATION_VERSION\0"
 17245      53595354 
 17245      454D5F54 
 17245      41424C45 
 17245      5F524556 
 17246 f169 04       		.byte	0x4
 17247              		.file 28 "gnu-efi-3.0.18/inc/efifs.h"
 17248 f16a 03       		.byte	0x3
 17249 f16b 4D       		.uleb128 0x4d
 17250 f16c 1C       		.uleb128 0x1c
 17251 f16d 01       		.byte	0x1
 17252 f16e 02       		.uleb128 0x2
 17253 f16f 5F454649 		.ascii "_EFI_FS_H \0"
 17253      5F46535F 
 17253      482000
 17254 f17a 01       		.byte	0x1
 17255 f17b 1B       		.uleb128 0x1b
 17256 f17c 4546495F 		.ascii "EFI_PARTITION_SIGNATURE 0x5053595320494249\0"
 17256      50415254 
 17256      4954494F 
 17256      4E5F5349 
 17256      474E4154 
 17257 f1a7 01       		.byte	0x1
 17258 f1a8 1C       		.uleb128 0x1c
 17259 f1a9 4546495F 		.ascii "EFI_PARTITION_REVISION 0x00010001\0"
 17259      50415254 
 17259      4954494F 
 17259      4E5F5245 
 17259      56495349 
 17260 f1cb 01       		.byte	0x1
 17261 f1cc 1D       		.uleb128 0x1d
 17262 f1cd 4D494E5F 		.ascii "MIN_EFI_PARTITION_BLOCK_SIZE 512\0"
 17262      4546495F 
 17262      50415254 
 17262      4954494F 
 17262      4E5F424C 
 17263 f1ee 01       		.byte	0x1
 17264 f1ef 1E       		.uleb128 0x1e
 17265 f1f0 4546495F 		.ascii "EFI_PARTITION_LBA 1\0"
 17265      50415254 
 17265      4954494F 
 17265      4E5F4C42 
 17265      41203100 
 17266 f204 01       		.byte	0x1
 17267 f205 31       		.uleb128 0x31
 17268 f206 4546495F 		.ascii "EFI_FILE_HEADER_SIGNATURE 0x454c494620494249\0"
 17268      46494C45 
 17268      5F484541 
 17268      4445525F 
 17268      5349474E 
 17269 f233 01       		.byte	0x1
 17270 f234 32       		.uleb128 0x32
 17271 f235 4546495F 		.ascii "EFI_FILE_HEADER_REVISION 0x00010000\0"
 17271      46494C45 
 17271      5F484541 
 17271      4445525F 
 17271      52455649 
 17272 f259 01       		.byte	0x1
 17273 f25a 33       		.uleb128 0x33
 17274 f25b 4546495F 		.ascii "EFI_FILE_STRING_SIZE 260\0"
 17274      46494C45 
 17274      5F535452 
 17274      494E475F 
 17274      53495A45 
 17275 f274 01       		.byte	0x1
 17276 f275 48       		.uleb128 0x48
 17277 f276 4546495F 		.ascii "EFI_FILE_LBAL(a) ((EFI_LBAL *) (((CHAR8 *) (a)) + (a)->LBALOffset))\0"
 17277      46494C45 
 17277      5F4C4241 
 17277      4C286129 
 17277      20282845 
 17278 f2ba 01       		.byte	0x1
 17279 f2bb 4A       		.uleb128 0x4a
 17280 f2bc 4546495F 		.ascii "EFI_FILE_CLASS_FREE_SPACE 1\0"
 17280      46494C45 
 17280      5F434C41 
 17280      53535F46 
 17280      5245455F 
 17281 f2d8 01       		.byte	0x1
 17282 f2d9 4B       		.uleb128 0x4b
 17283 f2da 4546495F 		.ascii "EFI_FILE_CLASS_EMPTY 2\0"
 17283      46494C45 
 17283      5F434C41 
 17283      53535F45 
 17283      4D505459 
 17284 f2f1 01       		.byte	0x1
 17285 f2f2 4C       		.uleb128 0x4c
 17286 f2f3 4546495F 		.ascii "EFI_FILE_CLASS_NORMAL 3\0"
 17286      46494C45 
 17286      5F434C41 
 17286      53535F4E 
 17286      4F524D41 
 17287 f30b 01       		.byte	0x1
 17288 f30c 54       		.uleb128 0x54
 17289 f30d 4546495F 		.ascii "EFI_LBAL_SIGNATURE 0x4c41424c20494249\0"
 17289      4C42414C 
 17289      5F534947 
 17289      4E415455 
 17289      52452030 
 17290 f333 01       		.byte	0x1
 17291 f334 55       		.uleb128 0x55
 17292 f335 4546495F 		.ascii "EFI_LBAL_REVISION 0x00010000\0"
 17292      4C42414C 
 17292      5F524556 
 17292      4953494F 
 17292      4E203078 
 17293 f352 01       		.byte	0x1
 17294 f353 61       		.uleb128 0x61
 17295 f354 4546495F 		.ascii "EFI_LBAL_ARRAY_SIZE(lbal,offs,blks) (((blks) - (offs) - (lbal)->Hdr.HeaderSize) / sizeof(E
 17295      4C42414C 
 17295      5F415252 
 17295      41595F53 
 17295      495A4528 
 17296 f3b6 01       		.byte	0x1
 17297 f3b7 71       		.uleb128 0x71
 17298 f3b8 4546495F 		.ascii "EFI_LBAL_RL(a) ((EFI_RL*) (((CHAR8 *) (a)) + (a)->Hdr.HeaderSize))\0"
 17298      4C42414C 
 17298      5F524C28 
 17298      61292028 
 17298      28454649 
 17299 f3fb 04       		.byte	0x4
 17300              		.file 29 "gnu-efi-3.0.18/inc/efierr.h"
 17301 f3fc 03       		.byte	0x3
 17302 f3fd 4E       		.uleb128 0x4e
 17303 f3fe 1D       		.uleb128 0x1d
 17304 f3ff 01       		.byte	0x1
 17305 f400 02       		.uleb128 0x2
 17306 f401 5F454649 		.ascii "_EFI_ERR_H \0"
 17306      5F455252 
 17306      5F482000 
 17307 f40d 01       		.byte	0x1
 17308 f40e 18       		.uleb128 0x18
 17309 f40f 45464957 		.ascii "EFIWARN(a) (a)\0"
 17309      41524E28 
 17309      61292028 
 17309      612900
 17310 f41e 01       		.byte	0x1
 17311 f41f 19       		.uleb128 0x19
 17312 f420 4546495F 		.ascii "EFI_ERROR(a) (((INTN) a) < 0)\0"
 17312      4552524F 
 17312      52286129 
 17312      20282828 
 17312      494E544E 
 17313 f43e 01       		.byte	0x1
 17314 f43f 1C       		.uleb128 0x1c
 17315 f440 4546495F 		.ascii "EFI_SUCCESS 0\0"
 17315      53554343 
 17315      45535320 
 17315      3000
 17316 f44e 01       		.byte	0x1
 17317 f44f 1D       		.uleb128 0x1d
 17318 f450 4546495F 		.ascii "EFI_LOAD_ERROR EFIERR(1)\0"
 17318      4C4F4144 
 17318      5F455252 
 17318      4F522045 
 17318      46494552 
 17319 f469 01       		.byte	0x1
 17320 f46a 1E       		.uleb128 0x1e
 17321 f46b 4546495F 		.ascii "EFI_INVALID_PARAMETER EFIERR(2)\0"
 17321      494E5641 
 17321      4C49445F 
 17321      50415241 
 17321      4D455445 
 17322 f48b 01       		.byte	0x1
 17323 f48c 1F       		.uleb128 0x1f
 17324 f48d 4546495F 		.ascii "EFI_UNSUPPORTED EFIERR(3)\0"
 17324      554E5355 
 17324      50504F52 
 17324      54454420 
 17324      45464945 
 17325 f4a7 01       		.byte	0x1
 17326 f4a8 20       		.uleb128 0x20
 17327 f4a9 4546495F 		.ascii "EFI_BAD_BUFFER_SIZE EFIERR(4)\0"
 17327      4241445F 
 17327      42554646 
 17327      45525F53 
 17327      495A4520 
 17328 f4c7 01       		.byte	0x1
 17329 f4c8 21       		.uleb128 0x21
 17330 f4c9 4546495F 		.ascii "EFI_BUFFER_TOO_SMALL EFIERR(5)\0"
 17330      42554646 
 17330      45525F54 
 17330      4F4F5F53 
 17330      4D414C4C 
 17331 f4e8 01       		.byte	0x1
 17332 f4e9 22       		.uleb128 0x22
 17333 f4ea 4546495F 		.ascii "EFI_NOT_READY EFIERR(6)\0"
 17333      4E4F545F 
 17333      52454144 
 17333      59204546 
 17333      49455252 
 17334 f502 01       		.byte	0x1
 17335 f503 23       		.uleb128 0x23
 17336 f504 4546495F 		.ascii "EFI_DEVICE_ERROR EFIERR(7)\0"
 17336      44455649 
 17336      43455F45 
 17336      52524F52 
 17336      20454649 
 17337 f51f 01       		.byte	0x1
 17338 f520 24       		.uleb128 0x24
 17339 f521 4546495F 		.ascii "EFI_WRITE_PROTECTED EFIERR(8)\0"
 17339      57524954 
 17339      455F5052 
 17339      4F544543 
 17339      54454420 
 17340 f53f 01       		.byte	0x1
 17341 f540 25       		.uleb128 0x25
 17342 f541 4546495F 		.ascii "EFI_OUT_OF_RESOURCES EFIERR(9)\0"
 17342      4F55545F 
 17342      4F465F52 
 17342      45534F55 
 17342      52434553 
 17343 f560 01       		.byte	0x1
 17344 f561 26       		.uleb128 0x26
 17345 f562 4546495F 		.ascii "EFI_VOLUME_CORRUPTED EFIERR(10)\0"
 17345      564F4C55 
 17345      4D455F43 
 17345      4F525255 
 17345      50544544 
 17346 f582 01       		.byte	0x1
 17347 f583 27       		.uleb128 0x27
 17348 f584 4546495F 		.ascii "EFI_VOLUME_FULL EFIERR(11)\0"
 17348      564F4C55 
 17348      4D455F46 
 17348      554C4C20 
 17348      45464945 
 17349 f59f 01       		.byte	0x1
 17350 f5a0 28       		.uleb128 0x28
 17351 f5a1 4546495F 		.ascii "EFI_NO_MEDIA EFIERR(12)\0"
 17351      4E4F5F4D 
 17351      45444941 
 17351      20454649 
 17351      45525228 
 17352 f5b9 01       		.byte	0x1
 17353 f5ba 29       		.uleb128 0x29
 17354 f5bb 4546495F 		.ascii "EFI_MEDIA_CHANGED EFIERR(13)\0"
 17354      4D454449 
 17354      415F4348 
 17354      414E4745 
 17354      44204546 
 17355 f5d8 01       		.byte	0x1
 17356 f5d9 2A       		.uleb128 0x2a
 17357 f5da 4546495F 		.ascii "EFI_NOT_FOUND EFIERR(14)\0"
 17357      4E4F545F 
 17357      464F554E 
 17357      44204546 
 17357      49455252 
 17358 f5f3 01       		.byte	0x1
 17359 f5f4 2B       		.uleb128 0x2b
 17360 f5f5 4546495F 		.ascii "EFI_ACCESS_DENIED EFIERR(15)\0"
 17360      41434345 
 17360      53535F44 
 17360      454E4945 
 17360      44204546 
 17361 f612 01       		.byte	0x1
 17362 f613 2C       		.uleb128 0x2c
 17363 f614 4546495F 		.ascii "EFI_NO_RESPONSE EFIERR(16)\0"
 17363      4E4F5F52 
 17363      4553504F 
 17363      4E534520 
 17363      45464945 
 17364 f62f 01       		.byte	0x1
 17365 f630 2D       		.uleb128 0x2d
 17366 f631 4546495F 		.ascii "EFI_NO_MAPPING EFIERR(17)\0"
 17366      4E4F5F4D 
 17366      41505049 
 17366      4E472045 
 17366      46494552 
 17367 f64b 01       		.byte	0x1
 17368 f64c 2E       		.uleb128 0x2e
 17369 f64d 4546495F 		.ascii "EFI_TIMEOUT EFIERR(18)\0"
 17369      54494D45 
 17369      4F555420 
 17369      45464945 
 17369      52522831 
 17370 f664 01       		.byte	0x1
 17371 f665 2F       		.uleb128 0x2f
 17372 f666 4546495F 		.ascii "EFI_NOT_STARTED EFIERR(19)\0"
 17372      4E4F545F 
 17372      53544152 
 17372      54454420 
 17372      45464945 
 17373 f681 01       		.byte	0x1
 17374 f682 30       		.uleb128 0x30
 17375 f683 4546495F 		.ascii "EFI_ALREADY_STARTED EFIERR(20)\0"
 17375      414C5245 
 17375      4144595F 
 17375      53544152 
 17375      54454420 
 17376 f6a2 01       		.byte	0x1
 17377 f6a3 31       		.uleb128 0x31
 17378 f6a4 4546495F 		.ascii "EFI_ABORTED EFIERR(21)\0"
 17378      41424F52 
 17378      54454420 
 17378      45464945 
 17378      52522832 
 17379 f6bb 01       		.byte	0x1
 17380 f6bc 32       		.uleb128 0x32
 17381 f6bd 4546495F 		.ascii "EFI_ICMP_ERROR EFIERR(22)\0"
 17381      49434D50 
 17381      5F455252 
 17381      4F522045 
 17381      46494552 
 17382 f6d7 01       		.byte	0x1
 17383 f6d8 33       		.uleb128 0x33
 17384 f6d9 4546495F 		.ascii "EFI_TFTP_ERROR EFIERR(23)\0"
 17384      54465450 
 17384      5F455252 
 17384      4F522045 
 17384      46494552 
 17385 f6f3 01       		.byte	0x1
 17386 f6f4 34       		.uleb128 0x34
 17387 f6f5 4546495F 		.ascii "EFI_PROTOCOL_ERROR EFIERR(24)\0"
 17387      50524F54 
 17387      4F434F4C 
 17387      5F455252 
 17387      4F522045 
 17388 f713 01       		.byte	0x1
 17389 f714 35       		.uleb128 0x35
 17390 f715 4546495F 		.ascii "EFI_INCOMPATIBLE_VERSION EFIERR(25)\0"
 17390      494E434F 
 17390      4D504154 
 17390      49424C45 
 17390      5F564552 
 17391 f739 01       		.byte	0x1
 17392 f73a 36       		.uleb128 0x36
 17393 f73b 4546495F 		.ascii "EFI_SECURITY_VIOLATION EFIERR(26)\0"
 17393      53454355 
 17393      52495459 
 17393      5F56494F 
 17393      4C415449 
 17394 f75d 01       		.byte	0x1
 17395 f75e 37       		.uleb128 0x37
 17396 f75f 4546495F 		.ascii "EFI_CRC_ERROR EFIERR(27)\0"
 17396      4352435F 
 17396      4552524F 
 17396      52204546 
 17396      49455252 
 17397 f778 01       		.byte	0x1
 17398 f779 38       		.uleb128 0x38
 17399 f77a 4546495F 		.ascii "EFI_END_OF_MEDIA EFIERR(28)\0"
 17399      454E445F 
 17399      4F465F4D 
 17399      45444941 
 17399      20454649 
 17400 f796 01       		.byte	0x1
 17401 f797 39       		.uleb128 0x39
 17402 f798 4546495F 		.ascii "EFI_END_OF_FILE EFIERR(31)\0"
 17402      454E445F 
 17402      4F465F46 
 17402      494C4520 
 17402      45464945 
 17403 f7b3 01       		.byte	0x1
 17404 f7b4 3A       		.uleb128 0x3a
 17405 f7b5 4546495F 		.ascii "EFI_INVALID_LANGUAGE EFIERR(32)\0"
 17405      494E5641 
 17405      4C49445F 
 17405      4C414E47 
 17405      55414745 
 17406 f7d5 01       		.byte	0x1
 17407 f7d6 3B       		.uleb128 0x3b
 17408 f7d7 4546495F 		.ascii "EFI_COMPROMISED_DATA EFIERR(33)\0"
 17408      434F4D50 
 17408      524F4D49 
 17408      5345445F 
 17408      44415441 
 17409 f7f7 01       		.byte	0x1
 17410 f7f8 3C       		.uleb128 0x3c
 17411 f7f9 4546495F 		.ascii "EFI_IP_ADDRESS_CONFLICT EFIERR(34)\0"
 17411      49505F41 
 17411      44445245 
 17411      53535F43 
 17411      4F4E464C 
 17412 f81c 01       		.byte	0x1
 17413 f81d 3D       		.uleb128 0x3d
 17414 f81e 4546495F 		.ascii "EFI_HTTP_ERROR EFIERR(35)\0"
 17414      48545450 
 17414      5F455252 
 17414      4F522045 
 17414      46494552 
 17415 f838 01       		.byte	0x1
 17416 f839 3F       		.uleb128 0x3f
 17417 f83a 4546495F 		.ascii "EFI_WARN_UNKOWN_GLYPH EFIWARN(1)\0"
 17417      5741524E 
 17417      5F554E4B 
 17417      4F574E5F 
 17417      474C5950 
 17418 f85b 01       		.byte	0x1
 17419 f85c 40       		.uleb128 0x40
 17420 f85d 4546495F 		.ascii "EFI_WARN_UNKNOWN_GLYPH EFIWARN(1)\0"
 17420      5741524E 
 17420      5F554E4B 
 17420      4E4F574E 
 17420      5F474C59 
 17421 f87f 01       		.byte	0x1
 17422 f880 41       		.uleb128 0x41
 17423 f881 4546495F 		.ascii "EFI_WARN_DELETE_FAILURE EFIWARN(2)\0"
 17423      5741524E 
 17423      5F44454C 
 17423      4554455F 
 17423      4641494C 
 17424 f8a4 01       		.byte	0x1
 17425 f8a5 42       		.uleb128 0x42
 17426 f8a6 4546495F 		.ascii "EFI_WARN_WRITE_FAILURE EFIWARN(3)\0"
 17426      5741524E 
 17426      5F575249 
 17426      54455F46 
 17426      41494C55 
 17427 f8c8 01       		.byte	0x1
 17428 f8c9 43       		.uleb128 0x43
 17429 f8ca 4546495F 		.ascii "EFI_WARN_BUFFER_TOO_SMALL EFIWARN(4)\0"
 17429      5741524E 
 17429      5F425546 
 17429      4645525F 
 17429      544F4F5F 
 17430 f8ef 01       		.byte	0x1
 17431 f8f0 44       		.uleb128 0x44
 17432 f8f1 4546495F 		.ascii "EFI_WARN_STALE_DATA EFIWARN(5)\0"
 17432      5741524E 
 17432      5F535441 
 17432      4C455F44 
 17432      41544120 
 17433 f910 01       		.byte	0x1
 17434 f911 45       		.uleb128 0x45
 17435 f912 4546495F 		.ascii "EFI_WARN_FILE_SYSTEM EFIWARN(6)\0"
 17435      5741524E 
 17435      5F46494C 
 17435      455F5359 
 17435      5354454D 
 17436 f932 01       		.byte	0x1
 17437 f933 46       		.uleb128 0x46
 17438 f934 4546495F 		.ascii "EFI_WARN_RESET_REQUIRED EFIWARN(7)\0"
 17438      5741524E 
 17438      5F524553 
 17438      45545F52 
 17438      45515549 
 17439 f957 04       		.byte	0x4
 17440              		.file 30 "gnu-efi-3.0.18/inc/efiui.h"
 17441 f958 03       		.byte	0x3
 17442 f959 4F       		.uleb128 0x4f
 17443 f95a 1E       		.uleb128 0x1e
 17444 f95b 01       		.byte	0x1
 17445 f95c 02       		.uleb128 0x2
 17446 f95d 5F454649 		.ascii "_EFI_UI_H \0"
 17446      5F55495F 
 17446      482000
 17447 f968 01       		.byte	0x1
 17448 f969 1F       		.uleb128 0x1f
 17449 f96a 4546495F 		.ascii "EFI_UI_INTERFACE_PROTOCOL_GUID { 0x32dd7981, 0x2d27, 0x11d4, {0xbc, 0x8b, 0x0, 0x80, 0xc7,
 17449      55495F49 
 17449      4E544552 
 17449      46414345 
 17449      5F50524F 
 17450 f9d9 01       		.byte	0x1
 17451 f9da 21       		.uleb128 0x21
 17452 f9db 4546495F 		.ascii "EFI_UI_PROTOCOL EFI_UI_INTERFACE_PROTOCOL_GUID\0"
 17452      55495F50 
 17452      524F544F 
 17452      434F4C20 
 17452      4546495F 
 17453 fa0a 01       		.byte	0x1
 17454 fa0b 2F       		.uleb128 0x2f
 17455 fa0c 4546495F 		.ascii "EFI_UI_INTERFACE_PROTOCOL_VERSION 0x00010000\0"
 17455      55495F49 
 17455      4E544552 
 17455      46414345 
 17455      5F50524F 
 17456 fa39 01       		.byte	0x1
 17457 fa3a 30       		.uleb128 0x30
 17458 fa3b 4546495F 		.ascii "EFI_UI_VERSION EFI_UI_INTERFACE_PROTOCOL_VERSION\0"
 17458      55495F56 
 17458      45525349 
 17458      4F4E2045 
 17458      46495F55 
 17459 fa6c 04       		.byte	0x4
 17460              		.file 31 "gnu-efi-3.0.18/inc/efiip.h"
 17461 fa6d 03       		.byte	0x3
 17462 fa6e 50       		.uleb128 0x50
 17463 fa6f 1F       		.uleb128 0x1f
 17464 fa70 01       		.byte	0x1
 17465 fa71 02       		.uleb128 0x2
 17466 fa72 5F454649 		.ascii "_EFI_IP_H \0"
 17466      5F49505F 
 17466      482000
 17467 fa7d 01       		.byte	0x1
 17468 fa7e 09       		.uleb128 0x9
 17469 fa7f 4546495F 		.ascii "EFI_IP4_SERVICE_BINDING_PROTOCOL {0xc51711e7,0xb4bf,0x404a,{0xbf,0xb8,0x0a,0x04, 0x8e,0xf1
 17469      4950345F 
 17469      53455256 
 17469      4943455F 
 17469      42494E44 
 17470 fae6 01       		.byte	0x1
 17471 fae7 0C       		.uleb128 0xc
 17472 fae8 4546495F 		.ascii "EFI_IP4_PROTOCOL {0x41d94cd2,0x35b6,0x455a,{0x82,0x58,0xd4,0xe5,0x13,0x34,0xaa,0xdd}}\0"
 17472      4950345F 
 17472      50524F54 
 17472      4F434F4C 
 17472      207B3078 
 17473 fb3e 01       		.byte	0x1
 17474 fb3f 0F       		.uleb128 0xf
 17475 fb40 4546495F 		.ascii "EFI_IP6_SERVICE_BINDING_PROTOCOL {0xec835dd3,0xfe0f,0x617b,{0xa6,0x21,0xb3,0x50,0xc3,0xe1,
 17475      4950365F 
 17475      53455256 
 17475      4943455F 
 17475      42494E44 
 17476 fba6 01       		.byte	0x1
 17477 fba7 12       		.uleb128 0x12
 17478 fba8 4546495F 		.ascii "EFI_IP6_PROTOCOL {0x2c8759d5,0x5c2d,0x66ef,{0x92,0x5f,0xb6,0x6c,0x10,0x19,0x57,0xe2}}\0"
 17478      4950365F 
 17478      50524F54 
 17478      4F434F4C 
 17478      207B3078 
 17479 fbfe 01       		.byte	0x1
 17480 fbff 8102     		.uleb128 0x101
 17481 fc01 49434D50 		.ascii "ICMP_V6_DEST_UNREACHABLE 0x1\0"
 17481      5F56365F 
 17481      44455354 
 17481      5F554E52 
 17481      45414348 
 17482 fc1e 01       		.byte	0x1
 17483 fc1f 8202     		.uleb128 0x102
 17484 fc21 49434D50 		.ascii "ICMP_V6_PACKET_TOO_BIG 0x2\0"
 17484      5F56365F 
 17484      5041434B 
 17484      45545F54 
 17484      4F4F5F42 
 17485 fc3c 01       		.byte	0x1
 17486 fc3d 8302     		.uleb128 0x103
 17487 fc3f 49434D50 		.ascii "ICMP_V6_TIME_EXCEEDED 0x3\0"
 17487      5F56365F 
 17487      54494D45 
 17487      5F455843 
 17487      45454445 
 17488 fc59 01       		.byte	0x1
 17489 fc5a 8402     		.uleb128 0x104
 17490 fc5c 49434D50 		.ascii "ICMP_V6_PARAMETER_PROBLEM 0x4\0"
 17490      5F56365F 
 17490      50415241 
 17490      4D455445 
 17490      525F5052 
 17491 fc7a 01       		.byte	0x1
 17492 fc7b 8902     		.uleb128 0x109
 17493 fc7d 49434D50 		.ascii "ICMP_V6_ECHO_REQUEST 0x80\0"
 17493      5F56365F 
 17493      4543484F 
 17493      5F524551 
 17493      55455354 
 17494 fc97 01       		.byte	0x1
 17495 fc98 8A02     		.uleb128 0x10a
 17496 fc9a 49434D50 		.ascii "ICMP_V6_ECHO_REPLY 0x81\0"
 17496      5F56365F 
 17496      4543484F 
 17496      5F524550 
 17496      4C592030 
 17497 fcb2 01       		.byte	0x1
 17498 fcb3 8B02     		.uleb128 0x10b
 17499 fcb5 49434D50 		.ascii "ICMP_V6_LISTENER_QUERY 0x82\0"
 17499      5F56365F 
 17499      4C495354 
 17499      454E4552 
 17499      5F515545 
 17500 fcd1 01       		.byte	0x1
 17501 fcd2 8C02     		.uleb128 0x10c
 17502 fcd4 49434D50 		.ascii "ICMP_V6_LISTENER_REPORT 0x83\0"
 17502      5F56365F 
 17502      4C495354 
 17502      454E4552 
 17502      5F524550 
 17503 fcf1 01       		.byte	0x1
 17504 fcf2 8D02     		.uleb128 0x10d
 17505 fcf4 49434D50 		.ascii "ICMP_V6_LISTENER_DONE 0x84\0"
 17505      5F56365F 
 17505      4C495354 
 17505      454E4552 
 17505      5F444F4E 
 17506 fd0f 01       		.byte	0x1
 17507 fd10 8E02     		.uleb128 0x10e
 17508 fd12 49434D50 		.ascii "ICMP_V6_ROUTER_SOLICIT 0x85\0"
 17508      5F56365F 
 17508      524F5554 
 17508      45525F53 
 17508      4F4C4943 
 17509 fd2e 01       		.byte	0x1
 17510 fd2f 8F02     		.uleb128 0x10f
 17511 fd31 49434D50 		.ascii "ICMP_V6_ROUTER_ADVERTISE 0x86\0"
 17511      5F56365F 
 17511      524F5554 
 17511      45525F41 
 17511      44564552 
 17512 fd4f 01       		.byte	0x1
 17513 fd50 9002     		.uleb128 0x110
 17514 fd52 49434D50 		.ascii "ICMP_V6_NEIGHBOR_SOLICIT 0x87\0"
 17514      5F56365F 
 17514      4E454947 
 17514      48424F52 
 17514      5F534F4C 
 17515 fd70 01       		.byte	0x1
 17516 fd71 9102     		.uleb128 0x111
 17517 fd73 49434D50 		.ascii "ICMP_V6_NEIGHBOR_ADVERTISE 0x88\0"
 17517      5F56365F 
 17517      4E454947 
 17517      48424F52 
 17517      5F414456 
 17518 fd93 01       		.byte	0x1
 17519 fd94 9202     		.uleb128 0x112
 17520 fd96 49434D50 		.ascii "ICMP_V6_REDIRECT 0x89\0"
 17520      5F56365F 
 17520      52454449 
 17520      52454354 
 17520      20307838 
 17521 fdac 01       		.byte	0x1
 17522 fdad 9302     		.uleb128 0x113
 17523 fdaf 49434D50 		.ascii "ICMP_V6_LISTENER_REPORT_2 0x8F\0"
 17523      5F56365F 
 17523      4C495354 
 17523      454E4552 
 17523      5F524550 
 17524 fdce 01       		.byte	0x1
 17525 fdcf 9802     		.uleb128 0x118
 17526 fdd1 49434D50 		.ascii "ICMP_V6_NO_ROUTE_TO_DEST 0x0\0"
 17526      5F56365F 
 17526      4E4F5F52 
 17526      4F555445 
 17526      5F544F5F 
 17527 fdee 01       		.byte	0x1
 17528 fdef 9902     		.uleb128 0x119
 17529 fdf1 49434D50 		.ascii "ICMP_V6_COMM_PROHIBITED 0x1\0"
 17529      5F56365F 
 17529      434F4D4D 
 17529      5F50524F 
 17529      48494249 
 17530 fe0d 01       		.byte	0x1
 17531 fe0e 9A02     		.uleb128 0x11a
 17532 fe10 49434D50 		.ascii "ICMP_V6_BEYOND_SCOPE 0x2\0"
 17532      5F56365F 
 17532      4245594F 
 17532      4E445F53 
 17532      434F5045 
 17533 fe29 01       		.byte	0x1
 17534 fe2a 9B02     		.uleb128 0x11b
 17535 fe2c 49434D50 		.ascii "ICMP_V6_ADDR_UNREACHABLE 0x3\0"
 17535      5F56365F 
 17535      41444452 
 17535      5F554E52 
 17535      45414348 
 17536 fe49 01       		.byte	0x1
 17537 fe4a 9C02     		.uleb128 0x11c
 17538 fe4c 49434D50 		.ascii "ICMP_V6_PORT_UNREACHABLE 0x4\0"
 17538      5F56365F 
 17538      504F5254 
 17538      5F554E52 
 17538      45414348 
 17539 fe69 01       		.byte	0x1
 17540 fe6a 9D02     		.uleb128 0x11d
 17541 fe6c 49434D50 		.ascii "ICMP_V6_SOURCE_ADDR_FAILED 0x5\0"
 17541      5F56365F 
 17541      534F5552 
 17541      43455F41 
 17541      4444525F 
 17542 fe8b 01       		.byte	0x1
 17543 fe8c 9E02     		.uleb128 0x11e
 17544 fe8e 49434D50 		.ascii "ICMP_V6_ROUTE_REJECTED 0x6\0"
 17544      5F56365F 
 17544      524F5554 
 17544      455F5245 
 17544      4A454354 
 17545 fea9 01       		.byte	0x1
 17546 feaa A302     		.uleb128 0x123
 17547 feac 49434D50 		.ascii "ICMP_V6_TIMEOUT_HOP_LIMIT 0x0\0"
 17547      5F56365F 
 17547      54494D45 
 17547      4F55545F 
 17547      484F505F 
 17548 feca 01       		.byte	0x1
 17549 fecb A402     		.uleb128 0x124
 17550 fecd 49434D50 		.ascii "ICMP_V6_TIMEOUT_REASSEMBLE 0x1\0"
 17550      5F56365F 
 17550      54494D45 
 17550      4F55545F 
 17550      52454153 
 17551 feec 01       		.byte	0x1
 17552 feed A902     		.uleb128 0x129
 17553 feef 49434D50 		.ascii "ICMP_V6_ERRONEOUS_HEADER 0x0\0"
 17553      5F56365F 
 17553      4552524F 
 17553      4E454F55 
 17553      535F4845 
 17554 ff0c 01       		.byte	0x1
 17555 ff0d AA02     		.uleb128 0x12a
 17556 ff0f 49434D50 		.ascii "ICMP_V6_UNRECOGNIZE_NEXT_HDR 0x1\0"
 17556      5F56365F 
 17556      554E5245 
 17556      434F474E 
 17556      495A455F 
 17557 ff30 01       		.byte	0x1
 17558 ff31 AB02     		.uleb128 0x12b
 17559 ff33 49434D50 		.ascii "ICMP_V6_UNRECOGNIZE_OPTION 0x2\0"
 17559      5F56365F 
 17559      554E5245 
 17559      434F474E 
 17559      495A455F 
 17560 ff52 04       		.byte	0x4
 17561              		.file 32 "gnu-efi-3.0.18/inc/efiudp.h"
 17562 ff53 03       		.byte	0x3
 17563 ff54 51       		.uleb128 0x51
 17564 ff55 20       		.uleb128 0x20
 17565 ff56 01       		.byte	0x1
 17566 ff57 02       		.uleb128 0x2
 17567 ff58 5F454649 		.ascii "_EFI_UDP_H \0"
 17567      5F554450 
 17567      5F482000 
 17568 ff64 01       		.byte	0x1
 17569 ff65 0A       		.uleb128 0xa
 17570 ff66 4546495F 		.ascii "EFI_UDP4_SERVICE_BINDING_PROTOCOL { 0x83f01464, 0x99bd, 0x45e5, {0xb3, 0x83, 0xaf, 0x63, 0
 17570      55445034 
 17570      5F534552 
 17570      56494345 
 17570      5F42494E 
 17571 ffd9 01       		.byte	0x1
 17572 ffda 0D       		.uleb128 0xd
 17573 ffdb 4546495F 		.ascii "EFI_UDP4_PROTOCOL { 0x3ad9df29, 0x4501, 0x478d, {0xb1, 0xf8, 0x7f, 0x7f, 0xe7, 0x0e, 0x50,
 17573      55445034 
 17573      5F50524F 
 17573      544F434F 
 17573      4C207B20 
 17574 1003e 01       		.byte	0x1
 17575 1003f 10       		.uleb128 0x10
 17576 10040 4546495F 		.ascii "EFI_UDP6_SERVICE_BINDING_PROTOCOL { 0x66ed4721, 0x3c98, 0x4d3e, {0x81, 0xe3, 0xd0, 0x3d, 0
 17576      55445036 
 17576      5F534552 
 17576      56494345 
 17576      5F42494E 
 17577 100b3 01       		.byte	0x1
 17578 100b4 13       		.uleb128 0x13
 17579 100b5 4546495F 		.ascii "EFI_UDP6_PROTOCOL { 0x4f948815, 0xb4b9, 0x43cb, {0x8a, 0x33, 0x90, 0xe0, 0x60, 0xb3,0x49, 
 17579      55445036 
 17579      5F50524F 
 17579      544F434F 
 17579      4C207B20 
 17580 10117 01       		.byte	0x1
 17581 10118 4E       		.uleb128 0x4e
 17582 10119 4546495F 		.ascii "EFI_NETWORK_UNREACHABLE EFIERR(100)\0"
 17582      4E455457 
 17582      4F524B5F 
 17582      554E5245 
 17582      41434841 
 17583 1013d 01       		.byte	0x1
 17584 1013e 4F       		.uleb128 0x4f
 17585 1013f 4546495F 		.ascii "EFI_HOST_UNREACHABLE EFIERR(101)\0"
 17585      484F5354 
 17585      5F554E52 
 17585      45414348 
 17585      41424C45 
 17586 10160 01       		.byte	0x1
 17587 10161 50       		.uleb128 0x50
 17588 10162 4546495F 		.ascii "EFI_PROTOCOL_UNREACHABLE EFIERR(102)\0"
 17588      50524F54 
 17588      4F434F4C 
 17588      5F554E52 
 17588      45414348 
 17589 10187 01       		.byte	0x1
 17590 10188 51       		.uleb128 0x51
 17591 10189 4546495F 		.ascii "EFI_PORT_UNREACHABLE EFIERR(103)\0"
 17591      504F5254 
 17591      5F554E52 
 17591      45414348 
 17591      41424C45 
 17592 101aa 04       		.byte	0x4
 17593              		.file 33 "gnu-efi-3.0.18/inc/efitcp.h"
 17594 101ab 03       		.byte	0x3
 17595 101ac 52       		.uleb128 0x52
 17596 101ad 21       		.uleb128 0x21
 17597 101ae 01       		.byte	0x1
 17598 101af 02       		.uleb128 0x2
 17599 101b0 5F454649 		.ascii "_EFI_TCP_H \0"
 17599      5F544350 
 17599      5F482000 
 17600 101bc 01       		.byte	0x1
 17601 101bd 09       		.uleb128 0x9
 17602 101be 4546495F 		.ascii "EFI_TCP4_SERVICE_BINDING_PROTOCOL { 0x00720665, 0x67eb, 0x4a99, {0xba, 0xf7, 0xd3, 0xc3, 0
 17602      54435034 
 17602      5F534552 
 17602      56494345 
 17602      5F42494E 
 17603 1022f 01       		.byte	0x1
 17604 10230 0C       		.uleb128 0xc
 17605 10231 4546495F 		.ascii "EFI_TCP4_PROTOCOL { 0x65530bc7, 0xa359, 0x410f, {0xb0, 0x10, 0x5a, 0xad, 0xc7, 0xec, 0x2b,
 17605      54435034 
 17605      5F50524F 
 17605      544F434F 
 17605      4C207B20 
 17606 10293 01       		.byte	0x1
 17607 10294 0F       		.uleb128 0xf
 17608 10295 4546495F 		.ascii "EFI_TCP6_SERVICE_BINDING_PROTOCOL { 0xec20eb79, 0x6c1a, 0x4664, {0x9a, 0xd, 0xd2, 0xe4, 0x
 17608      54435036 
 17608      5F534552 
 17608      56494345 
 17608      5F42494E 
 17609 10306 01       		.byte	0x1
 17610 10307 12       		.uleb128 0x12
 17611 10308 4546495F 		.ascii "EFI_TCP6_PROTOCOL { 0x46e44855, 0xbd60, 0x4ab7, {0xab, 0xd, 0xa6, 0x79, 0xb9, 0x44, 0x7d, 
 17611      54435036 
 17611      5F50524F 
 17611      544F434F 
 17611      4C207B20 
 17612 10369 01       		.byte	0x1
 17613 1036a 8701     		.uleb128 0x87
 17614 1036c 4546495F 		.ascii "EFI_CONNECTION_FIN EFIERR(104)\0"
 17614      434F4E4E 
 17614      45435449 
 17614      4F4E5F46 
 17614      494E2045 
 17615 1038b 01       		.byte	0x1
 17616 1038c 8801     		.uleb128 0x88
 17617 1038e 4546495F 		.ascii "EFI_CONNECTION_RESET EFIERR(105)\0"
 17617      434F4E4E 
 17617      45435449 
 17617      4F4E5F52 
 17617      45534554 
 17618 103af 01       		.byte	0x1
 17619 103b0 8901     		.uleb128 0x89
 17620 103b2 4546495F 		.ascii "EFI_CONNECTION_REFUSED EFIERR(106)\0"
 17620      434F4E4E 
 17620      45435449 
 17620      4F4E5F52 
 17620      45465553 
 17621 103d5 04       		.byte	0x4
 17622              		.file 34 "gnu-efi-3.0.18/inc/efipoint.h"
 17623 103d6 03       		.byte	0x3
 17624 103d7 53       		.uleb128 0x53
 17625 103d8 22       		.uleb128 0x22
 17626 103d9 01       		.byte	0x1
 17627 103da 17       		.uleb128 0x17
 17628 103db 5F454649 		.ascii "_EFI_POINT_H \0"
 17628      5F504F49 
 17628      4E545F48 
 17628      2000
 17629 103e9 01       		.byte	0x1
 17630 103ea 19       		.uleb128 0x19
 17631 103eb 4546495F 		.ascii "EFI_SIMPLE_POINTER_PROTOCOL_GUID { 0x31878c87, 0xb75, 0x11d5, { 0x9a, 0x4f, 0x0, 0x90, 0x2
 17631      53494D50 
 17631      4C455F50 
 17631      4F494E54 
 17631      45525F50 
 17632 1045d 01       		.byte	0x1
 17633 1045e 43       		.uleb128 0x43
 17634 1045f 4546495F 		.ascii "EFI_ABSOLUTE_POINTER_PROTOCOL_GUID { 0x8D59D32B, 0xC655, 0x4AE9, { 0x9B, 0x15, 0xF2, 0x59,
 17634      4142534F 
 17634      4C555445 
 17634      5F504F49 
 17634      4E544552 
 17635 104d5 01       		.byte	0x1
 17636 104d6 59       		.uleb128 0x59
 17637 104d7 4546495F 		.ascii "EFI_ABSP_SupportsAltActive 0x00000001\0"
 17637      41425350 
 17637      5F537570 
 17637      706F7274 
 17637      73416C74 
 17638 104fd 01       		.byte	0x1
 17639 104fe 5A       		.uleb128 0x5a
 17640 104ff 4546495F 		.ascii "EFI_ABSP_SupportsPressureAsZ 0x00000002\0"
 17640      41425350 
 17640      5F537570 
 17640      706F7274 
 17640      73507265 
 17641 10527 01       		.byte	0x1
 17642 10528 5B       		.uleb128 0x5b
 17643 10529 4546495F 		.ascii "EFI_ABSP_TouchActive 0x00000001\0"
 17643      41425350 
 17643      5F546F75 
 17643      63684163 
 17643      74697665 
 17644 10549 01       		.byte	0x1
 17645 1054a 5C       		.uleb128 0x5c
 17646 1054b 4546495F 		.ascii "EFI_ABS_AltActive 0x00000002\0"
 17646      4142535F 
 17646      416C7441 
 17646      63746976 
 17646      65203078 
 17647 10568 04       		.byte	0x4
 17648              		.file 35 "gnu-efi-3.0.18/inc/efishell.h"
 17649 10569 03       		.byte	0x3
 17650 1056a 54       		.uleb128 0x54
 17651 1056b 23       		.uleb128 0x23
 17652 1056c 01       		.byte	0x1
 17653 1056d 0D       		.uleb128 0xd
 17654 1056e 5F454649 		.ascii "_EFI_SHELL_H \0"
 17654      5F534845 
 17654      4C4C5F48 
 17654      2000
 17655              		.file 36 "gnu-efi-3.0.18/inc/efilink.h"
 17656 1057c 03       		.byte	0x3
 17657 1057d 0F       		.uleb128 0xf
 17658 1057e 24       		.uleb128 0x24
 17659 1057f 01       		.byte	0x1
 17660 10580 02       		.uleb128 0x2
 17661 10581 5F454649 		.ascii "_EFI_LINK_H \0"
 17661      5F4C494E 
 17661      4B5F4820 
 17661      00
 17662 1058e 01       		.byte	0x1
 17663 1058f 2B       		.uleb128 0x2b
 17664 10590 496E6974 		.ascii "InitializeListHead(ListHead) (ListHead)->Flink = ListHead; (ListHead)->Blink = ListHead;\0
 17664      69616C69 
 17664      7A654C69 
 17664      73744865 
 17664      6164284C 
 17665 105e9 01       		.byte	0x1
 17666 105ea 36       		.uleb128 0x36
 17667 105eb 49734C69 		.ascii "IsListEmpty(ListHead) ((ListHead)->Flink == (ListHead))\0"
 17667      7374456D 
 17667      70747928 
 17667      4C697374 
 17667      48656164 
 17668 10623 01       		.byte	0x1
 17669 10624 40       		.uleb128 0x40
 17670 10625 5F52656D 		.ascii "_RemoveEntryList(Entry) { LIST_ENTRY *_Blink, *_Flink; _Flink = (Entry)->Flink; _Blink = (
 17670      6F766545 
 17670      6E747279 
 17670      4C697374 
 17670      28456E74 
 17671 106c0 01       		.byte	0x1
 17672 106c1 4E       		.uleb128 0x4e
 17673 106c2 52656D6F 		.ascii "RemoveEntryList(Entry) _RemoveEntryList(Entry);\0"
 17673      7665456E 
 17673      7472794C 
 17673      69737428 
 17673      456E7472 
 17674 106f2 01       		.byte	0x1
 17675 106f3 5A       		.uleb128 0x5a
 17676 106f4 496E7365 		.ascii "InsertTailList(ListHead,Entry) { LIST_ENTRY *_ListHead, *_Blink; _ListHead = (ListHead); _
 17676      72745461 
 17676      696C4C69 
 17676      7374284C 
 17676      69737448 
 17677 107d4 01       		.byte	0x1
 17678 107d5 6C       		.uleb128 0x6c
 17679 107d6 496E7365 		.ascii "InsertHeadList(ListHead,Entry) { LIST_ENTRY *_ListHead, *_Flink; _ListHead = (ListHead); _
 17679      72744865 
 17679      61644C69 
 17679      7374284C 
 17679      69737448 
 17680 108b6 01       		.byte	0x1
 17681 108b7 7E       		.uleb128 0x7e
 17682 108b8 53776170 		.ascii "SwapListEntries(Entry1,Entry2) { LIST_ENTRY *Entry1Flink, *Entry1Blink; LIST_ENTRY *Entry2
 17682      4C697374 
 17682      456E7472 
 17682      69657328 
 17682      456E7472 
 17683 10a5d 01       		.byte	0x1
 17684 10a5e 9101     		.uleb128 0x91
 17685 10a60 4546495F 		.ascii "EFI_FIELD_OFFSET(TYPE,Field) ((UINTN)(intptr_t)(&(((TYPE *) 0)->Field)))\0"
 17685      4649454C 
 17685      445F4F46 
 17685      46534554 
 17685      28545950 
 17686 10aa9 01       		.byte	0x1
 17687 10aaa 9801     		.uleb128 0x98
 17688 10aac 5F435228 		.ascii "_CR(Record,TYPE,Field) ((TYPE *) ( (CHAR8 *)(Record) - (CHAR8 *) &(((TYPE *) 0)->Field)))\
 17688      5265636F 
 17688      72642C54 
 17688      5950452C 
 17688      4669656C 
 17689 10b06 01       		.byte	0x1
 17690 10b07 9E01     		.uleb128 0x9e
 17691 10b09 42415345 		.ascii "BASE_CR _CR\0"
 17691      5F435220 
 17691      5F435200 
 17692 10b15 01       		.byte	0x1
 17693 10b16 A601     		.uleb128 0xa6
 17694 10b18 43522852 		.ascii "CR(Record,TYPE,Field,Signature) _CR(Record, TYPE, Field)\0"
 17694      65636F72 
 17694      642C5459 
 17694      50452C46 
 17694      69656C64 
 17695 10b51 04       		.byte	0x4
 17696 10b52 01       		.byte	0x1
 17697 10b53 11       		.uleb128 0x11
 17698 10b54 4546495F 		.ascii "EFI_SHELL_PROTOCOL_GUID { 0x6302d008, 0x7f9b, 0x4f30, { 0x87, 0xac, 0x60, 0xc9, 0xfe, 0xf5
 17698      5348454C 
 17698      4C5F5052 
 17698      4F544F43 
 17698      4F4C5F47 
 17699 10bbf 01       		.byte	0x1
 17700 10bc0 9801     		.uleb128 0x98
 17701 10bc2 4546495F 		.ascii "EFI_DEVICE_NAME_USE_COMPONENT_NAME 0x00000001\0"
 17701      44455649 
 17701      43455F4E 
 17701      414D455F 
 17701      5553455F 
 17702 10bf0 01       		.byte	0x1
 17703 10bf1 9901     		.uleb128 0x99
 17704 10bf3 4546495F 		.ascii "EFI_DEVICE_NAME_USE_DEVICE_PATH 0x00000002\0"
 17704      44455649 
 17704      43455F4E 
 17704      414D455F 
 17704      5553455F 
 17705 10c1e 01       		.byte	0x1
 17706 10c1f 9903     		.uleb128 0x199
 17707 10c21 4546495F 		.ascii "EFI_SHELL_PARAMETERS_PROTOCOL_GUID { 0x752f3136, 0x4e16, 0x4fdc, { 0xa2, 0x2a, 0xe5, 0xf4,
 17707      5348454C 
 17707      4C5F5041 
 17707      52414D45 
 17707      54455253 
 17708 10c97 01       		.byte	0x1
 17709 10c98 A603     		.uleb128 0x1a6
 17710 10c9a 4546495F 		.ascii "EFI_SHELL_DYNAMIC_COMMAND_PROTOCOL_GUID { 0x3c7200e9, 0x005f, 0x4ea4, { 0x87, 0xde, 0xa3, 
 17710      5348454C 
 17710      4C5F4459 
 17710      4E414D49 
 17710      435F434F 
 17711 10d15 04       		.byte	0x4
 17712 10d16 04       		.byte	0x4
 17713 10d17 03       		.byte	0x3
 17714 10d18 02       		.uleb128 0x2
 17715 10d19 0A       		.uleb128 0xa
 17716 10d1a 01       		.byte	0x1
 17717 10d1b 02       		.uleb128 0x2
 17718 10d1c 5F454649 		.ascii "_EFILIB_INCLUDE_ \0"
 17718      4C49425F 
 17718      494E434C 
 17718      5544455F 
 17718      2000
 17719              		.file 37 "gnu-efi-3.0.18/inc/efidebug.h"
 17720 10d2e 03       		.byte	0x3
 17721 10d2f 1A       		.uleb128 0x1a
 17722 10d30 25       		.uleb128 0x25
 17723 10d31 01       		.byte	0x1
 17724 10d32 02       		.uleb128 0x2
 17725 10d33 5F454649 		.ascii "_EFI_DEBUG_H \0"
 17725      5F444542 
 17725      55475F48 
 17725      2000
 17726 10d41 01       		.byte	0x1
 17727 10d42 1F       		.uleb128 0x1f
 17728 10d43 44424741 		.ascii "DBGASSERT(a) \0"
 17728      53534552 
 17728      54286129 
 17728      2000
 17729 10d51 01       		.byte	0x1
 17730 10d52 20       		.uleb128 0x20
 17731 10d53 44454255 		.ascii "DEBUG(a) \0"
 17731      47286129 
 17731      2000
 17732 10d5d 01       		.byte	0x1
 17733 10d5e 2A       		.uleb128 0x2a
 17734 10d5f 44424753 		.ascii "DBGSETMEM(a,l) \0"
 17734      45544D45 
 17734      4D28612C 
 17734      6C292000 
 17735 10d6f 01       		.byte	0x1
 17736 10d70 2E       		.uleb128 0x2e
 17737 10d71 445F494E 		.ascii "D_INIT 0x00000001\0"
 17737      49542030 
 17737      78303030 
 17737      30303030 
 17737      3100
 17738 10d83 01       		.byte	0x1
 17739 10d84 2F       		.uleb128 0x2f
 17740 10d85 445F5741 		.ascii "D_WARN 0x00000002\0"
 17740      524E2030 
 17740      78303030 
 17740      30303030 
 17740      3200
 17741 10d97 01       		.byte	0x1
 17742 10d98 30       		.uleb128 0x30
 17743 10d99 445F4C4F 		.ascii "D_LOAD 0x00000004\0"
 17743      41442030 
 17743      78303030 
 17743      30303030 
 17743      3400
 17744 10dab 01       		.byte	0x1
 17745 10dac 31       		.uleb128 0x31
 17746 10dad 445F4653 		.ascii "D_FS 0x00000008\0"
 17746      20307830 
 17746      30303030 
 17746      30303800 
 17747 10dbd 01       		.byte	0x1
 17748 10dbe 32       		.uleb128 0x32
 17749 10dbf 445F504F 		.ascii "D_POOL 0x00000010\0"
 17749      4F4C2030 
 17749      78303030 
 17749      30303031 
 17749      3000
 17750 10dd1 01       		.byte	0x1
 17751 10dd2 33       		.uleb128 0x33
 17752 10dd3 445F5041 		.ascii "D_PAGE 0x00000020\0"
 17752      47452030 
 17752      78303030 
 17752      30303032 
 17752      3000
 17753 10de5 01       		.byte	0x1
 17754 10de6 34       		.uleb128 0x34
 17755 10de7 445F494E 		.ascii "D_INFO 0x00000040\0"
 17755      464F2030 
 17755      78303030 
 17755      30303034 
 17755      3000
 17756 10df9 01       		.byte	0x1
 17757 10dfa 35       		.uleb128 0x35
 17758 10dfb 445F5641 		.ascii "D_VAR 0x00000100\0"
 17758      52203078 
 17758      30303030 
 17758      30313030 
 17758      00
 17759 10e0c 01       		.byte	0x1
 17760 10e0d 36       		.uleb128 0x36
 17761 10e0e 445F5041 		.ascii "D_PARSE 0x00000200\0"
 17761      52534520 
 17761      30783030 
 17761      30303032 
 17761      303000
 17762 10e21 01       		.byte	0x1
 17763 10e22 37       		.uleb128 0x37
 17764 10e23 445F424D 		.ascii "D_BM 0x00000400\0"
 17764      20307830 
 17764      30303030 
 17764      34303000 
 17765 10e33 01       		.byte	0x1
 17766 10e34 38       		.uleb128 0x38
 17767 10e35 445F424C 		.ascii "D_BLKIO 0x00001000\0"
 17767      4B494F20 
 17767      30783030 
 17767      30303130 
 17767      303000
 17768 10e48 01       		.byte	0x1
 17769 10e49 39       		.uleb128 0x39
 17770 10e4a 445F424C 		.ascii "D_BLKIO_ULTRA 0x00002000\0"
 17770      4B494F5F 
 17770      554C5452 
 17770      41203078 
 17770      30303030 
 17771 10e63 01       		.byte	0x1
 17772 10e64 3A       		.uleb128 0x3a
 17773 10e65 445F4E45 		.ascii "D_NET 0x00004000\0"
 17773      54203078 
 17773      30303030 
 17773      34303030 
 17773      00
 17774 10e76 01       		.byte	0x1
 17775 10e77 3B       		.uleb128 0x3b
 17776 10e78 445F4E45 		.ascii "D_NET_ULTRA 0x00008000\0"
 17776      545F554C 
 17776      54524120 
 17776      30783030 
 17776      30303830 
 17777 10e8f 01       		.byte	0x1
 17778 10e90 3C       		.uleb128 0x3c
 17779 10e91 445F5458 		.ascii "D_TXTIN 0x00010000\0"
 17779      54494E20 
 17779      30783030 
 17779      30313030 
 17779      303000
 17780 10ea4 01       		.byte	0x1
 17781 10ea5 3D       		.uleb128 0x3d
 17782 10ea6 445F5458 		.ascii "D_TXTOUT 0x00020000\0"
 17782      544F5554 
 17782      20307830 
 17782      30303230 
 17782      30303000 
 17783 10eba 01       		.byte	0x1
 17784 10ebb 3E       		.uleb128 0x3e
 17785 10ebc 445F4552 		.ascii "D_ERROR_ATA 0x00040000\0"
 17785      524F525F 
 17785      41544120 
 17785      30783030 
 17785      30343030 
 17786 10ed3 01       		.byte	0x1
 17787 10ed4 3F       		.uleb128 0x3f
 17788 10ed5 445F4552 		.ascii "D_ERROR 0x80000000\0"
 17788      524F5220 
 17788      30783830 
 17788      30303030 
 17788      303000
 17789 10ee8 01       		.byte	0x1
 17790 10ee9 41       		.uleb128 0x41
 17791 10eea 445F5245 		.ascii "D_RESERVED 0x7fffC880\0"
 17791      53455256 
 17791      45442030 
 17791      78376666 
 17791      66433838 
 17792 10f00 01       		.byte	0x1
 17793 10f01 47       		.uleb128 0x47
 17794 10f02 4546495F 		.ascii "EFI_DBUG_MASK (D_ERROR)\0"
 17794      44425547 
 17794      5F4D4153 
 17794      4B202844 
 17794      5F455252 
 17795 10f1a 01       		.byte	0x1
 17796 10f1b 55       		.uleb128 0x55
 17797 10f1c 41535345 		.ascii "ASSERT(a) \0"
 17797      52542861 
 17797      292000
 17798 10f27 01       		.byte	0x1
 17799 10f28 56       		.uleb128 0x56
 17800 10f29 41535345 		.ascii "ASSERT_LOCKED(l) \0"
 17800      52545F4C 
 17800      4F434B45 
 17800      44286C29 
 17800      2000
 17801 10f3b 01       		.byte	0x1
 17802 10f3c 57       		.uleb128 0x57
 17803 10f3d 41535345 		.ascii "ASSERT_STRUCT(p,t) \0"
 17803      52545F53 
 17803      54525543 
 17803      5428702C 
 17803      74292000 
 17804 10f51 01       		.byte	0x1
 17805 10f52 74       		.uleb128 0x74
 17806 10f53 45584345 		.ascii "EXCEPT_IA32_DIVIDE_ERROR 0\0"
 17806      50545F49 
 17806      4133325F 
 17806      44495649 
 17806      44455F45 
 17807 10f6e 01       		.byte	0x1
 17808 10f6f 75       		.uleb128 0x75
 17809 10f70 45584345 		.ascii "EXCEPT_IA32_DEBUG 1\0"
 17809      50545F49 
 17809      4133325F 
 17809      44454255 
 17809      47203100 
 17810 10f84 01       		.byte	0x1
 17811 10f85 76       		.uleb128 0x76
 17812 10f86 45584345 		.ascii "EXCEPT_IA32_NMI 2\0"
 17812      50545F49 
 17812      4133325F 
 17812      4E4D4920 
 17812      3200
 17813 10f98 01       		.byte	0x1
 17814 10f99 77       		.uleb128 0x77
 17815 10f9a 45584345 		.ascii "EXCEPT_IA32_BREAKPOINT 3\0"
 17815      50545F49 
 17815      4133325F 
 17815      42524541 
 17815      4B504F49 
 17816 10fb3 01       		.byte	0x1
 17817 10fb4 78       		.uleb128 0x78
 17818 10fb5 45584345 		.ascii "EXCEPT_IA32_OVERFLOW 4\0"
 17818      50545F49 
 17818      4133325F 
 17818      4F564552 
 17818      464C4F57 
 17819 10fcc 01       		.byte	0x1
 17820 10fcd 79       		.uleb128 0x79
 17821 10fce 45584345 		.ascii "EXCEPT_IA32_BOUND 5\0"
 17821      50545F49 
 17821      4133325F 
 17821      424F554E 
 17821      44203500 
 17822 10fe2 01       		.byte	0x1
 17823 10fe3 7A       		.uleb128 0x7a
 17824 10fe4 45584345 		.ascii "EXCEPT_IA32_INVALID_OPCODE 6\0"
 17824      50545F49 
 17824      4133325F 
 17824      494E5641 
 17824      4C49445F 
 17825 11001 01       		.byte	0x1
 17826 11002 7B       		.uleb128 0x7b
 17827 11003 45584345 		.ascii "EXCEPT_IA32_DOUBLE_FAULT 8\0"
 17827      50545F49 
 17827      4133325F 
 17827      444F5542 
 17827      4C455F46 
 17828 1101e 01       		.byte	0x1
 17829 1101f 7C       		.uleb128 0x7c
 17830 11020 45584345 		.ascii "EXCEPT_IA32_INVALID_TSS 10\0"
 17830      50545F49 
 17830      4133325F 
 17830      494E5641 
 17830      4C49445F 
 17831 1103b 01       		.byte	0x1
 17832 1103c 7D       		.uleb128 0x7d
 17833 1103d 45584345 		.ascii "EXCEPT_IA32_SEG_NOT_PRESENT 11\0"
 17833      50545F49 
 17833      4133325F 
 17833      5345475F 
 17833      4E4F545F 
 17834 1105c 01       		.byte	0x1
 17835 1105d 7E       		.uleb128 0x7e
 17836 1105e 45584345 		.ascii "EXCEPT_IA32_STACK_FAULT 12\0"
 17836      50545F49 
 17836      4133325F 
 17836      53544143 
 17836      4B5F4641 
 17837 11079 01       		.byte	0x1
 17838 1107a 7F       		.uleb128 0x7f
 17839 1107b 45584345 		.ascii "EXCEPT_IA32_GP_FAULT 13\0"
 17839      50545F49 
 17839      4133325F 
 17839      47505F46 
 17839      41554C54 
 17840 11093 01       		.byte	0x1
 17841 11094 8001     		.uleb128 0x80
 17842 11096 45584345 		.ascii "EXCEPT_IA32_PAGE_FAULT 14\0"
 17842      50545F49 
 17842      4133325F 
 17842      50414745 
 17842      5F464155 
 17843 110b0 01       		.byte	0x1
 17844 110b1 8101     		.uleb128 0x81
 17845 110b3 45584345 		.ascii "EXCEPT_IA32_FP_ERROR 16\0"
 17845      50545F49 
 17845      4133325F 
 17845      46505F45 
 17845      52524F52 
 17846 110cb 01       		.byte	0x1
 17847 110cc 8201     		.uleb128 0x82
 17848 110ce 45584345 		.ascii "EXCEPT_IA32_ALIGNMENT_CHECK 17\0"
 17848      50545F49 
 17848      4133325F 
 17848      414C4947 
 17848      4E4D454E 
 17849 110ed 01       		.byte	0x1
 17850 110ee 8301     		.uleb128 0x83
 17851 110f0 45584345 		.ascii "EXCEPT_IA32_MACHINE_CHECK 18\0"
 17851      50545F49 
 17851      4133325F 
 17851      4D414348 
 17851      494E455F 
 17852 1110d 01       		.byte	0x1
 17853 1110e 8401     		.uleb128 0x84
 17854 11110 45584345 		.ascii "EXCEPT_IA32_SIMD 19\0"
 17854      50545F49 
 17854      4133325F 
 17854      53494D44 
 17854      20313900 
 17855 11124 01       		.byte	0x1
 17856 11125 C901     		.uleb128 0xc9
 17857 11127 45584345 		.ascii "EXCEPT_X64_DIVIDE_ERROR 0\0"
 17857      50545F58 
 17857      36345F44 
 17857      49564944 
 17857      455F4552 
 17858 11141 01       		.byte	0x1
 17859 11142 CA01     		.uleb128 0xca
 17860 11144 45584345 		.ascii "EXCEPT_X64_DEBUG 1\0"
 17860      50545F58 
 17860      36345F44 
 17860      45425547 
 17860      203100
 17861 11157 01       		.byte	0x1
 17862 11158 CB01     		.uleb128 0xcb
 17863 1115a 45584345 		.ascii "EXCEPT_X64_NMI 2\0"
 17863      50545F58 
 17863      36345F4E 
 17863      4D492032 
 17863      00
 17864 1116b 01       		.byte	0x1
 17865 1116c CC01     		.uleb128 0xcc
 17866 1116e 45584345 		.ascii "EXCEPT_X64_BREAKPOINT 3\0"
 17866      50545F58 
 17866      36345F42 
 17866      5245414B 
 17866      504F494E 
 17867 11186 01       		.byte	0x1
 17868 11187 CD01     		.uleb128 0xcd
 17869 11189 45584345 		.ascii "EXCEPT_X64_OVERFLOW 4\0"
 17869      50545F58 
 17869      36345F4F 
 17869      56455246 
 17869      4C4F5720 
 17870 1119f 01       		.byte	0x1
 17871 111a0 CE01     		.uleb128 0xce
 17872 111a2 45584345 		.ascii "EXCEPT_X64_BOUND 5\0"
 17872      50545F58 
 17872      36345F42 
 17872      4F554E44 
 17872      203500
 17873 111b5 01       		.byte	0x1
 17874 111b6 CF01     		.uleb128 0xcf
 17875 111b8 45584345 		.ascii "EXCEPT_X64_INVALID_OPCODE 6\0"
 17875      50545F58 
 17875      36345F49 
 17875      4E56414C 
 17875      49445F4F 
 17876 111d4 01       		.byte	0x1
 17877 111d5 D001     		.uleb128 0xd0
 17878 111d7 45584345 		.ascii "EXCEPT_X64_DOUBLE_FAULT 8\0"
 17878      50545F58 
 17878      36345F44 
 17878      4F55424C 
 17878      455F4641 
 17879 111f1 01       		.byte	0x1
 17880 111f2 D101     		.uleb128 0xd1
 17881 111f4 45584345 		.ascii "EXCEPT_X64_INVALID_TSS 10\0"
 17881      50545F58 
 17881      36345F49 
 17881      4E56414C 
 17881      49445F54 
 17882 1120e 01       		.byte	0x1
 17883 1120f D201     		.uleb128 0xd2
 17884 11211 45584345 		.ascii "EXCEPT_X64_SEG_NOT_PRESENT 11\0"
 17884      50545F58 
 17884      36345F53 
 17884      45475F4E 
 17884      4F545F50 
 17885 1122f 01       		.byte	0x1
 17886 11230 D301     		.uleb128 0xd3
 17887 11232 45584345 		.ascii "EXCEPT_X64_STACK_FAULT 12\0"
 17887      50545F58 
 17887      36345F53 
 17887      5441434B 
 17887      5F464155 
 17888 1124c 01       		.byte	0x1
 17889 1124d D401     		.uleb128 0xd4
 17890 1124f 45584345 		.ascii "EXCEPT_X64_GP_FAULT 13\0"
 17890      50545F58 
 17890      36345F47 
 17890      505F4641 
 17890      554C5420 
 17891 11266 01       		.byte	0x1
 17892 11267 D501     		.uleb128 0xd5
 17893 11269 45584345 		.ascii "EXCEPT_X64_PAGE_FAULT 14\0"
 17893      50545F58 
 17893      36345F50 
 17893      4147455F 
 17893      4641554C 
 17894 11282 01       		.byte	0x1
 17895 11283 D601     		.uleb128 0xd6
 17896 11285 45584345 		.ascii "EXCEPT_X64_FP_ERROR 16\0"
 17896      50545F58 
 17896      36345F46 
 17896      505F4552 
 17896      524F5220 
 17897 1129c 01       		.byte	0x1
 17898 1129d D701     		.uleb128 0xd7
 17899 1129f 45584345 		.ascii "EXCEPT_X64_ALIGNMENT_CHECK 17\0"
 17899      50545F58 
 17899      36345F41 
 17899      4C49474E 
 17899      4D454E54 
 17900 112bd 01       		.byte	0x1
 17901 112be D801     		.uleb128 0xd8
 17902 112c0 45584345 		.ascii "EXCEPT_X64_MACHINE_CHECK 18\0"
 17902      50545F58 
 17902      36345F4D 
 17902      41434849 
 17902      4E455F43 
 17903 112dc 01       		.byte	0x1
 17904 112dd D901     		.uleb128 0xd9
 17905 112df 45584345 		.ascii "EXCEPT_X64_SIMD 19\0"
 17905      50545F58 
 17905      36345F53 
 17905      494D4420 
 17905      313900
 17906 112f2 01       		.byte	0x1
 17907 112f3 A402     		.uleb128 0x124
 17908 112f5 45584345 		.ascii "EXCEPT_IPF_VHTP_TRANSLATION 0\0"
 17908      50545F49 
 17908      50465F56 
 17908      4854505F 
 17908      5452414E 
 17909 11313 01       		.byte	0x1
 17910 11314 A502     		.uleb128 0x125
 17911 11316 45584345 		.ascii "EXCEPT_IPF_INSTRUCTION_TLB 1\0"
 17911      50545F49 
 17911      50465F49 
 17911      4E535452 
 17911      55435449 
 17912 11333 01       		.byte	0x1
 17913 11334 A602     		.uleb128 0x126
 17914 11336 45584345 		.ascii "EXCEPT_IPF_DATA_TLB 2\0"
 17914      50545F49 
 17914      50465F44 
 17914      4154415F 
 17914      544C4220 
 17915 1134c 01       		.byte	0x1
 17916 1134d A702     		.uleb128 0x127
 17917 1134f 45584345 		.ascii "EXCEPT_IPF_ALT_INSTRUCTION_TLB 3\0"
 17917      50545F49 
 17917      50465F41 
 17917      4C545F49 
 17917      4E535452 
 17918 11370 01       		.byte	0x1
 17919 11371 A802     		.uleb128 0x128
 17920 11373 45584345 		.ascii "EXCEPT_IPF_ALT_DATA_TLB 4\0"
 17920      50545F49 
 17920      50465F41 
 17920      4C545F44 
 17920      4154415F 
 17921 1138d 01       		.byte	0x1
 17922 1138e A902     		.uleb128 0x129
 17923 11390 45584345 		.ascii "EXCEPT_IPF_DATA_NESTED_TLB 5\0"
 17923      50545F49 
 17923      50465F44 
 17923      4154415F 
 17923      4E455354 
 17924 113ad 01       		.byte	0x1
 17925 113ae AA02     		.uleb128 0x12a
 17926 113b0 45584345 		.ascii "EXCEPT_IPF_INSTRUCTION_KEY_MISSED 6\0"
 17926      50545F49 
 17926      50465F49 
 17926      4E535452 
 17926      55435449 
 17927 113d4 01       		.byte	0x1
 17928 113d5 AB02     		.uleb128 0x12b
 17929 113d7 45584345 		.ascii "EXCEPT_IPF_DATA_KEY_MISSED 7\0"
 17929      50545F49 
 17929      50465F44 
 17929      4154415F 
 17929      4B45595F 
 17930 113f4 01       		.byte	0x1
 17931 113f5 AC02     		.uleb128 0x12c
 17932 113f7 45584345 		.ascii "EXCEPT_IPF_DIRTY_BIT 8\0"
 17932      50545F49 
 17932      50465F44 
 17932      49525459 
 17932      5F424954 
 17933 1140e 01       		.byte	0x1
 17934 1140f AD02     		.uleb128 0x12d
 17935 11411 45584345 		.ascii "EXCEPT_IPF_INSTRUCTION_ACCESS_BIT 9\0"
 17935      50545F49 
 17935      50465F49 
 17935      4E535452 
 17935      55435449 
 17936 11435 01       		.byte	0x1
 17937 11436 AE02     		.uleb128 0x12e
 17938 11438 45584345 		.ascii "EXCEPT_IPF_DATA_ACCESS_BIT 10\0"
 17938      50545F49 
 17938      50465F44 
 17938      4154415F 
 17938      41434345 
 17939 11456 01       		.byte	0x1
 17940 11457 AF02     		.uleb128 0x12f
 17941 11459 45584345 		.ascii "EXCEPT_IPF_BREAKPOINT 11\0"
 17941      50545F49 
 17941      50465F42 
 17941      5245414B 
 17941      504F494E 
 17942 11472 01       		.byte	0x1
 17943 11473 B002     		.uleb128 0x130
 17944 11475 45584345 		.ascii "EXCEPT_IPF_EXTERNAL_INTERRUPT 12\0"
 17944      50545F49 
 17944      50465F45 
 17944      58544552 
 17944      4E414C5F 
 17945 11496 01       		.byte	0x1
 17946 11497 B102     		.uleb128 0x131
 17947 11499 45584345 		.ascii "EXCEPT_IPF_PAGE_NOT_PRESENT 20\0"
 17947      50545F49 
 17947      50465F50 
 17947      4147455F 
 17947      4E4F545F 
 17948 114b8 01       		.byte	0x1
 17949 114b9 B202     		.uleb128 0x132
 17950 114bb 45584345 		.ascii "EXCEPT_IPF_KEY_PERMISSION 21\0"
 17950      50545F49 
 17950      50465F4B 
 17950      45595F50 
 17950      45524D49 
 17951 114d8 01       		.byte	0x1
 17952 114d9 B302     		.uleb128 0x133
 17953 114db 45584345 		.ascii "EXCEPT_IPF_INSTRUCTION_ACCESS_RIGHTS 22\0"
 17953      50545F49 
 17953      50465F49 
 17953      4E535452 
 17953      55435449 
 17954 11503 01       		.byte	0x1
 17955 11504 B402     		.uleb128 0x134
 17956 11506 45584345 		.ascii "EXCEPT_IPF_DATA_ACCESS_RIGHTS 23\0"
 17956      50545F49 
 17956      50465F44 
 17956      4154415F 
 17956      41434345 
 17957 11527 01       		.byte	0x1
 17958 11528 B502     		.uleb128 0x135
 17959 1152a 45584345 		.ascii "EXCEPT_IPF_GENERAL_EXCEPTION 24\0"
 17959      50545F49 
 17959      50465F47 
 17959      454E4552 
 17959      414C5F45 
 17960 1154a 01       		.byte	0x1
 17961 1154b B602     		.uleb128 0x136
 17962 1154d 45584345 		.ascii "EXCEPT_IPF_DISABLED_FP_REGISTER 25\0"
 17962      50545F49 
 17962      50465F44 
 17962      49534142 
 17962      4C45445F 
 17963 11570 01       		.byte	0x1
 17964 11571 B702     		.uleb128 0x137
 17965 11573 45584345 		.ascii "EXCEPT_IPF_NAT_CONSUMPTION 26\0"
 17965      50545F49 
 17965      50465F4E 
 17965      41545F43 
 17965      4F4E5355 
 17966 11591 01       		.byte	0x1
 17967 11592 B802     		.uleb128 0x138
 17968 11594 45584345 		.ascii "EXCEPT_IPF_SPECULATION 27\0"
 17968      50545F49 
 17968      50465F53 
 17968      50454355 
 17968      4C415449 
 17969 115ae 01       		.byte	0x1
 17970 115af B902     		.uleb128 0x139
 17971 115b1 45584345 		.ascii "EXCEPT_IPF_DEBUG 29\0"
 17971      50545F49 
 17971      50465F44 
 17971      45425547 
 17971      20323900 
 17972 115c5 01       		.byte	0x1
 17973 115c6 BA02     		.uleb128 0x13a
 17974 115c8 45584345 		.ascii "EXCEPT_IPF_UNALIGNED_REFERENCE 30\0"
 17974      50545F49 
 17974      50465F55 
 17974      4E414C49 
 17974      474E4544 
 17975 115ea 01       		.byte	0x1
 17976 115eb BB02     		.uleb128 0x13b
 17977 115ed 45584345 		.ascii "EXCEPT_IPF_UNSUPPORTED_DATA_REFERENCE 31\0"
 17977      50545F49 
 17977      50465F55 
 17977      4E535550 
 17977      504F5254 
 17978 11616 01       		.byte	0x1
 17979 11617 BC02     		.uleb128 0x13c
 17980 11619 45584345 		.ascii "EXCEPT_IPF_FP_FAULT 32\0"
 17980      50545F49 
 17980      50465F46 
 17980      505F4641 
 17980      554C5420 
 17981 11630 01       		.byte	0x1
 17982 11631 BD02     		.uleb128 0x13d
 17983 11633 45584345 		.ascii "EXCEPT_IPF_FP_TRAP 33\0"
 17983      50545F49 
 17983      50465F46 
 17983      505F5452 
 17983      41502033 
 17984 11649 01       		.byte	0x1
 17985 1164a BE02     		.uleb128 0x13e
 17986 1164c 45584345 		.ascii "EXCEPT_IPF_LOWER_PRIVILEGE_TRANSFER_TRAP 34\0"
 17986      50545F49 
 17986      50465F4C 
 17986      4F574552 
 17986      5F505249 
 17987 11678 01       		.byte	0x1
 17988 11679 BF02     		.uleb128 0x13f
 17989 1167b 45584345 		.ascii "EXCEPT_IPF_TAKEN_BRANCH 35\0"
 17989      50545F49 
 17989      50465F54 
 17989      414B454E 
 17989      5F425241 
 17990 11696 01       		.byte	0x1
 17991 11697 C002     		.uleb128 0x140
 17992 11699 45584345 		.ascii "EXCEPT_IPF_SINGLE_STEP 36\0"
 17992      50545F49 
 17992      50465F53 
 17992      494E474C 
 17992      455F5354 
 17993 116b3 01       		.byte	0x1
 17994 116b4 C102     		.uleb128 0x141
 17995 116b6 45584345 		.ascii "EXCEPT_IPF_IA32_EXCEPTION 45\0"
 17995      50545F49 
 17995      50465F49 
 17995      4133325F 
 17995      45584345 
 17996 116d3 01       		.byte	0x1
 17997 116d4 C202     		.uleb128 0x142
 17998 116d6 45584345 		.ascii "EXCEPT_IPF_IA32_INTERCEPT 46\0"
 17998      50545F49 
 17998      50465F49 
 17998      4133325F 
 17998      494E5445 
 17999 116f3 01       		.byte	0x1
 18000 116f4 C302     		.uleb128 0x143
 18001 116f6 45584345 		.ascii "EXCEPT_IPF_IA32_INTERRUPT 47\0"
 18001      50545F49 
 18001      50465F49 
 18001      4133325F 
 18001      494E5445 
 18002 11713 01       		.byte	0x1
 18003 11714 C003     		.uleb128 0x1c0
 18004 11716 45584345 		.ascii "EXCEPT_EBC_UNDEFINED 0\0"
 18004      50545F45 
 18004      42435F55 
 18004      4E444546 
 18004      494E4544 
 18005 1172d 01       		.byte	0x1
 18006 1172e C103     		.uleb128 0x1c1
 18007 11730 45584345 		.ascii "EXCEPT_EBC_DIVIDE_ERROR 1\0"
 18007      50545F45 
 18007      42435F44 
 18007      49564944 
 18007      455F4552 
 18008 1174a 01       		.byte	0x1
 18009 1174b C203     		.uleb128 0x1c2
 18010 1174d 45584345 		.ascii "EXCEPT_EBC_DEBUG 2\0"
 18010      50545F45 
 18010      42435F44 
 18010      45425547 
 18010      203200
 18011 11760 01       		.byte	0x1
 18012 11761 C303     		.uleb128 0x1c3
 18013 11763 45584345 		.ascii "EXCEPT_EBC_BREAKPOINT 3\0"
 18013      50545F45 
 18013      42435F42 
 18013      5245414B 
 18013      504F494E 
 18014 1177b 01       		.byte	0x1
 18015 1177c C403     		.uleb128 0x1c4
 18016 1177e 45584345 		.ascii "EXCEPT_EBC_OVERFLOW 4\0"
 18016      50545F45 
 18016      42435F4F 
 18016      56455246 
 18016      4C4F5720 
 18017 11794 01       		.byte	0x1
 18018 11795 C503     		.uleb128 0x1c5
 18019 11797 45584345 		.ascii "EXCEPT_EBC_INVALID_OPCODE 5\0"
 18019      50545F45 
 18019      42435F49 
 18019      4E56414C 
 18019      49445F4F 
 18020 117b3 01       		.byte	0x1
 18021 117b4 C603     		.uleb128 0x1c6
 18022 117b6 45584345 		.ascii "EXCEPT_EBC_STACK_FAULT 6\0"
 18022      50545F45 
 18022      42435F53 
 18022      5441434B 
 18022      5F464155 
 18023 117cf 01       		.byte	0x1
 18024 117d0 C703     		.uleb128 0x1c7
 18025 117d2 45584345 		.ascii "EXCEPT_EBC_ALIGNMENT_CHECK 7\0"
 18025      50545F45 
 18025      42435F41 
 18025      4C49474E 
 18025      4D454E54 
 18026 117ef 01       		.byte	0x1
 18027 117f0 C803     		.uleb128 0x1c8
 18028 117f2 45584345 		.ascii "EXCEPT_EBC_INSTRUCTION_ENCODING 8\0"
 18028      50545F45 
 18028      42435F49 
 18028      4E535452 
 18028      55435449 
 18029 11814 01       		.byte	0x1
 18030 11815 C903     		.uleb128 0x1c9
 18031 11817 45584345 		.ascii "EXCEPT_EBC_BAD_BREAK 9\0"
 18031      50545F45 
 18031      42435F42 
 18031      41445F42 
 18031      5245414B 
 18032 1182e 01       		.byte	0x1
 18033 1182f CA03     		.uleb128 0x1ca
 18034 11831 45584345 		.ascii "EXCEPT_EBC_STEP 10\0"
 18034      50545F45 
 18034      42435F53 
 18034      54455020 
 18034      313000
 18035 11844 01       		.byte	0x1
 18036 11845 CB03     		.uleb128 0x1cb
 18037 11847 4D41585F 		.ascii "MAX_EBC_EXCEPTION EXCEPT_EBC_STEP\0"
 18037      4542435F 
 18037      45584345 
 18037      5054494F 
 18037      4E204558 
 18038 11869 01       		.byte	0x1
 18039 1186a DC03     		.uleb128 0x1dc
 18040 1186c 45584345 		.ascii "EXCEPT_ARM_RESET 0\0"
 18040      50545F41 
 18040      524D5F52 
 18040      45534554 
 18040      203000
 18041 1187f 01       		.byte	0x1
 18042 11880 DD03     		.uleb128 0x1dd
 18043 11882 45584345 		.ascii "EXCEPT_ARM_UNDEFINED_INSTRUCTION 1\0"
 18043      50545F41 
 18043      524D5F55 
 18043      4E444546 
 18043      494E4544 
 18044 118a5 01       		.byte	0x1
 18045 118a6 DE03     		.uleb128 0x1de
 18046 118a8 45584345 		.ascii "EXCEPT_ARM_SOFTWARE_INTERRUPT 2\0"
 18046      50545F41 
 18046      524D5F53 
 18046      4F465457 
 18046      4152455F 
 18047 118c8 01       		.byte	0x1
 18048 118c9 DF03     		.uleb128 0x1df
 18049 118cb 45584345 		.ascii "EXCEPT_ARM_PREFETCH_ABORT 3\0"
 18049      50545F41 
 18049      524D5F50 
 18049      52454645 
 18049      5443485F 
 18050 118e7 01       		.byte	0x1
 18051 118e8 E003     		.uleb128 0x1e0
 18052 118ea 45584345 		.ascii "EXCEPT_ARM_DATA_ABORT 4\0"
 18052      50545F41 
 18052      524D5F44 
 18052      4154415F 
 18052      41424F52 
 18053 11902 01       		.byte	0x1
 18054 11903 E103     		.uleb128 0x1e1
 18055 11905 45584345 		.ascii "EXCEPT_ARM_RESERVED 5\0"
 18055      50545F41 
 18055      524D5F52 
 18055      45534552 
 18055      56454420 
 18056 1191b 01       		.byte	0x1
 18057 1191c E203     		.uleb128 0x1e2
 18058 1191e 45584345 		.ascii "EXCEPT_ARM_IRQ 6\0"
 18058      50545F41 
 18058      524D5F49 
 18058      52512036 
 18058      00
 18059 1192f 01       		.byte	0x1
 18060 11930 E303     		.uleb128 0x1e3
 18061 11932 45584345 		.ascii "EXCEPT_ARM_FIQ 7\0"
 18061      50545F41 
 18061      524D5F46 
 18061      49512037 
 18061      00
 18062 11943 01       		.byte	0x1
 18063 11944 E403     		.uleb128 0x1e4
 18064 11946 4D41585F 		.ascii "MAX_ARM_EXCEPTION EXCEPT_ARM_FIQ\0"
 18064      41524D5F 
 18064      45584345 
 18064      5054494F 
 18064      4E204558 
 18065 11967 01       		.byte	0x1
 18066 11968 9F04     		.uleb128 0x21f
 18067 1196a 4546495F 		.ascii "EFI_DEBUG_IMAGE_INFO_TABLE_GUID { 0x49152e77, 0x1ada, 0x4764, {0xb7, 0xa2, 0x7a, 0xfe, 0xf
 18067      44454255 
 18067      475F494D 
 18067      4147455F 
 18067      494E464F 
 18068 119db 01       		.byte	0x1
 18069 119dc A204     		.uleb128 0x222
 18070 119de 4546495F 		.ascii "EFI_DEBUG_IMAGE_INFO_UPDATE_IN_PROGRESS 0x01\0"
 18070      44454255 
 18070      475F494D 
 18070      4147455F 
 18070      494E464F 
 18071 11a0b 01       		.byte	0x1
 18072 11a0c A304     		.uleb128 0x223
 18073 11a0e 4546495F 		.ascii "EFI_DEBUG_IMAGE_INFO_TABLE_MODIFIED 0x02\0"
 18073      44454255 
 18073      475F494D 
 18073      4147455F 
 18073      494E464F 
 18074 11a37 01       		.byte	0x1
 18075 11a38 A404     		.uleb128 0x224
 18076 11a3a 4546495F 		.ascii "EFI_DEBUG_IMAGE_INFO_INITIAL_SIZE (EFI_PAGE_SIZE / sizeof (UINTN))\0"
 18076      44454255 
 18076      475F494D 
 18076      4147455F 
 18076      494E464F 
 18077 11a7d 01       		.byte	0x1
 18078 11a7e A504     		.uleb128 0x225
 18079 11a80 4546495F 		.ascii "EFI_DEBUG_IMAGE_INFO_TYPE_NORMAL 0x01\0"
 18079      44454255 
 18079      475F494D 
 18079      4147455F 
 18079      494E464F 
 18080 11aa6 01       		.byte	0x1
 18081 11aa7 C204     		.uleb128 0x242
 18082 11aa9 4546495F 		.ascii "EFI_DEBUG_SUPPORT_PROTOCOL_GUID { 0x2755590c, 0x6f3c, 0x42fa, {0x9e, 0xa4, 0xa3, 0xba, 0x5
 18082      44454255 
 18082      475F5355 
 18082      50504F52 
 18082      545F5052 
 18083 11b1a 04       		.byte	0x4
 18084              		.file 38 "gnu-efi-3.0.18/inc/efipart.h"
 18085 11b1b 03       		.byte	0x3
 18086 11b1c 1B       		.uleb128 0x1b
 18087 11b1d 26       		.uleb128 0x26
 18088 11b1e 01       		.byte	0x1
 18089 11b1f 02       		.uleb128 0x2
 18090 11b20 5F454649 		.ascii "_EFI_PART_H \0"
 18090      5F504152 
 18090      545F4820 
 18090      00
 18091 11b2d 01       		.byte	0x1
 18092 11b2e 1A       		.uleb128 0x1a
 18093 11b2f 4546495F 		.ascii "EFI_PARTITION 0xef\0"
 18093      50415254 
 18093      4954494F 
 18093      4E203078 
 18093      656600
 18094 11b42 01       		.byte	0x1
 18095 11b43 1B       		.uleb128 0x1b
 18096 11b44 4D42525F 		.ascii "MBR_SIZE 512\0"
 18096      53495A45 
 18096      20353132 
 18096      00
 18097 11b51 01       		.byte	0x1
 18098 11b52 2C       		.uleb128 0x2c
 18099 11b53 45585452 		.ascii "EXTRACT_UINT32(D) (UINT32)(D[0] | (D[1] << 8) | (D[2] << 16) | (D[3] << 24))\0"
 18099      4143545F 
 18099      55494E54 
 18099      33322844 
 18099      29202855 
 18100 11ba0 01       		.byte	0x1
 18101 11ba1 2E       		.uleb128 0x2e
 18102 11ba2 4D42525F 		.ascii "MBR_SIGNATURE 0xaa55\0"
 18102      5349474E 
 18102      41545552 
 18102      45203078 
 18102      61613535 
 18103 11bb7 01       		.byte	0x1
 18104 11bb8 2F       		.uleb128 0x2f
 18105 11bb9 4D494E5F 		.ascii "MIN_MBR_DEVICE_SIZE 0x80000\0"
 18105      4D42525F 
 18105      44455649 
 18105      43455F53 
 18105      495A4520 
 18106 11bd5 01       		.byte	0x1
 18107 11bd6 30       		.uleb128 0x30
 18108 11bd7 4D42525F 		.ascii "MBR_ERRATA_PAD 0x40000\0"
 18108      45525241 
 18108      54415F50 
 18108      41442030 
 18108      78343030 
 18109 11bee 01       		.byte	0x1
 18110 11bef 32       		.uleb128 0x32
 18111 11bf0 4D41585F 		.ascii "MAX_MBR_PARTITIONS 4\0"
 18111      4D42525F 
 18111      50415254 
 18111      4954494F 
 18111      4E532034 
 18112 11c05 04       		.byte	0x4
 18113              		.file 39 "gnu-efi-3.0.18/inc/x86_64/efilibplat.h"
 18114 11c06 03       		.byte	0x3
 18115 11c07 1D       		.uleb128 0x1d
 18116 11c08 27       		.uleb128 0x27
 18117 11c09 04       		.byte	0x4
 18118              		.file 40 "gnu-efi-3.0.18/inc/efirtlib.h"
 18119 11c0a 03       		.byte	0x3
 18120 11c0b 2E       		.uleb128 0x2e
 18121 11c0c 28       		.uleb128 0x28
 18122 11c0d 01       		.byte	0x1
 18123 11c0e 02       		.uleb128 0x2
 18124 11c0f 5F454649 		.ascii "_EFI_RT_LIB_INCLUDE_ \0"
 18124      5F52545F 
 18124      4C49425F 
 18124      494E434C 
 18124      5544455F 
 18125 11c25 03       		.byte	0x3
 18126 11c26 18       		.uleb128 0x18
 18127 11c27 27       		.uleb128 0x27
 18128 11c28 04       		.byte	0x4
 18129 11c29 04       		.byte	0x4
 18130              		.file 41 "gnu-efi-3.0.18/inc/efistdarg.h"
 18131 11c2a 03       		.byte	0x3
 18132 11c2b 2F       		.uleb128 0x2f
 18133 11c2c 29       		.uleb128 0x29
 18134 11c2d 01       		.byte	0x1
 18135 11c2e 02       		.uleb128 0x2
 18136 11c2f 5F454649 		.ascii "_EFISTDARG_H_ \0"
 18136      53544441 
 18136      52475F48 
 18136      5F2000
 18137 11c3e 01       		.byte	0x1
 18138 11c3f 19       		.uleb128 0x19
 18139 11c40 76615F73 		.ascii "va_start(v,l) __builtin_va_start(v,l)\0"
 18139      74617274 
 18139      28762C6C 
 18139      29205F5F 
 18139      6275696C 
 18140 11c66 01       		.byte	0x1
 18141 11c67 1A       		.uleb128 0x1a
 18142 11c68 76615F65 		.ascii "va_end(v) __builtin_va_end(v)\0"
 18142      6E642876 
 18142      29205F5F 
 18142      6275696C 
 18142      74696E5F 
 18143 11c86 01       		.byte	0x1
 18144 11c87 1B       		.uleb128 0x1b
 18145 11c88 76615F61 		.ascii "va_arg(v,l) __builtin_va_arg(v,l)\0"
 18145      72672876 
 18145      2C6C2920 
 18145      5F5F6275 
 18145      696C7469 
 18146 11caa 01       		.byte	0x1
 18147 11cab 1C       		.uleb128 0x1c
 18148 11cac 76615F63 		.ascii "va_copy(d,s) __builtin_va_copy(d,s)\0"
 18148      6F707928 
 18148      642C7329 
 18148      205F5F62 
 18148      75696C74 
 18149 11cd0 04       		.byte	0x4
 18150              		.file 42 "gnu-efi-3.0.18/inc/pci22.h"
 18151 11cd1 03       		.byte	0x3
 18152 11cd2 30       		.uleb128 0x30
 18153 11cd3 2A       		.uleb128 0x2a
 18154 11cd4 01       		.byte	0x1
 18155 11cd5 02       		.uleb128 0x2
 18156 11cd6 5F504349 		.ascii "_PCI22_H \0"
 18156      32325F48 
 18156      2000
 18157 11ce0 01       		.byte	0x1
 18158 11ce1 19       		.uleb128 0x19
 18159 11ce2 5043495F 		.ascii "PCI_MAX_BUS 255\0"
 18159      4D41585F 
 18159      42555320 
 18159      32353500 
 18160 11cf2 01       		.byte	0x1
 18161 11cf3 1C       		.uleb128 0x1c
 18162 11cf4 5043495F 		.ascii "PCI_MAX_DEVICE 31\0"
 18162      4D41585F 
 18162      44455649 
 18162      43452033 
 18162      3100
 18163 11d06 01       		.byte	0x1
 18164 11d07 1D       		.uleb128 0x1d
 18165 11d08 5043495F 		.ascii "PCI_MAX_FUNC 7\0"
 18165      4D41585F 
 18165      46554E43 
 18165      203700
 18166 11d17 01       		.byte	0x1
 18167 11d18 22       		.uleb128 0x22
 18168 11d19 5043495F 		.ascii "PCI_VGA_PALETTE_SNOOP_DISABLED 0x20\0"
 18168      5647415F 
 18168      50414C45 
 18168      5454455F 
 18168      534E4F4F 
 18169 11d3d 01       		.byte	0x1
 18170 11d3e 5C       		.uleb128 0x5c
 18171 11d3f 5043495F 		.ascii "PCI_CLASS_DISPLAY_CTRL 0x03\0"
 18171      434C4153 
 18171      535F4449 
 18171      53504C41 
 18171      595F4354 
 18172 11d5b 01       		.byte	0x1
 18173 11d5c 5D       		.uleb128 0x5d
 18174 11d5d 5043495F 		.ascii "PCI_CLASS_VGA 0x00\0"
 18174      434C4153 
 18174      535F5647 
 18174      41203078 
 18174      303000
 18175 11d70 01       		.byte	0x1
 18176 11d71 5F       		.uleb128 0x5f
 18177 11d72 5043495F 		.ascii "PCI_CLASS_BRIDGE 0x06\0"
 18177      434C4153 
 18177      535F4252 
 18177      49444745 
 18177      20307830 
 18178 11d88 01       		.byte	0x1
 18179 11d89 60       		.uleb128 0x60
 18180 11d8a 5043495F 		.ascii "PCI_CLASS_ISA 0x01\0"
 18180      434C4153 
 18180      535F4953 
 18180      41203078 
 18180      303100
 18181 11d9d 01       		.byte	0x1
 18182 11d9e 61       		.uleb128 0x61
 18183 11d9f 5043495F 		.ascii "PCI_CLASS_ISA_POSITIVE_DECODE 0x80\0"
 18183      434C4153 
 18183      535F4953 
 18183      415F504F 
 18183      53495449 
 18184 11dc2 01       		.byte	0x1
 18185 11dc3 63       		.uleb128 0x63
 18186 11dc4 5043495F 		.ascii "PCI_CLASS_NETWORK 0x02\0"
 18186      434C4153 
 18186      535F4E45 
 18186      54574F52 
 18186      4B203078 
 18187 11ddb 01       		.byte	0x1
 18188 11ddc 64       		.uleb128 0x64
 18189 11ddd 5043495F 		.ascii "PCI_CLASS_ETHERNET 0x00\0"
 18189      434C4153 
 18189      535F4554 
 18189      4845524E 
 18189      45542030 
 18190 11df5 01       		.byte	0x1
 18191 11df6 66       		.uleb128 0x66
 18192 11df7 48454144 		.ascii "HEADER_TYPE_DEVICE 0x00\0"
 18192      45525F54 
 18192      5950455F 
 18192      44455649 
 18192      43452030 
 18193 11e0f 01       		.byte	0x1
 18194 11e10 67       		.uleb128 0x67
 18195 11e11 48454144 		.ascii "HEADER_TYPE_PCI_TO_PCI_BRIDGE 0x01\0"
 18195      45525F54 
 18195      5950455F 
 18195      5043495F 
 18195      544F5F50 
 18196 11e34 01       		.byte	0x1
 18197 11e35 68       		.uleb128 0x68
 18198 11e36 48454144 		.ascii "HEADER_TYPE_MULTI_FUNCTION 0x80\0"
 18198      45525F54 
 18198      5950455F 
 18198      4D554C54 
 18198      495F4655 
 18199 11e56 01       		.byte	0x1
 18200 11e57 69       		.uleb128 0x69
 18201 11e58 48454144 		.ascii "HEADER_LAYOUT_CODE 0x7f\0"
 18201      45525F4C 
 18201      41594F55 
 18201      545F434F 
 18201      44452030 
 18202 11e70 01       		.byte	0x1
 18203 11e71 6B       		.uleb128 0x6b
 18204 11e72 49535F50 		.ascii "IS_PCI_BRIDGE(_p) ((((_p)->Hdr.HeaderType) & HEADER_LAYOUT_CODE) == HEADER_TYPE_PCI_TO_PCI
 18204      43495F42 
 18204      52494447 
 18204      45285F70 
 18204      29202828 
 18205 11ed5 01       		.byte	0x1
 18206 11ed6 6C       		.uleb128 0x6c
 18207 11ed7 49535F50 		.ascii "IS_PCI_MULTI_FUNC(_p) (((_p)->Hdr.HeaderType) & HEADER_TYPE_MULTI_FUNCTION)\0"
 18207      43495F4D 
 18207      554C5449 
 18207      5F46554E 
 18207      43285F70 
 18208 11f23 01       		.byte	0x1
 18209 11f24 8601     		.uleb128 0x86
 18210 11f26 4546495F 		.ascii "EFI_ROOT_BRIDGE_LIST 'eprb'\0"
 18210      524F4F54 
 18210      5F425249 
 18210      4447455F 
 18210      4C495354 
 18211 11f42 01       		.byte	0x1
 18212 11f43 9401     		.uleb128 0x94
 18213 11f45 5043495F 		.ascii "PCI_EXPANSION_ROM_HEADER_SIGNATURE 0xaa55\0"
 18213      45585041 
 18213      4E53494F 
 18213      4E5F524F 
 18213      4D5F4845 
 18214 11f6f 01       		.byte	0x1
 18215 11f70 9501     		.uleb128 0x95
 18216 11f72 4546495F 		.ascii "EFI_PCI_EXPANSION_ROM_HEADER_EFISIGNATURE 0x0EF1\0"
 18216      5043495F 
 18216      45585041 
 18216      4E53494F 
 18216      4E5F524F 
 18217 11fa3 01       		.byte	0x1
 18218 11fa4 9601     		.uleb128 0x96
 18219 11fa6 5043495F 		.ascii "PCI_DATA_STRUCTURE_SIGNATURE EFI_SIGNATURE_32('P','C','I','R')\0"
 18219      44415441 
 18219      5F535452 
 18219      55435455 
 18219      52455F53 
 18220 11fe5 04       		.byte	0x4
 18221              		.file 43 "gnu-efi-3.0.18/inc/libsmbios.h"
 18222 11fe6 03       		.byte	0x3
 18223 11fe7 31       		.uleb128 0x31
 18224 11fe8 2B       		.uleb128 0x2b
 18225 11fe9 01       		.byte	0x1
 18226 11fea 02       		.uleb128 0x2
 18227 11feb 5F4C4942 		.ascii "_LIB_SMBIOS_H \0"
 18227      5F534D42 
 18227      494F535F 
 18227      482000
 18228 11ffa 04       		.byte	0x4
 18229 11ffb 01       		.byte	0x1
 18230 11ffc 38       		.uleb128 0x38
 18231 11ffd 67535420 		.ascii "gST ST\0"
 18231      535400
 18232 12004 01       		.byte	0x1
 18233 12005 3A       		.uleb128 0x3a
 18234 12006 67425320 		.ascii "gBS BS\0"
 18234      425300
 18235 1200d 01       		.byte	0x1
 18236 1200e 3C       		.uleb128 0x3c
 18237 1200f 67525420 		.ascii "gRT RT\0"
 18237      525400
 18238 12016 01       		.byte	0x1
 18239 12017 3F       		.uleb128 0x3f
 18240 12018 44657669 		.ascii "DevicePathProtocol gEfiDevicePathProtocolGuid\0"
 18240      63655061 
 18240      74685072 
 18240      6F746F63 
 18240      6F6C2067 
 18241 12046 01       		.byte	0x1
 18242 12047 41       		.uleb128 0x41
 18243 12048 44657669 		.ascii "DevicePathToTextProtocol gEfiDevicePathToTextProtocolGuid\0"
 18243      63655061 
 18243      7468546F 
 18243      54657874 
 18243      50726F74 
 18244 12082 01       		.byte	0x1
 18245 12083 43       		.uleb128 0x43
 18246 12084 44657669 		.ascii "DevicePathFromTextProtocol gEfiDevicePathFromTextProtocolGuid\0"
 18246      63655061 
 18246      74684672 
 18246      6F6D5465 
 18246      78745072 
 18247 120c2 01       		.byte	0x1
 18248 120c3 45       		.uleb128 0x45
 18249 120c4 44657669 		.ascii "DevicePathUtilitiesProtocol gEfiDevicePathUtilitiesProtocolGuid\0"
 18249      63655061 
 18249      74685574 
 18249      696C6974 
 18249      69657350 
 18250 12104 01       		.byte	0x1
 18251 12105 47       		.uleb128 0x47
 18252 12106 4C6F6164 		.ascii "LoadedImageProtocol gEfiLoadedImageProtocolGuid\0"
 18252      6564496D 
 18252      61676550 
 18252      726F746F 
 18252      636F6C20 
 18253 12136 01       		.byte	0x1
 18254 12137 49       		.uleb128 0x49
 18255 12138 54657874 		.ascii "TextInProtocol gEfiSimpleTextInProtocolGuid\0"
 18255      496E5072 
 18255      6F746F63 
 18255      6F6C2067 
 18255      45666953 
 18256 12164 01       		.byte	0x1
 18257 12165 4B       		.uleb128 0x4b
 18258 12166 54657874 		.ascii "TextOutProtocol gEfiSimpleTextOutProtocolGuid\0"
 18258      4F757450 
 18258      726F746F 
 18258      636F6C20 
 18258      67456669 
 18259 12194 01       		.byte	0x1
 18260 12195 4D       		.uleb128 0x4d
 18261 12196 47726170 		.ascii "GraphicsOutputProtocol gEfiGraphicsOutputProtocolGuid\0"
 18261      68696373 
 18261      4F757470 
 18261      75745072 
 18261      6F746F63 
 18262 121cc 01       		.byte	0x1
 18263 121cd 4F       		.uleb128 0x4f
 18264 121ce 45646964 		.ascii "EdidDiscoveredProtocol gEfiEdidDiscoveredProtocolGuid\0"
 18264      44697363 
 18264      6F766572 
 18264      65645072 
 18264      6F746F63 
 18265 12204 01       		.byte	0x1
 18266 12205 51       		.uleb128 0x51
 18267 12206 45646964 		.ascii "EdidActiveProtocol gEfiEdidActiveProtocolGuid\0"
 18267      41637469 
 18267      76655072 
 18267      6F746F63 
 18267      6F6C2067 
 18268 12234 01       		.byte	0x1
 18269 12235 53       		.uleb128 0x53
 18270 12236 45646964 		.ascii "EdidOverrideProtocol gEfiEdidOverrideProtocolGuid\0"
 18270      4F766572 
 18270      72696465 
 18270      50726F74 
 18270      6F636F6C 
 18271 12268 01       		.byte	0x1
 18272 12269 55       		.uleb128 0x55
 18273 1226a 426C6F63 		.ascii "BlockIoProtocol gEfiBlockIoProtocolGuid\0"
 18273      6B496F50 
 18273      726F746F 
 18273      636F6C20 
 18273      67456669 
 18274 12292 01       		.byte	0x1
 18275 12293 57       		.uleb128 0x57
 18276 12294 426C6F63 		.ascii "BlockIo2Protocol gEfiBlockIo2ProtocolGuid\0"
 18276      6B496F32 
 18276      50726F74 
 18276      6F636F6C 
 18276      20674566 
 18277 122be 01       		.byte	0x1
 18278 122bf 59       		.uleb128 0x59
 18279 122c0 4469736B 		.ascii "DiskIoProtocol gEfiDiskIoProtocolGuid\0"
 18279      496F5072 
 18279      6F746F63 
 18279      6F6C2067 
 18279      45666944 
 18280 122e6 01       		.byte	0x1
 18281 122e7 5B       		.uleb128 0x5b
 18282 122e8 4469736B 		.ascii "DiskIo2Protocol gEfiDiskIo2ProtocolGuid\0"
 18282      496F3250 
 18282      726F746F 
 18282      636F6C20 
 18282      67456669 
 18283 12310 01       		.byte	0x1
 18284 12311 5D       		.uleb128 0x5d
 18285 12312 46696C65 		.ascii "FileSystemProtocol gEfiSimpleFileSystemProtocolGuid\0"
 18285      53797374 
 18285      656D5072 
 18285      6F746F63 
 18285      6F6C2067 
 18286 12346 01       		.byte	0x1
 18287 12347 5F       		.uleb128 0x5f
 18288 12348 4C6F6164 		.ascii "LoadFileProtocol gEfiLoadFileProtocolGuid\0"
 18288      46696C65 
 18288      50726F74 
 18288      6F636F6C 
 18288      20674566 
 18289 12372 01       		.byte	0x1
 18290 12373 61       		.uleb128 0x61
 18291 12374 44657669 		.ascii "DeviceIoProtocol gEfiDeviceIoProtocolGuid\0"
 18291      6365496F 
 18291      50726F74 
 18291      6F636F6C 
 18291      20674566 
 18292 1239e 01       		.byte	0x1
 18293 1239f 65       		.uleb128 0x65
 18294 123a0 556E6963 		.ascii "UnicodeCollationProtocol gEfiUnicodeCollationProtocolGuid\0"
 18294      6F646543 
 18294      6F6C6C61 
 18294      74696F6E 
 18294      50726F74 
 18295 123da 01       		.byte	0x1
 18296 123db 67       		.uleb128 0x67
 18297 123dc 53657269 		.ascii "SerialIoProtocol gEfiSerialIoProtocolGuid\0"
 18297      616C496F 
 18297      50726F74 
 18297      6F636F6C 
 18297      20674566 
 18298 12406 01       		.byte	0x1
 18299 12407 6D       		.uleb128 0x6d
 18300 12408 53696D70 		.ascii "SimpleNetworkProtocol gEfiSimpleNetworkProtocolGuid\0"
 18300      6C654E65 
 18300      74776F72 
 18300      6B50726F 
 18300      746F636F 
 18301 1243c 01       		.byte	0x1
 18302 1243d 6F       		.uleb128 0x6f
 18303 1243e 50786542 		.ascii "PxeBaseCodeProtocol gEfiPxeBaseCodeProtocolGuid\0"
 18303      61736543 
 18303      6F646550 
 18303      726F746F 
 18303      636F6C20 
 18304 1246e 01       		.byte	0x1
 18305 1246f 71       		.uleb128 0x71
 18306 12470 50786543 		.ascii "PxeCallbackProtocol gEfiPxeBaseCodeCallbackProtocolGuid\0"
 18306      616C6C62 
 18306      61636B50 
 18306      726F746F 
 18306      636F6C20 
 18307 124a8 01       		.byte	0x1
 18308 124a9 73       		.uleb128 0x73
 18309 124aa 4E657477 		.ascii "NetworkInterfaceIdentifierProtocol gEfiNetworkInterfaceIdentifierProtocolGuid\0"
 18309      6F726B49 
 18309      6E746572 
 18309      66616365 
 18309      4964656E 
 18310 124f8 01       		.byte	0x1
 18311 124f9 75       		.uleb128 0x75
 18312 124fa 55695072 		.ascii "UiProtocol gEFiUiInterfaceProtocolGuid\0"
 18312      6F746F63 
 18312      6F6C2067 
 18312      45466955 
 18312      69496E74 
 18313 12521 01       		.byte	0x1
 18314 12522 78       		.uleb128 0x78
 18315 12523 50636949 		.ascii "PciIoProtocol gEfiPciIoProtocolGuid\0"
 18315      6F50726F 
 18315      746F636F 
 18315      6C206745 
 18315      66695063 
 18316 12547 01       		.byte	0x1
 18317 12548 7B       		.uleb128 0x7b
 18318 12549 44726976 		.ascii "DriverBindingProtocol gEfiDriverBindingProtocolGuid\0"
 18318      65724269 
 18318      6E64696E 
 18318      6750726F 
 18318      746F636F 
 18319 1257d 01       		.byte	0x1
 18320 1257e 7D       		.uleb128 0x7d
 18321 1257f 436F6D70 		.ascii "ComponentNameProtocol gEfiComponentNameProtocolGuid\0"
 18321      6F6E656E 
 18321      744E616D 
 18321      6550726F 
 18321      746F636F 
 18322 125b3 01       		.byte	0x1
 18323 125b4 7F       		.uleb128 0x7f
 18324 125b5 436F6D70 		.ascii "ComponentName2Protocol gEfiComponentName2ProtocolGuid\0"
 18324      6F6E656E 
 18324      744E616D 
 18324      65325072 
 18324      6F746F63 
 18325 125eb 01       		.byte	0x1
 18326 125ec 8101     		.uleb128 0x81
 18327 125ee 48617368 		.ascii "HashProtocol gEfiHashProtocolGuid\0"
 18327      50726F74 
 18327      6F636F6C 
 18327      20674566 
 18327      69486173 
 18328 12610 01       		.byte	0x1
 18329 12611 8301     		.uleb128 0x83
 18330 12613 506C6174 		.ascii "PlatformDriverOverrideProtocol gEfiPlatformDriverOverrideProtocolGuid\0"
 18330      666F726D 
 18330      44726976 
 18330      65724F76 
 18330      65727269 
 18331 12659 01       		.byte	0x1
 18332 1265a 8501     		.uleb128 0x85
 18333 1265c 42757353 		.ascii "BusSpecificDriverOverrideProtocol gEfiBusSpecificDriverOverrideProtocolGuid\0"
 18333      70656369 
 18333      66696344 
 18333      72697665 
 18333      724F7665 
 18334 126a8 01       		.byte	0x1
 18335 126a9 8701     		.uleb128 0x87
 18336 126ab 44726976 		.ascii "DriverFamilyOverrideProtocol gEfiDriverFamilyOverrideProtocolGuid\0"
 18336      65724661 
 18336      6D696C79 
 18336      4F766572 
 18336      72696465 
 18337 126ed 01       		.byte	0x1
 18338 126ee 8B01     		.uleb128 0x8b
 18339 126f0 45666947 		.ascii "EfiGlobalVariable gEfiGlobalVariableGuid\0"
 18339      6C6F6261 
 18339      6C566172 
 18339      6961626C 
 18339      65206745 
 18340 12719 01       		.byte	0x1
 18341 1271a 8D01     		.uleb128 0x8d
 18342 1271c 47656E65 		.ascii "GenericFileInfo gEfiFileInfoGuid\0"
 18342      72696346 
 18342      696C6549 
 18342      6E666F20 
 18342      67456669 
 18343 1273d 01       		.byte	0x1
 18344 1273e 8F01     		.uleb128 0x8f
 18345 12740 46696C65 		.ascii "FileSystemInfo gEfiFileSystemInfoGuid\0"
 18345      53797374 
 18345      656D496E 
 18345      666F2067 
 18345      45666946 
 18346 12766 01       		.byte	0x1
 18347 12767 9101     		.uleb128 0x91
 18348 12769 46696C65 		.ascii "FileSystemVolumeLabelInfo gEfiFileSystemVolumeLabelInfoIdGuid\0"
 18348      53797374 
 18348      656D566F 
 18348      6C756D65 
 18348      4C616265 
 18349 127a7 01       		.byte	0x1
 18350 127a8 9301     		.uleb128 0x93
 18351 127aa 5063416E 		.ascii "PcAnsiProtocol gEfiPcAnsiGuid\0"
 18351      73695072 
 18351      6F746F63 
 18351      6F6C2067 
 18351      45666950 
 18352 127c8 01       		.byte	0x1
 18353 127c9 9501     		.uleb128 0x95
 18354 127cb 56743130 		.ascii "Vt100Protocol gEfiVT100Guid\0"
 18354      3050726F 
 18354      746F636F 
 18354      6C206745 
 18354      66695654 
 18355 127e7 01       		.byte	0x1
 18356 127e8 B501     		.uleb128 0xb5
 18357 127ea 4C4F4144 		.ascii "LOAD_OPTION_ACTIVE 0x00000001\0"
 18357      5F4F5054 
 18357      494F4E5F 
 18357      41435449 
 18357      56452030 
 18358 12808 01       		.byte	0x1
 18359 12809 B701     		.uleb128 0xb7
 18360 1280b 5661724C 		.ascii "VarLanguageCodes L\"LangCodes\"\0"
 18360      616E6775 
 18360      61676543 
 18360      6F646573 
 18360      204C224C 
 18361 12829 01       		.byte	0x1
 18362 1282a B801     		.uleb128 0xb8
 18363 1282c 5661724C 		.ascii "VarLanguage L\"Lang\"\0"
 18363      616E6775 
 18363      61676520 
 18363      4C224C61 
 18363      6E672200 
 18364 12840 01       		.byte	0x1
 18365 12841 B901     		.uleb128 0xb9
 18366 12843 56617254 		.ascii "VarTimeout L\"Timeout\"\0"
 18366      696D656F 
 18366      7574204C 
 18366      2254696D 
 18366      656F7574 
 18367 12859 01       		.byte	0x1
 18368 1285a BA01     		.uleb128 0xba
 18369 1285c 56617243 		.ascii "VarConsoleInp L\"ConIn\"\0"
 18369      6F6E736F 
 18369      6C65496E 
 18369      70204C22 
 18369      436F6E49 
 18370 12873 01       		.byte	0x1
 18371 12874 BB01     		.uleb128 0xbb
 18372 12876 56617243 		.ascii "VarConsoleOut L\"ConOut\"\0"
 18372      6F6E736F 
 18372      6C654F75 
 18372      74204C22 
 18372      436F6E4F 
 18373 1288e 01       		.byte	0x1
 18374 1288f BC01     		.uleb128 0xbc
 18375 12891 56617245 		.ascii "VarErrorOut L\"ErrOut\"\0"
 18375      72726F72 
 18375      4F757420 
 18375      4C224572 
 18375      724F7574 
 18376 128a7 01       		.byte	0x1
 18377 128a8 BD01     		.uleb128 0xbd
 18378 128aa 56617242 		.ascii "VarBootOption L\"Boot%04x\"\0"
 18378      6F6F744F 
 18378      7074696F 
 18378      6E204C22 
 18378      426F6F74 
 18379 128c4 01       		.byte	0x1
 18380 128c5 BE01     		.uleb128 0xbe
 18381 128c7 56617242 		.ascii "VarBootOrder L\"BootOrder\"\0"
 18381      6F6F744F 
 18381      72646572 
 18381      204C2242 
 18381      6F6F744F 
 18382 128e1 01       		.byte	0x1
 18383 128e2 BF01     		.uleb128 0xbf
 18384 128e4 56617242 		.ascii "VarBootNext L\"BootNext\"\0"
 18384      6F6F744E 
 18384      65787420 
 18384      4C22426F 
 18384      6F744E65 
 18385 128fc 01       		.byte	0x1
 18386 128fd C001     		.uleb128 0xc0
 18387 128ff 56617242 		.ascii "VarBootCurrent L\"BootCurrent\"\0"
 18387      6F6F7443 
 18387      75727265 
 18387      6E74204C 
 18387      22426F6F 
 18388 1291d 01       		.byte	0x1
 18389 1291e C101     		.uleb128 0xc1
 18390 12920 56617244 		.ascii "VarDriverOption L\"Driver%04x\"\0"
 18390      72697665 
 18390      724F7074 
 18390      696F6E20 
 18390      4C224472 
 18391 1293e 01       		.byte	0x1
 18392 1293f C201     		.uleb128 0xc2
 18393 12941 56617244 		.ascii "VarDriverOrder L\"DriverOrder\"\0"
 18393      72697665 
 18393      724F7264 
 18393      6572204C 
 18393      22447269 
 18394 1295f 01       		.byte	0x1
 18395 12960 C301     		.uleb128 0xc3
 18396 12962 56617243 		.ascii "VarConsoleInpDev L\"ConInDev\"\0"
 18396      6F6E736F 
 18396      6C65496E 
 18396      70446576 
 18396      204C2243 
 18397 1297f 01       		.byte	0x1
 18398 12980 C401     		.uleb128 0xc4
 18399 12982 56617243 		.ascii "VarConsoleOutDev L\"ConOutDev\"\0"
 18399      6F6E736F 
 18399      6C654F75 
 18399      74446576 
 18399      204C2243 
 18400 129a0 01       		.byte	0x1
 18401 129a1 C501     		.uleb128 0xc5
 18402 129a3 56617245 		.ascii "VarErrorOutDev L\"ErrOutDev\"\0"
 18402      72726F72 
 18402      4F757444 
 18402      6576204C 
 18402      22457272 
 18403 129bf 01       		.byte	0x1
 18404 129c0 C701     		.uleb128 0xc7
 18405 129c2 4C616E67 		.ascii "LanguageCodeEnglish \"eng\"\0"
 18405      75616765 
 18405      436F6465 
 18405      456E676C 
 18405      69736820 
 18406 129dc 01       		.byte	0x1
 18407 129dd D901     		.uleb128 0xd9
 18408 129df 53544154 		.ascii "STATIC \0"
 18408      49432000 
 18409 129e7 01       		.byte	0x1
 18410 129e8 DA01     		.uleb128 0xda
 18411 129ea 494E5445 		.ascii "INTERNAL \0"
 18411      524E414C 
 18411      2000
 18412 129f4 01       		.byte	0x1
 18413 129f5 DB01     		.uleb128 0xdb
 18414 129f7 424F4F54 		.ascii "BOOTSERVICE \0"
 18414      53455256 
 18414      49434520 
 18414      00
 18415 12a04 01       		.byte	0x1
 18416 12a05 F204     		.uleb128 0x272
 18417 12a07 53507269 		.ascii "SPrint UnicodeSPrint\0"
 18417      6E742055 
 18417      6E69636F 
 18417      64655350 
 18417      72696E74 
 18418 12a1c 01       		.byte	0x1
 18419 12a1d F304     		.uleb128 0x273
 18420 12a1f 56535072 		.ascii "VSPrint UnicodeVSPrint\0"
 18420      696E7420 
 18420      556E6963 
 18420      6F646556 
 18420      53507269 
 18421 12a36 01       		.byte	0x1
 18422 12a37 F404     		.uleb128 0x274
 18423 12a39 41507269 		.ascii "APrint AsciiPrint\0"
 18423      6E742041 
 18423      73636969 
 18423      5072696E 
 18423      7400
 18424 12a4b 01       		.byte	0x1
 18425 12a4c AD08     		.uleb128 0x42d
 18426 12a4e 6F757470 		.ascii "outp(_Port,_DataByte) (UINT8)WritePort(GlobalIoFncs, IO_UINT8, (UINTN)_Port, (UINTN)_DataB
 18426      285F506F 
 18426      72742C5F 
 18426      44617461 
 18426      42797465 
 18427 12aad 01       		.byte	0x1
 18428 12aae AE08     		.uleb128 0x42e
 18429 12ab0 696E7028 		.ascii "inp(_Port) (UINT8)ReadPort(GlobalIoFncs, IO_UINT8, (UINTN)_Port)\0"
 18429      5F506F72 
 18429      74292028 
 18429      55494E54 
 18429      38295265 
 18430 12af1 01       		.byte	0x1
 18431 12af2 AF08     		.uleb128 0x42f
 18432 12af4 6F757470 		.ascii "outpw(_Port,_DataByte) (UINT16)WritePort(GlobalIoFncs, IO_UINT16, (UINTN)_Port, (UINTN)_Da
 18432      77285F50 
 18432      6F72742C 
 18432      5F446174 
 18432      61427974 
 18433 12b56 01       		.byte	0x1
 18434 12b57 B008     		.uleb128 0x430
 18435 12b59 696E7077 		.ascii "inpw(_Port) (UINT16)ReadPort(GlobalIoFncs, IO_UINT16, (UINTN)_Port)\0"
 18435      285F506F 
 18435      72742920 
 18435      2855494E 
 18435      54313629 
 18436 12b9d 01       		.byte	0x1
 18437 12b9e B108     		.uleb128 0x431
 18438 12ba0 6F757470 		.ascii "outpd(_Port,_DataByte) (UINT32)WritePort(GlobalIoFncs, IO_UINT32, (UINTN)_Port, (UINTN)_Da
 18438      64285F50 
 18438      6F72742C 
 18438      5F446174 
 18438      61427974 
 18439 12c02 01       		.byte	0x1
 18440 12c03 B208     		.uleb128 0x432
 18441 12c05 696E7064 		.ascii "inpd(_Port) (UINT32)ReadPort(GlobalIoFncs, IO_UINT32, (UINTN)_Port)\0"
 18441      285F506F 
 18441      72742920 
 18441      2855494E 
 18441      54333229 
 18442 12c49 01       		.byte	0x1
 18443 12c4a B408     		.uleb128 0x434
 18444 12c4c 77726974 		.ascii "writepci8(_Addr,_DataByte) (UINT8)WritePciConfig(GlobalIoFncs, IO_UINT8, (UINTN)_Addr, (UI
 18444      65706369 
 18444      38285F41 
 18444      6464722C 
 18444      5F446174 
 18445 12cb5 01       		.byte	0x1
 18446 12cb6 B508     		.uleb128 0x435
 18447 12cb8 72656164 		.ascii "readpci8(_Addr) (UINT8)ReadPciConfig(GlobalIoFncs, IO_UINT8, (UINTN)_Addr)\0"
 18447      70636938 
 18447      285F4164 
 18447      64722920 
 18447      2855494E 
 18448 12d03 01       		.byte	0x1
 18449 12d04 B608     		.uleb128 0x436
 18450 12d06 77726974 		.ascii "writepci16(_Addr,_DataByte) (UINT16)WritePciConfig(GlobalIoFncs, IO_UINT16, (UINTN)_Addr, 
 18450      65706369 
 18450      3136285F 
 18450      41646472 
 18450      2C5F4461 
 18451 12d72 01       		.byte	0x1
 18452 12d73 B708     		.uleb128 0x437
 18453 12d75 72656164 		.ascii "readpci16(_Addr) (UINT16)ReadPciConfig(GlobalIoFncs, IO_UINT16, (UINTN)_Addr)\0"
 18453      70636931 
 18453      36285F41 
 18453      64647229 
 18453      20285549 
 18454 12dc3 01       		.byte	0x1
 18455 12dc4 B808     		.uleb128 0x438
 18456 12dc6 77726974 		.ascii "writepci32(_Addr,_DataByte) (UINT32)WritePciConfig(GlobalIoFncs, IO_UINT32, (UINTN)_Addr, 
 18456      65706369 
 18456      3332285F 
 18456      41646472 
 18456      2C5F4461 
 18457 12e32 01       		.byte	0x1
 18458 12e33 B908     		.uleb128 0x439
 18459 12e35 72656164 		.ascii "readpci32(_Addr) (UINT32)ReadPciConfig(GlobalIoFncs, IO_UINT32, (UINTN)_Addr)\0"
 18459      70636933 
 18459      32285F41 
 18459      64647229 
 18459      20285549 
 18460 12e83 01       		.byte	0x1
 18461 12e84 BB08     		.uleb128 0x43b
 18462 12e86 506F7274 		.ascii "Port80(_PostCode) GlobalIoFncs->Io.Write (GlobalIoFncs, IO_UINT16, (UINT64)0x80, 1, &(_Pos
 18462      3830285F 
 18462      506F7374 
 18462      436F6465 
 18462      2920476C 
 18463 12ee8 04       		.byte	0x4
 18464 12ee9 01       		.byte	0x1
 18465 12eea 05       		.uleb128 0x5
 18466 12eeb 4546495F 		.ascii "EFI_BLACK 0x00\0"
 18466      424C4143 
 18466      4B203078 
 18466      303000
 18467 12efa 01       		.byte	0x1
 18468 12efb 06       		.uleb128 0x6
 18469 12efc 4546495F 		.ascii "EFI_BLUE 0x01\0"
 18469      424C5545 
 18469      20307830 
 18469      3100
 18470 12f0a 01       		.byte	0x1
 18471 12f0b 07       		.uleb128 0x7
 18472 12f0c 4546495F 		.ascii "EFI_GREEN 0x02\0"
 18472      47524545 
 18472      4E203078 
 18472      303200
 18473 12f1b 01       		.byte	0x1
 18474 12f1c 08       		.uleb128 0x8
 18475 12f1d 4546495F 		.ascii "EFI_RED 0x04\0"
 18475      52454420 
 18475      30783034 
 18475      00
 18476 12f2a 01       		.byte	0x1
 18477 12f2b 09       		.uleb128 0x9
 18478 12f2c 4546495F 		.ascii "EFI_BRIGHT 0x08\0"
 18478      42524947 
 18478      48542030 
 18478      78303800 
 18479 12f3c 01       		.byte	0x1
 18480 12f3d 0C       		.uleb128 0xc
 18481 12f3e 4D5F5049 		.ascii "M_PI 3.14159265358979323846\0"
 18481      20332E31 
 18481      34313539 
 18481      32363533 
 18481      35383937 
 18482 12f5a 01       		.byte	0x1
 18483 12f5b 10       		.uleb128 0x10
 18484 12f5c 4445475F 		.ascii "DEG_TO_RAD(angle) ((angle) * M_PI / 180.0)\0"
 18484      544F5F52 
 18484      41442861 
 18484      6E676C65 
 18484      29202828 
 18485 12f87 01       		.byte	0x1
 18486 12f88 13       		.uleb128 0x13
 18487 12f89 53504541 		.ascii "SPEAKER_PORT 0x61\0"
 18487      4B45525F 
 18487      504F5254 
 18487      20307836 
 18487      3100
 18488 12f9b 01       		.byte	0x1
 18489 12f9c 14       		.uleb128 0x14
 18490 12f9d 54494D45 		.ascii "TIMER_COMMAND_PORT 0x43\0"
 18490      525F434F 
 18490      4D4D414E 
 18490      445F504F 
 18490      52542030 
 18491 12fb5 01       		.byte	0x1
 18492 12fb6 15       		.uleb128 0x15
 18493 12fb7 54494D45 		.ascii "TIMER_DATA_PORT 0x42\0"
 18493      525F4441 
 18493      54415F50 
 18493      4F525420 
 18493      30783432 
 18494 12fcc 01       		.byte	0x1
 18495 12fcd 16       		.uleb128 0x16
 18496 12fce 5049545F 		.ascii "PIT_FREQUENCY 1193180\0"
 18496      46524551 
 18496      55454E43 
 18496      59203131 
 18496      39333138 
 18497 12fe4 04       		.byte	0x4
 18498 12fe5 00       		.byte	0
 18499              		.section	.debug_line,"dr"
 18500              	.Ldebug_line0:
 18501 0000 DE0A0000 		.section	.debug_str,"dr"
 18501      05000800 
 18501      14010000 
 18501      010101FB 
 18501      0E0D0001 
 18502              	.LASF12:
 18503 0000 6D657373 		.ascii "message\0"
 18503      61676500 
 18504              	.LASF2:
 18505 0008 41747472 		.ascii "Attribute\0"
 18505      69627574 
 18505      6500
 18506              	.LASF13:
 18507 0012 6F726967 		.ascii "originalCol\0"
 18507      696E616C 
 18507      436F6C00 
 18508              	.LASF14:
 18509 001e 6F726967 		.ascii "originalRow\0"
 18509      696E616C 
 18509      526F7700 
 18510              	.LASF10:
 18511 002a 636F6C6F 		.ascii "color\0"
 18511      7200
 18512              	.LASF8:
 18513 0030 53746174 		.ascii "Status\0"
 18513      757300
 18514              	.LASF9:
 18515 0037 65666665 		.ascii "effectDuration\0"
 18515      63744475 
 18515      72617469 
 18515      6F6E00
 18516              	.LASF3:
 18517 0046 436F6E4F 		.ascii "ConOut\0"
 18517      757400
 18518              	.LASF5:
 18519 004d 53797374 		.ascii "SystemTable\0"
 18519      656D5461 
 18519      626C6500 
 18520              	.LASF6:
 18521 0059 436F6C75 		.ascii "Columns\0"
 18521      6D6E7300 
 18522              	.LASF7:
 18523 0061 526F7773 		.ascii "Rows\0"
 18523      00
 18524              	.LASF11:
 18525 0066 64757261 		.ascii "duration\0"
 18525      74696F6E 
 18525      00
 18526              	.LASF4:
 18527 006f 48656164 		.ascii "HeaderSize\0"
 18527      65725369 
 18527      7A6500
 18528              		.section	.debug_line_str,"dr"
 18529              	.LASF0:
 18530 0000 433A2F55 		.ascii "C:/Users/victim/Documents/GitHub/MrsMajor5.0/UEFI\\bootmgfw.c\0"
 18530      73657273 
 18530      2F766963 
 18530      74696D2F 
 18530      446F6375 
 18531              	.LASF1:
 18532 003d 433A5C55 		.ascii "C:\\Users\\victim\\Documents\\GitHub\\MrsMajor5.0\\UEFI\\Backend\0"
 18532      73657273 
 18532      5C766963 
 18532      74696D5C 
 18532      446F6375 
 18533              		.ident	"GCC: (Rev1, Built by MSYS2 project) 14.2.0"
